(dp0
S'2209178'
p1
(dp2
S'translation'
p3
V\u5207\u63db\u80fd\u529b\u901a\u77e5\u70ba [[RED]]\u95dc\u9589
p4
sS'string'
p5
VAbility notifications toggled [[RED]]off
p6
sS'context'
p7
VCommands.Notifications.Off
p8
ssS'2209179'
p9
(dp10
g3
V\u5207\u63db\u80fd\u529b\u901a\u77e5\u70ba  [[GREEN]]\u958b\u555f
p11
sg5
VAbility notifications toggled [[GREEN]]on
p12
sg7
VCommands.Notifications.On
p13
ssS'4081054'
p14
(dp15
g3
V[[GREEN]]- \u4f7f\u7528\u53f3\u9375\u5207\u63db\u6280\u80fd\u4f5c\u7528
p16
sg5
V[[GREEN]]- Toggle ability activation with right click
p17
sg7
VCommands.ToggleAbility
p18
ssS'2209173'
p19
(dp20
S'translation'
p21
V[[DARK_AQUA]]\u95dc\u65bc [[YELLOW]]mcMMO[[DARK_AQUA]] \u5c08\u6848:,[[GOLD]]mcMMO\u662f\u4e00\u500b[[RED]]\u958b\u653e\u539f\u59cb\u78bc\u7684[[GOLD]] RPG \u6a21\u7d44\u59cb\u65bc2011\u5e74\u4e8c\u6708,[[GOLD]]\u5efa\u7acb\u8005 [[BLUE]]nossr50[[GOLD]]. \u65e8\u5728\u63d0\u4f9b\u4e00\u500b\u9ad8\u54c1\u8ceaRPG\u9ad4\u9a57.,[[DARK_AQUA]]\u5c0f\u6280\u5de7:,[[GOLD]] - [[GREEN]]\u8f38\u5165 [[RED]]/mcmmo help[[GREEN]] \u4ee5\u4e86\u89e3\u6240\u6709\u6307\u4ee4,[[GOLD]] - [[GREEN]]\u8f38\u5165 [[RED]]/\u6280\u80fd\u540d\u7a31 [[GREEN]]\u4ee5\u4e86\u89e3\u6280\u80fd\u7d30\u7bc0,[[DARK_AQUA]]\u958b\u767c\u8005:,[[GOLD]] - [[GREEN]]nossr50 [[BLUE]](\u8d0a\u52a9\u8005),[[GOLD]] - [[GREEN]]GJ [[BLUE]](\u5c08\u6848\u9818\u5c0e\u4eba),[[GOLD]] - [[GREEN]]NuclearW [[BLUE]](\u958b\u767c\u8005),[[GOLD]] - [[GREEN]]bm01 [[BLUE]](\u958b\u767c\u8005),[[GOLD]] - [[GREEN]]TfT_02 [[BLUE]](\u958b\u767c\u8005),[[GOLD]] - [[GREEN]]Glitchfinder [[BLUE]](\u958b\u767c\u8005),[[GOLD]] - [[GREEN]]t00thpick1 [[BLUE]](\u958b\u767c\u8005),[[DARK_AQUA]]\u5be6\u7528\u9023\u7d50:,[[GOLD]] - [[GREEN]]https://github.com/mcMMO-Dev/mcMMO/issues[[GOLD]] \u932f\u8aa4\u56de\u5831,[[GOLD]] - [[GREEN]]#mcmmo @ irc.esper.net[[GOLD]] IRC \u983b\u9053,
p22
sS'string'
p23
V[[DARK_AQUA]]About the [[YELLOW]]mcMMO[[DARK_AQUA]] Project:,[[GOLD]]mcMMO is an [[RED]]open source[[GOLD]] RPG mod created in February 2011,[[GOLD]]by [[BLUE]]nossr50[[GOLD]]. The goal is to provide a quality RPG experience.,[[DARK_AQUA]]Tips:,[[GOLD]] - [[GREEN]]Use [[RED]]/mcmmo help[[GREEN]] to see commands,[[GOLD]] - [[GREEN]]Type [[RED]]/SKILLNAME[[GREEN]] to see detailed skill info,[[DARK_AQUA]]Developers:,[[GOLD]] - [[GREEN]]nossr50 [[BLUE]](Founder),[[GOLD]] - [[GREEN]]GJ [[BLUE]](Project Lead),[[GOLD]] - [[GREEN]]NuclearW [[BLUE]](Developer),[[GOLD]] - [[GREEN]]bm01 [[BLUE]](Developer),[[GOLD]] - [[GREEN]]TfT_02 [[BLUE]](Developer),[[GOLD]] - [[GREEN]]Glitchfinder [[BLUE]](Developer),[[GOLD]] - [[GREEN]]t00thpick1 [[BLUE]](Developer),[[DARK_AQUA]]Useful Links:,[[GOLD]] - [[GREEN]]https://github.com/mcMMO-Dev/mcMMO/issues[[GOLD]] Bug Reporting,[[GOLD]] - [[GREEN]]#mcmmo @ irc.esper.net[[GOLD]] IRC Chat,
p24
sS'context'
p25
VmcMMO.Description
p26
ssS'2124978'
p27
(dp28
g21
V[[RED]]---[][[YELLOW]]mcMMO \u6307\u4ee4[[RED]][]---
p29
sg23
V[[RED]]---[][[YELLOW]]mcMMO Commands[[RED]][]---
p30
sg25
VCommands.mcc.Header
p31
ssS'2124980'
p32
(dp33
g3
V[[RED]]{0} \u56e0\u70ba {1} \u800c\u4fee\u6539.
p34
sg5
V[[RED]]{0} has been modified for {1}.
p35
sg7
VCommands.mmoedit.Modified.2
p36
ssS'4081050'
p37
(dp38
g3
V[[RED]]---[][[GREEN]]\u968a\u4f0d\u6307\u4ee4[[RED]][]---
p39
sg5
V[[RED]]---[][[GREEN]]PARTY COMMANDS[[RED]][]---
p40
sg7
VCommands.Party.Commands
p41
ssS'791870'
p42
(dp43
g3
V\u99b4\u7378:
p44
sg5
VTaming:
p45
sg7
VTaming.Listener
p46
ssS'791978'
p47
(dp48
g3
V[[RED]]\u4f60\u4e0d\u80fd\u53ec\u63db\u72fc\u56e0\u70ba\u4f60\u5df2\u7d93\u53ec\u559a\u592a\u591a\u4e86.
p49
sg5
V[[RED]]You have too many wolves nearby to summon any more.
p50
sg7
VTaming.Summon.Fail.Wolf
p51
ssS'791872'
p52
(dp53
g3
V\u7522\u751f\u653e\u8840\u7684\u6301\u7e8c\u50b7\u5bb3
p54
sg5
VApply a bleed DoT
p55
sg7
VSwords.Effect.7
p56
ssS'791873'
p57
(dp58
g3
V\u5272\u88c2\u65ac\u6d41\u8840\u50b7\u5bb3\u589e\u52a0
p59
sg5
VSerrated Strikes Bleed+
p60
sg7
VSwords.Effect.4
p61
ssS'3587648'
p62
(dp63
g3
V[[DARK_AQUA]]\u4ec0\u9ebc\u662f\u56de\u6536\u5f13\u7bad?[[YELLOW]]\u4f60\u6709\u6a5f\u7387\u5728\u6bba\u6b7b\u602a\u7269\u5f8c\u56de\u6536\u5c04\u51fa\u53bb\u7684\u7bad.[[YELLOW]]\u6a5f\u7387\u95dc\u4fc2\u5230\u4f60\u7684\u7bad\u8853\u7b49\u7d1a.[[YELLOW]]\u9810\u8a2d\u72c0\u614b\u4e0b,\u6bcf\u5347\u4e00\u7b49\u589e\u52a00.1%\u6a5f\u7387,[[YELLOW]]\u7b49\u7d1a\u5230\u90541000\u6642\u5c07\u6709100%\u56de\u6536\u7387.
p64
sg5
V[[DARK_AQUA]]How does Arrow Retrieval work?\u005cn[[YELLOW]]You have a passive chance to retrieve some of your arrows\u005cn[[YELLOW]]when you kill a mob with your bow.\u005cn[[YELLOW]]This chance increases as you level in Archery.\u005cn[[YELLOW]]By default, this ability increases by 0.1% per level, up to 100%\u005cn[[YELLOW]]at level 1000.
p65
sg7
VGuides.Archery.Section.3
p66
ssS'791875'
p67
(dp68
g3
V[[DARK_GRAY]]\u5982\u679c\u4f60\u7121\u6cd5\u4f7f\u7528\u90a3\u4e9b\u6280\u80fd\u5c31\u4e0d\u6703\u51fa\u73fe\u5728\u9019\u88e1
p69
sg5
V[[DARK_GRAY]]If you don't have access to a skill it will not be shown here.
p70
sg7
VmcMMO.NoSkillNote
p71
ssS'791876'
p72
(dp73
g3
V[[GREEN]]**\u4f60\u8209\u9ad8\u4e86\u4f60\u7684\u92e4\u982d**
p74
sg5
V[[GREEN]]**YOU READY YOUR HOE**
p75
sg7
VHerbalism.Ability.Ready
p76
ssS'792058'
p77
(dp78
g3
V[[RED]]\u7da0\u5316\u6301\u7e8c\u6642\u9593: [[YELLOW]]{0}s
p79
sg5
V[[RED]]Green Terra Length: [[YELLOW]]{0}s
p80
sg7
VHerbalism.Ability.GTe.Length
p81
ssS'3587644'
p82
(dp83
g3
V[[DARK_AQUA]]\u4ec0\u9ebc\u662f\u8ff4\u907f?[[YELLOW]]\u8ff4\u907f\u662f\u6709\u6a5f\u7387\u6e1b \u514d\u5728\u6230\u9b25\u4e2d[[YELLOW]]\u6575\u4eba\u5c0d\u4f60\u7684\u50b7\u5bb3.[[YELLOW]]\u9019\u6a5f\u7387\u95dc\u4fc2\u5230\u4f60\u7684\u96dc\u6280\u7b49\u7d1a.
p84
sg5
V[[DARK_AQUA]]How does Dodge work?\u005cn[[YELLOW]]Dodge is a passive chance when you are\u005cn[[YELLOW]]injured in combat to halve the damage taken.\u005cn[[YELLOW]]It is tied to your skill level.
p85
sg7
VGuides.Acrobatics.Section.2
p86
ssS'791970'
p87
(dp88
g3
V[[DARK_RED]]{0} \u4f60\u4e0d\u5728\u4f60\u7684\u5718\u968a
p89
sg5
V[[DARK_RED]]{0} is not in your party
p90
sg7
VParty.NotInYourParty
p91
ssS'791973'
p92
(dp93
g3
V[[GREEN]]\u4f60\u5df2\u7d93\u50b3\u9001\u5230 {0}.
p94
sg5
V[[GREEN]]You have teleported to {0}.
p95
sg7
VParty.Teleport.Player
p96
ssS'3587647'
p97
(dp98
g3
V[[DARK_AQUA]]\u4ec0\u9ebc\u662f\u6688\u7729\u6548\u679c?[[YELLOW]]\u7576\u4f60\u64ca\u4e2d\u76ee\u6a19\u6642\u6709\u88ab\u52d5\u6a5f\u7387\u4f7f\u76ee\u6a19\u6688\u7729.[[YELLOW]]\u6688\u7dda\u89f8\u767c\u6642\u5c07\u5f37\u5236\u4f60\u7684\u76ee\u6a19\u5446\u6eef\u4e00\u5c0f\u6bb5\u6642\u9593.[[YELLOW]]\u6688\u7729\u6548\u679c\u6709\u52a0\u4e584\u9ede\u50b7\u5bb3(2\u5fc3).
p99
sg5
V[[DARK_AQUA]]How does Daze work?\u005cn[[YELLOW]]You have a passive chance to daze other players when\u005cn[[YELLOW]]you shoot them. When Daze triggers it forces your opponents\u005cn[[YELLOW]]to look straight up for a short duration.\u005cn[[YELLOW]]A Daze shot also deals an additional 4 damage (2 hearts).
p100
sg7
VGuides.Archery.Section.2
p101
ssS'3587640'
p102
(dp103
g3
V[[DARK_AQUA]]\u4ec0\u9ebc\u662f\u653e\u8840?[[YELLOW]]\u653e\u8840\u5c07\u9020\u6210\u6575\u4eba\u6bcf\u5169\u79d2\u9418\u53d7\u5230\u50b7\u5bb3. \u76ee\u6a19\u5c07\u6703\u4e0d \u505c\u7684\u6d41\u8840\u76f4\u5230\u6548\u679c[[YELLOW]]\u7d50\u675f, \u6216\u662f\u6b7b\u4ea1. \u653e\u8840\u7684\u6642\u9593\u96a8\u8457\u4f60\u7684\u528d\u8853\u7684\u63d0\u6607\u800c\u589e\u52a0.
p104
sg5
V[[DARK_AQUA]]How does Bleed work?\u005cn[[YELLOW]]Bleed causes enemies to take damage every two seconds. The \u005cn[[YELLOW]]target will bleed until the effect wears off, or death, \u005cn[[YELLOW]]whichever comes first.\u005cn[[YELLOW]]The duration of the bleed is increased by your sword skill.
p105
sg7
VGuides.Swords.Section.3
p106
ssS'3587641'
p107
(dp108
g3
V[[DARK_AQUA]]\u4ec0\u9ebc\u662f\u53cd\u64ca?[[YELLOW]]\u53cd\u64ca\u662f\u4e00\u500b\u4e3b\u52d5\u6280\u80fd. \u7576\u683c\u6a94\u602a\u7269\u6240\u9020\u6210\u7684\u50b7\u5bb3\u6642, \u4f60\u6709\u6a5f\u6703\u53cd\u5c04[[YELLOW]]50%\u6240\u53d7\u5230\u7684\u50b7\u5bb3.
p109
sg5
V[[DARK_AQUA]]How does Counter Attack work?\u005cn[[YELLOW]]Counter Attack is an active ability. When blocking and taking\u005cn[[YELLOW]]hits from mobs, you will have a chance to reflect 50% of \u005cn[[YELLOW]]the damage that was taken.
p110
sg7
VGuides.Swords.Section.2
p111
ssS'3587642'
p112
(dp113
g3
V[[DARK_AQUA]]\u4ec0\u9ebc\u662f\u5272\u88c2\u65ac?[[YELLOW]]\u5272\u88c2\u65ac\u662f\u4e00\u500b\u4e3b\u52d5\u6280\u80fd, \u4f60\u53ef\u4ee5\u5c07\u528d\u62ff\u518d\u624b\u4e0a\u4e26\u6309\u4e0b\u53f3\u9375\u555f\u52d5\u5b83.[[YELLOW]]\u9019\u500b\u6280\u80fd\u8b93\u4f60\u767c\u52d5\u7bc4\u570d\u653b\u64ca. \u9019\u500b\u7bc4\u570d\u6280\u80fd\u5c07\u9020\u621025%\u7684\u984d\u5916\u50b7\u5bb3,[[YELLOW]]\u4e26\u4e14\u9644\u5e36\u81f3\u5c115\u500bticks\u7684\u653e\u8840\u6548\u679c.
p114
sg5
V[[DARK_AQUA]]How does Serrated Strikes work?\u005cn[[YELLOW]]Serrated Strikes is an active ability, you can activate it by\u005cn[[YELLOW]]right-clicking with a sword. This ability allows you to deal \u005cn[[YELLOW]]an AoE (Area of Effect) hit. This AoE will do a bonus 25%\u005cn[[YELLOW]]damage and will inflict a bleed effect that lasts for 5 ticks.
p115
sg7
VGuides.Swords.Section.1
p116
ssS'3587643'
p117
(dp118
g3
V[[DARK_AQUA]]\u528d\u8853:[[YELLOW]]\u528d\u8853\u8b93\u73a9\u5bb6\u5728\u4f7f\u7528\u528d\u6230\u9b25\u6642\u7372\u5f97\u5404\u7a2e\u52a0\u4e58\u6548\u679c.[[DARK_AQUA]]\u5982\u4f55\u7372\u53d6\u7d93\u9a57:[[YELLOW]]\u8981\u7372\u53d6\u7d93\u9a57\u4f60\u5fc5\u9808\u7528\u528d\u653b\u64ca\u73a9\u5bb6\u6216\u602a\u7269.
p119
sg5
V[[DARK_AQUA]]About Swords:\u005cn[[YELLOW]]This skill awards combat bonuses to anyone fighting with a\u005cn[[YELLOW]]sword.\u005cn\u005cn[[DARK_AQUA]]XP GAIN:\u005cn[[YELLOW]]XP is gained based on the amount of damage dealt to mobs or \u005cn[[YELLOW]]other players when wielding a sword.
p120
sg7
VGuides.Swords.Section.0
p121
ssS'3993658'
p122
(dp123
g21
V[[RED]]\u4f60\u7684\u968a\u4f0d\u4e26\u6c92\u6709\u76df\u53cb.
p124
sg23
V[[RED]]Your does not have an ally.
p125
sg25
VCommands.Party.Alliance.None
p126
ssS'3993659'
p127
(dp128
g21
V[[GRAY]]\u4f60\u7684\u968a\u4f0d\u548c [[GREEN]]{0} [[GRAY]]\u7d50\u70ba\u806f\u76df
p129
sg23
V[[GRAY]]Your party is now allies with [[GREEN]]{0}
p130
sg25
VParty.Alliance.Formed
p131
ssS'3993656'
p132
(dp133
g21
V[[GRAY]]\u4f60\u7684\u968a\u4f0d\u4e0d\u518d\u548c [[RED]]{0} [[GRAY]]\u806f\u76df
p134
sg23
V[[GRAY]]Your party is no longer allies with [[RED]]{0}
p135
sg25
VParty.Alliance.Disband
p136
ssS'3993657'
p137
(dp138
g21
V[[RED]]\u4f60\u7684\u968a\u4f0d\u5df2\u6709\u76df\u53cb.
p139
sg23
V[[RED]]Your party already has an ally.
p140
sg25
VCommands.Party.Alliance.AlreadyAllies
p141
ssS'893594'
p142
(dp143
g3
V[[RED]]\u53cd\u64ca\u6a5f\u7387: [[YELLOW]]{0}
p144
sg5
V[[RED]]Counter Attack Chance: [[YELLOW]]{0}
p145
sg7
VSwords.Combat.Counter.Chance
p146
ssS'893595'
p147
(dp148
g3
V[[RED]]\u64ca\u843d\u6b66\u5668\u6a5f\u7387: [[YELLOW]]{0}
p149
sg5
V[[RED]]Disarm Chance: [[YELLOW]]{0}
p150
sg7
VUnarmed.Ability.Chance.Disarm
p151
ssS'893590'
p152
(dp153
g3
V\u62ff\u8457\u9aa8\u982d\u4e26\u4f7f\u7528\u6ed1\u9f20\u53f3\u9375\u4f86\u78ba\u8a8d\u72fc\u8207\u5c71\u8c93\u7684\u72c0\u6cc1
p154
sg5
VBone-whacking inspects wolves & ocelots
p155
sg7
VTaming.Effect.1
p156
ssS'893591'
p157
(dp158
g3
V[[RED]]\u7da0\u624b\u6307\u6a5f\u7387: [[YELLOW]]{0}
p159
sg5
V[[RED]]Green Thumb Chance: [[YELLOW]]{0}
p160
sg7
VHerbalism.Ability.GTh.Chance
p161
ssS'893592'
p162
(dp163
g3
V[[RED]]\u8d85\u7d1a\u4fee\u7406\u6a5f\u7387: [[YELLOW]]{0}
p164
sg5
V[[RED]]Super Repair Chance: [[YELLOW]]{0}
p165
sg7
VRepair.Skills.Super.Chance
p166
ssS'893593'
p167
(dp168
g3
V[[RED]]\u6d41\u8840\u6a5f\u7387: [[YELLOW]]{0}
p169
sg5
V[[RED]]Gore Chance: [[YELLOW]]{0}
p170
sg7
VTaming.Combat.Chance.Gore
p171
ssS'2158634'
p172
(dp173
g3
V[[YELLOW]]\u8f38\u5165 [[GREEN]]/party accept[[YELLOW]] \u4f86\u63a5\u53d7\u9080\u8acb
p174
sg5
V[[YELLOW]]Type [[GREEN]]/party accept[[YELLOW]] to accept the invite
p175
sg7
VCommands.Party.Invite.1
p176
ssS'2158635'
p177
(dp178
g3
V[[RED]]\u518d\u51b6\u7149\u6a5f\u7387: [[YELLOW]]{0}
p179
sg5
V[[RED]]Second Smelt Chance: [[YELLOW]]{0}
p180
sg7
VSmelting.Ability.SecondSmelt
p181
ssS'2158636'
p182
(dp183
g3
V[[RED]]{0} \u4e0d\u5141\u8a31\u968a\u4f0d\u50b3\u9001.
p184
sg5
V[[RED]]{0} doesn't allow party teleportation.
p185
sg7
VParty.Teleport.Disabled
p186
ssS'2158637'
p187
(dp188
g3
V\u968a\u4f0d\u50b3\u9001 [[RED]]\u4e0d\u5141\u8a31
p189
sg5
VParty teleporting [[RED]]disabled
p190
sg7
VCommands.ptp.Disabled
p191
ssS'2158631'
p192
(dp193
g3
V\u968a\u4f0d\u50b3\u9001 [[GREEN]]\u5141\u8a31
p194
sg5
VParty teleporting [[GREEN]]enabled
p195
sg7
VCommands.ptp.Enabled
p196
ssS'2158632'
p197
(dp198
g3
V[[RED]]\u4f60\u73fe\u5728\u4e0d\u53ef\u4ee5\u50b3\u9001
p199
sg5
V[[RED]]You have no teleport requests at this time
p200
sg7
VCommands.ptp.NoRequests
p201
ssS'792035'
p202
(dp203
g3
V[[RED]]-----[][[GREEN]]{0}[[RED]][]-----
p204
sg5
V[[RED]]-----[][[GREEN]]{0}[[RED]][]-----
p205
sg7
VSkills.Header
p206
ssS'791904'
p207
(dp208
g3
V\u5c0d\u7121\u88dd\u7532\u6575\u4eba\u9020\u6210\u66f4\u591a\u50b7\u5bb3
p209
sg5
VDeal bonus damage to unarmored foes
p210
sg7
VAxes.Effect.9
p211
ssS'792061'
p212
(dp213
g3
V**\u7ffb\u6efe**
p214
sg5
V**Rolled**
p215
sg7
VAcrobatics.Roll.Text
p216
ssS'791841'
p217
(dp218
g3
V\u7206\u70b8\u50b7\u5bb3\u6e1b\u514d
p219
sg5
VExplosive Damage Reduction
p220
sg7
VTaming.Effect.11
p221
ssS'2137878'
p222
(dp223
g3
V1/{0} \u50b7\u5bb3/\u706b\u7130\u50b7\u5bb3
p224
sg5
V1/{0} Damage, Fire Resistance
p225
sg7
VTaming.Ability.Bonus.3
p226
ssS'791816'
p227
(dp228
g3
V\u79d8\u6cd5\u935b\u9020
p229
sg5
VArcane Forging
p230
sg7
VRepair.Effect.8
p231
ssS'3633773'
p232
(dp233
g3
V[[RED]] \u6389\u843d\u6a5f\u7387: [[DARK_RED]]\u9677\u9631: [[YELLOW]]{0} [[GRAY]]\u666e\u901a: [[YELLOW]]{1} [[GREEN]]\u7f55\u898b: [[YELLOW]]{2} [[BLUE]]\u7a00\u6709: [[YELLOW]]{3} [[LIGHT_PURPLE]]\u53f2\u8a69: [[YELLOW]]{4} [[GOLD]]\u50b3\u8aaa: [[YELLOW]]{5} [[AQUA]]\u524d\u6240\u672a\u6709: [[YELLOW]]{6}
p234
sg5
V[[RED]] Drop Rate: [[DARK_RED]]Trap: [[YELLOW]]{0} [[GRAY]]Common: [[YELLOW]]{1} [[GREEN]]Uncommon: [[YELLOW]]{2}\u005cn[[BLUE]]Rare: [[YELLOW]]{3} [[LIGHT_PURPLE]]Epic: [[YELLOW]]{4} [[GOLD]]Legendary: [[YELLOW]]{5} [[AQUA]]Record: [[YELLOW]]{6}
p235
sg7
VFishing.Ability.TH.DropRate
p236
ssS'4083019'
p237
(dp238
S'translation'
p239
V[[DARK_AQUA]]\u95dc\u65bc\u934a\u91d1\u8853:\u005cn[[YELLOW]]\u934a\u91d1\u8853\u5c31\u662f\u91c0\u9020\u85e5\u6c34.\u005cn[[YELLOW]]\u934a\u91d1\u8853\u80fd\u52a0\u5feb\u91c0\u9020\u6642\u9593, \u4ee5\u53ca\u7372\u5f97\u984d\u5916(\u4e4b\u524d\u7684)\u7121\u6cd5\u88ab\u53d6\u5f97\u7684\u85e5\u6c34.\u005cn[[DARK_AQUA]]\u5982\u4f55\u7372\u53d6\u7d93\u9a57:\u005cn[[YELLOW]]\u5982\u6b32\u7372\u5f97\u7d93\u9a57\u503c\u5c31\u662f\u91c0\u9020\u85e5\u6c34.
p240
sS'string'
p241
V[[DARK_AQUA]]About Alchemy:\u005cn[[YELLOW]]Alchemy is about brewing potions.\u005cn[[YELLOW]]It provides a speed increase in the potion brew time, as well\u005cn[[YELLOW]]as the addition of new (previously) unobtainable potions.\u005cn\u005cn\u005cn[[DARK_AQUA]]XP GAIN:\u005cn[[YELLOW]]To gain XP in this skill you need to brew potions.
p242
sS'context'
p243
VGuides.Alchemy.Section.0
p244
ssS'4083018'
p245
(dp246
g239
V[[DARK_AQUA]]\u8abf\u914d\u7b2c2\u968e\u6bb5:\u005cn[[YELLOW]]\u80e1\u863f\u8514(Carrot), \u53f2\u840a\u59c6\u7403(Slimeball)\u005cn[[DARK_AQUA]]\u8abf\u914d\u7b2c3\u968e\u6bb5:\u005cn[[YELLOW]]\u77f3\u82f1(Quartz), \u7d05\u8611\u83c7(Red Mushroom)\u005cn[[DARK_AQUA]]\u8abf\u914d\u7b2c4\u968e\u6bb5:\u005cn[[YELLOW]]\u860b\u679c(Apple), \u8150\u8089(Rotten Flesh)
p247
sg241
V[[DARK_AQUA]]Concotions tier 2 ingredients:\u005cn[[YELLOW]]Carrot, Slimeball\u005cn\u005cn[[DARK_AQUA]]Concotions tier 3 ingredients:\u005cn[[YELLOW]]Quartz, Red Mushroom\u005cn\u005cn[[DARK_AQUA]]Concotions tier 4 ingredients:\u005cn[[YELLOW]]Apple, Rotten Flesh
p248
sg243
VGuides.Alchemy.Section.4
p249
ssS'2649404'
p250
(dp251
g3
V[[RED]]\u51b0\u91e3: \u5728\u51b0\u4e0a\u91e3\u9b5a
p252
sg5
V[[RED]]Ice Fishing: Go fishing in ice
p253
sg7
VFishing.Ability.IceFishing
p254
ssS'2093978'
p255
(dp256
g3
V[[RED]]\u7da0\u624b\u6307\u968e\u6bb5: [[YELLOW]]\u4f5c\u7269\u6210\u9577\u81f3\u968e\u6bb5 {0}
p257
sg5
V[[RED]]Green Thumb Stage: [[YELLOW]] Crops grow in stage {0}
p258
sg7
VHerbalism.Ability.GTh.Stage
p259
ssS'2649406'
p260
(dp261
g3
V\u5141\u8a31\u4f60\u5728\u51b0\u5929\u96ea\u5730\u88e1\u91e3\u9b5a
p262
sg5
VAllows you to fish in icy biomes
p263
sg7
VFishing.Effect.11
p264
ssS'2649407'
p265
(dp266
g3
V\u51b0\u91e3
p267
sg5
VIce Fishing
p268
sg7
VFishing.Effect.10
p269
ssS'2649400'
p270
(dp271
g3
V[[RED]]\u4f7f\u7528 [[DARK_AQUA]]{0} [[RED]]\u4f86\u555f\u7528\u548c\u968a\u54e1\u5206\u4eab\u7d93\u9a57
p272
sg5
V[[RED]]Use [[DARK_AQUA]]{0} [[RED]]to enable XP sharing with party members
p273
sg7
VParty.Help.10
p274
ssS'2649401'
p275
(dp276
g3
V\u56de\u6536
p277
sg5
VSalvage
p278
sg7
VSalvage.Pretty.Name
p279
ssS'2649402'
p280
(dp281
g3
V[[RED]]{0} \u53d6\u6d88!
p282
sg5
V[[RED]]{0} cancelled!
p283
sg7
VSkills.Cancelled
p284
ssS'2649403'
p285
(dp286
g3
V[[DARK_RED]]\u53d6\u6d88\u50b3\u9001!
p287
sg5
V[[DARK_RED]]Teleportation canceled!
p288
sg7
VTeleport.Cancelled
p289
ssS'2093971'
p290
(dp291
g3
V[[DARK_RED]]\u4f60\u7121\u6cd5\u56de\u6536\u5df2\u53d7\u640d\u7684\u7269\u54c1
p292
sg5
V[[DARK_RED]]You can't salvage damaged items.
p293
sg7
VRepair.Skills.NotFullDurability
p294
ssS'2649408'
p295
(dp296
g3
V\u96dc\u9805
p297
sg5
VMisc
p298
sg7
VParty.ItemShare.Category.Misc
p299
ssS'2649409'
p300
(dp301
g3
V\u8349\u85e5\u5b78
p302
sg5
VHerbalism
p303
sg7
VParty.ItemShare.Category.Herbalism
p304
ssS'2093976'
p305
(dp306
g3
V[[DARK_RED]]\u56e0\u70ba\u719f\u7df4\u5ea6\u4e0d\u5920\u6240\u4ee5\u4f60\u4e0d\u80fd\u56de\u6536\u5b83\u5011
p307
sg5
V[[DARK_RED]]You're not skilled enough to Salvage items.
p308
sg7
VRepair.Skills.AdeptSalvage
p309
ssS'792127'
p310
(dp311
g21
V<player> [[RED]]- \u50b3\u9001\u5230\u968a\u4f0d\u6210\u54e1\u65c1
p312
sg23
V<player> [[RED]]- Teleport to party member
p313
sg25
VCommands.Party.Teleport
p314
ssS'791880'
p315
(dp316
g3
V\u968a\u4f0d\u804a\u5929\u6a21\u5f0f[[RED]]\u53d6\u6d88
p317
sg5
VParty Chat only [[RED]]Off
p318
sg7
VCommands.Party.Chat.Off
p319
ssS'791883'
p320
(dp321
g3
V[[GRAY]]**\u4f60\u653e\u4e0b\u4e86\u4f60\u7684\u65a7\u982d**
p322
sg5
V[[GRAY]]**YOU LOWER YOUR AXE**
p323
sg7
VAxes.Ability.Lower
p324
ssS'792124'
p325
(dp326
g21
V<skill> <page> [[RED]]- \u6392\u884c\u699c
p327
sg23
V<skill> <page> [[RED]]- Leaderboards
p328
sg25
VCommands.Leaderboards
p329
ssS'792123'
p330
(dp331
g3
V[[DARK_GRAY]]\u7b49\u7d1a: [[GREEN]]{0} [[DARK_AQUA]]\u7d93\u9a57\u503c[[YELLOW]]([[GOLD]]{1}[[YELLOW]]/[[GOLD]]{2}[[YELLOW]])
p332
sg5
V[[DARK_GRAY]]LVL: [[GREEN]]{0} [[DARK_AQUA]]XP[[YELLOW]]([[GOLD]]{1}[[YELLOW]]/[[GOLD]]{2}[[YELLOW]])
p333
sg7
VEffects.Level
p334
ssS'792089'
p335
(dp336
g3
V\u91e3\u9b5a:
p337
sg5
VFishing:
p338
sg7
VFishing.Listener
p339
ssS'792121'
p340
(dp341
g3
V[[RED]]\u9019\u500b\u968a\u4f0d\u5df2\u7d93\u9396\u5b9a\u4e86!
p342
sg5
V[[RED]]This party is already locked!
p343
sg7
VParty.IsLocked
p344
ssS'791871'
p345
(dp346
g3
V[[GREEN]]{0}[[DARK_GREEN]] \u4f7f\u7528\u4e86 [[RED]]\u4f10\u6728\u5de5!
p347
sg5
V[[GREEN]]{0}[[DARK_GREEN]] has used [[RED]]Tree Feller!
p348
sg7
VWoodcutting.Skills.TreeFeller.Other.On
p349
ssS'791889'
p350
(dp351
g3
V[[GREEN]]\u4f60\u7684 [[YELLOW]]\u66b4\u8d70\u947d\u982d [[GREEN]]\u6280\u80fd\u5df2\u7d93\u53ef\u4ee5\u4f7f\u7528\u4e86!
p352
sg5
V[[GREEN]]Your [[YELLOW]]Giga Drill Breaker [[GREEN]]ability is refreshed!
p353
sg7
VExcavation.Skills.GigaDrillBreaker.Refresh
p354
ssS'792085'
p355
(dp356
g3
V[[RED]]**\u7da0\u624b\u6307\u5931\u6557**
p357
sg5
V[[RED]]**GREEN THUMB FAIL**
p358
sg7
VHerbalism.Ability.GTh.Fail
p359
ssS'792087'
p360
(dp361
g21
V<player> [[RED]]-\u67e5\u770b\u73a9\u5bb6\u8a73\u7d30\u8a0a\u606f
p362
sg23
V<player> [[RED]]- View detailed player info
p363
sg25
VCommands.Inspect
p364
ssS'791728'
p365
(dp366
g3
V[[RED]]**\u88ab\u5f37\u529b\u653b\u64ca\u64ca\u4e2d**
p367
sg5
V[[RED]]**HIT BY GREATER IMPACT**
p368
sg7
VAxes.Combat.GI.Struck
p369
ssS'2456029'
p370
(dp371
g3
V[[RED]]\u4e0a\u9264\u6a5f\u7387: [[YELLOW]]{0}
p372
sg5
V[[RED]]Bite Chance: [[YELLOW]]{0}
p373
sg7
VFishing.Ability.Chance
p374
ssS'2195749'
p375
(dp376
g3
V[[RED]]\u8981\u5f9e\u968a\u4f0d\u4e2d\u8e22\u6389\u6210\u54e1\uff0c\u4f7f\u7528[[DARK_AQUA]] {0} <player>
p377
sg5
V[[RED]]To kick a player from your party, use [[DARK_AQUA]]{0} <player>
p378
sg7
VParty.Help.6
p379
ssS'2195748'
p380
(dp381
g3
V\u540d\u7a31
p382
sg5
Vname
p383
sg7
VCommands.Usage.PartyName
p384
ssS'791720'
p385
(dp386
g3
V\u6536\u7a6b\u8fb2\u4f5c\u7269
p387
sg5
VHarvesting Herbs
p388
sg7
VCommands.XPGain.Herbalism
p389
ssS'791721'
p390
(dp391
g3
V\u6316\u6398
p392
sg5
VEXCAVATION
p393
sg7
VExcavation.SkillName
p394
ssS'791724'
p395
(dp396
g3
V[[GREEN]]\u4f60\u7684 [[YELLOW]]\u6316\u7926\u7206\u767c [[GREEN]]\u51b7\u537b\u6642\u9593\u5df2\u7d50\u675f!
p397
sg5
V[[GREEN]]Your [[YELLOW]]Blast Mining [[GREEN]]ability is refreshed!
p398
sg7
VMining.Blast.Refresh
p399
ssS'791725'
p400
(dp401
g3
V\u4f10\u6728
p402
sg5
VWOODCUTTING
p403
sg7
VWoodcutting.SkillName
p404
ssS'791726'
p405
(dp406
g3
V\u6316\u5230\u5bf6\u7269
p407
sg5
VDigging and finding treasures
p408
sg7
VCommands.XPGain.Excavation
p409
ssS'3587649'
p410
(dp411
g3
V[[DARK_AQUA]]\u4ec0\u9ebc\u662f\u6280\u8853\u5c04\u64ca?[[YELLOW]]\u6280\u8853\u5c04\u64ca\u5c07\u52a0\u4e58\u4f60\u7684\u5c04\u7bad\u57fa\u672c\u653b\u64ca\u529b.[[YELLOW]]\u52a0\u4e58\u7684\u7a0b\u5ea6\u95dc\u4fc2\u5230\u4f60\u7684\u7bad\u8853\u7b49\u7d1a.[[YELLOW]]\u9810\u8a2d\u72c0\u614b\u4e0b, \u6bcf\u534750\u7d1a\u52a0\u4e5810%\u653b\u64ca\u529b, [[YELLOW]]\u6700\u9ad8\u5230200%\u52a0\u4e58.
p412
sg5
V[[DARK_AQUA]]How does Skill Shot work?\u005cn[[YELLOW]]Skill Shot provides additional damage to your shots.\u005cn[[YELLOW]]The bonus damage from Skill Shot increases as you\u005cn[[YELLOW]]level in Archery.\u005cn[[YELLOW]]With the default settings, your archery damage increases 10%\u005cn[[YELLOW]]every 50 levels, to a maximum of 200% bonus damage.
p413
sg7
VGuides.Archery.Section.1
p414
ssS'4081049'
p415
(dp416
g3
V[[GREEN]]- \u5207\u63db\u7ba1\u7406\u54e1\u983b\u9053
p417
sg5
V[[GREEN]]- Toggle admin chat
p418
sg7
VCommands.AdminToggle
p419
ssS'4081048'
p420
(dp421
g3
V[[GREEN]]- \u52a0\u5165\u4e00\u500b\u73a9\u5bb6\u7684\u968a\u4f0d
p422
sg5
V[[GREEN]]- Join a players party
p423
sg7
VCommands.Party2
p424
ssS'792059'
p425
(dp426
g3
V\u91e3\u9b5a
p427
sg5
VFISHING
p428
sg7
VFishing.SkillName
p429
ssS'2127530'
p430
(dp431
g3
V\u4f7f\u4f60\u64c1\u6709\u5fae\u5c0f\u6a5f\u7387\u767c\u73fe\u7a00\u6709\u7269\u54c1
p432
sg5
VGives a small chance of finding rare items
p433
sg7
VHerbalism.Effect.11
p434
ssS'4081047'
p435
(dp436
g3
V[player] <skill> <newvalue> [[GREEN]] - \u4fee\u6539\u76ee\u6a19
p437
sg5
V[player] <skill> <newvalue> [[GREEN]] - Modify target
p438
sg7
VCommands.mmoedit
p439
ssS'2115570'
p440
(dp441
g3
V[[RED]]\u4f60\u7684\u5c0d\u624b\u6709\u9435\u722a!
p442
sg5
V[[RED]]Your opponent has an iron grip!
p443
sg7
VUnarmed.Ability.IronGrip.Attacker
p444
ssS'791878'
p445
(dp446
g3
V[[RED]]**\u7da0\u5316\u5df2\u7ed3\u675f**
p447
sg5
V[[RED]]**Green Terra has worn off**
p448
sg7
VHerbalism.Skills.GTe.Off
p449
ssS'792056'
p450
(dp451
g3
V[[RED]]\u653e\u8840\u6301\u7e8c\u6642\u9593: [[YELLOW]]{0} \u9031\u671f
p452
sg5
V[[RED]]Bleed Length: [[YELLOW]]{0} ticks
p453
sg7
VSwords.Combat.Bleed.Length
p454
ssS'2115579'
p455
(dp456
g3
V[[RED]][mcMMO \u984d\u5916\u734e\u52f5]
p457
sg5
V[[RED]][mcMMO Perks]
p458
sg7
VMOTD.PerksPrefix
p459
ssS'792055'
p460
(dp461
g3
V\u7ffb\u6efe
p462
sg5
VRoll
p463
sg7
VAcrobatics.Effect.0
p464
ssS'2160034'
p465
(dp466
g3
V[[DARK_GRAY]]\u63a5\u8fd1\u4f60 [[DARK_AQUA]]{0}[[DARK_GRAY]]/[[DARK_AQUA]]{1}
p467
sg5
V[[DARK_GRAY]]NEAR YOU [[DARK_AQUA]]{0}[[DARK_GRAY]]/[[DARK_AQUA]]{1}
p468
sg7
VCommands.Party.MembersNear
p469
ssS'2190047'
p470
(dp471
g3
V\u4fee\u6539\u73a9\u5bb6McMMO\u7b49\u7d1a
p472
sg5
VEdit mcMMO levels for a user
p473
sg7
VCommands.Description.mmoedit
p474
ssS'2190046'
p475
(dp476
g3
V\u7d66\u4e88\u73a9\u5bb6McMMO\u7b49\u7d1a
p477
sg5
VAdd mcMMO levels to a user
p478
sg7
VCommands.Description.addlevels
p479
ssS'2190045'
p480
(dp481
g3
V[RED]]\u9019\u500b\u6307\u4ee4\u4e26\u4e0d\u9069\u7528\u65bc\u96e2\u7dda\u73a9\u5bb6.
p482
sg5
V[[RED]]This command does not work for offline players.
p483
sg7
VCommands.Offline
p484
ssS'791972'
p485
(dp486
g3
V\u968a\u4f0d\u804a\u5929\u6a21\u5f0f [[GREEN]]\u958b\u555f
p487
sg5
VParty Chat only [[GREEN]]On
p488
sg7
VCommands.Party.Chat.On
p489
ssS'2190043'
p490
(dp491
g3
V\u91cd\u7f6e\u73a9\u5bb6McMMO\u7b49\u7d1a
p492
sg5
VReset mcMMO levels for a user
p493
sg7
VCommands.Description.skillreset
p494
ssS'2190042'
p495
(dp496
g3
V\u5207\u63dbmcMMO\u968a\u4f0d\u804a\u5929(\u958b/\u95dc)\u6216\u767c\u9001\u968a\u4f0d\u804a\u5929\u8a0a\u606f
p497
sg5
VToggle mcMMO party chat on/off or send party chat messages
p498
sg7
VCommands.Description.partychat
p499
ssS'2190041'
p500
(dp501
g3
V[[RED]]\u9019\u500b\u968a\u4f0d\u6709\u5bc6\u78bc\u4fdd\u8b77. \u8acb\u63d0\u4f9b\u5bc6\u78bc\u4f86\u52a0\u5165.
p502
sg5
V[[RED]]This party is password protected. Please provide a password to join.
p503
sg7
VParty.Password.None
p504
ssS'3823880'
p505
(dp506
g3
V[[GOLD]][mcMMO] \u786c\u6d3e\u6a21\u5f0f {0} \u95dc\u9589. {1}
p507
sg5
V[[GOLD]][mcMMO] Hardcore mode {0} disabled for {1}.
p508
sg7
VHardcore.Mode.Disabled
p509
ssS'3785671'
p510
(dp511
g3
V[[GOLD]]\u5c0f\u6280\u5de7: \u7576\u5f97\u5206\u699c\u51fa\u73fe\u6642\u8f38\u5165 [[RED]]/mcscoreboard keep[[GOLD]] \u4f86\u907f\u514d\u5b83\u6d88\u5931.
p512
sg5
V[[GOLD]]Tip: Use [[RED]]/mcscoreboard keep[[GOLD]] while the scoreboard is shown to keep it from going away.
p513
sg7
VCommands.Scoreboard.Tip.Keep
p514
ssS'791975'
p515
(dp516
g3
V[[GRAY]]\u4f60\u7684\u88dd\u5099\u8010\u4e45\u5ea6\u5df2\u6eff!
p517
sg5
V[[GRAY]]That is at full durability.
p518
sg7
VRepair.Skills.FullDurability
p519
ssS'2160036'
p520
(dp521
g3
V[[DARK_GRAY]]\u5206\u4eab\u6a21\u5f0f:
p522
sg5
V[[DARK_GRAY]]SHARE MODE:
p523
sg7
VCommands.Party.ShareMode
p524
ssS'2190049'
p525
(dp526
g3
V\u9396\u4f4f\u4f60\u4e00\u500b\u7279\u5b9amcMMO\u6280\u80fd\u7684\u7d93\u9a57\u6b04
p527
sg5
VLock your mcMMO XP bar to a specific mcMMO skill
p528
sg7
VCommands.Description.xplock
p529
ssS'791974'
p530
(dp531
g3
V[[RED]]\u4f10\u6728\u5de5\u6301\u7e8c\u6642\u9593: [[YELLOW]]{0}s
p532
sg5
V[[RED]]Tree Feller Length: [[YELLOW]]{0}s
p533
sg7
VWoodcutting.Ability.Length
p534
ssS'2124949'
p535
(dp536
g3
V[[DARK_RED]]\u4f60\u4e26\u975e\u968a\u9577.
p537
sg5
V[[DARK_RED]]You are not the party leader.
p538
sg7
VParty.NotOwner
p539
ssS'791835'
p540
(dp541
g3
V[[GREEN]]**\u66b4\u8d70\u947d\u982d\u6280\u80fd\u4f7f\u7528**
p542
sg5
V[[GREEN]]**GIGA DRILL BREAKER ACTIVATED**
p543
sg7
VExcavation.Skills.GigaDrillBreaker.On
p544
ssS'3975694'
p545
(dp546
g3
V\u9396\u5b9a\u76f4\u5230\u6280\u80fd {0}+ (\u50ac\u5316)
p547
sg5
VLOCKED UNTIL {0}+ SKILL (CATALYSIS)
p548
sg7
VAlchemy.Ability.Locked.0
p549
ssS'792010'
p550
(dp551
g3
V[[GRAY]]**\u78b0!**
p552
sg5
V[[GRAY]]**BOOM**
p553
sg7
VMining.Blast.Boom
p554
ssS'791830'
p555
(dp556
g3
V[[RED]]\u8d85\u7d1a\u788e\u77f3\u6a5f[[GREEN]] \u5373\u5c07\u7ed3\u675f [[YELLOW]]{0}
p557
sg5
V[[RED]]Super Breaker[[GREEN]] has worn off for [[YELLOW]]{0}
p558
sg7
VMining.Skills.SuperBreaker.Other.Off
p559
ssS'792016'
p560
(dp561
g3
V\u734e\u52f5 {0} \u50b7\u5bb3
p562
sg5
VBonus {0} damage
p563
sg7
VAxes.Ability.Bonus.1
p564
ssS'791832'
p565
(dp566
g3
V[[GRAY]]\u9644\u9b54\u964d\u7d1a\u6a5f\u7387: [[YELLOW]]{0}%
p567
sg5
V[[GRAY]]AF Downgrade Chance: [[YELLOW]]{0}%
p568
sg7
VRepair.Arcane.Chance.Downgrade
p569
ssS'791833'
p570
(dp571
g3
V[[RED]]\u60f3\u4fee\u6539\u7d93\u9a57\u503c\u7372\u5f97\u7387\u8acb\u8f38\u5165 /xprate <integer> <true/false>
p572
sg5
V[[RED]]Proper usage to change the XP rate is /xprate <integer> <true/false>
p573
sg7
VCommands.xprate.proper.0
p574
ssS'2124943'
p575
(dp576
g3
V[[DARK_AQUA]]\u8d0a\u52a9\u8cc7\u8a0a:
p577
sg5
V[[DARK_AQUA]]Donation Info:
p578
sg7
VMOTD.Donate
p579
ssS'792018'
p580
(dp581
g3
V\u9019\u500b\u6307\u4ee4\u4e0d\u53ef\u4f7f\u7528
p582
sg5
VThis command does not support console usage.
p583
sg7
VCommands.NoConsole
p584
ssS'2124945'
p585
(dp586
g3
V[[RED]]\u8acb\u8f38\u5165 /{0} {1} {2}
p587
sg5
V[[RED]]Proper usage is /{0} {1} {2}
p588
sg7
VCommands.Usage.2
p589
ssS'2124944'
p590
(dp591
g3
V[[RED]]\u8acb\u8f38\u5165 /{0} {1} {2} {3}
p592
sg5
V[[RED]]Proper usage is /{0} {1} {2} {3}
p593
sg7
VCommands.Usage.3
p594
ssS'2124947'
p595
(dp596
g3
V[[GOLD]]-=\u500b\u4eba\u6392\u884c=-
p597
sg5
V[[GOLD]]-=PERSONAL RANKINGS=-
p598
sg7
VCommands.mcrank.Heading
p599
ssS'2124946'
p600
(dp601
g3
V\u7d93\u9a57\u503c
p602
sg5
Vxp
p603
sg7
VCommands.Usage.XP
p604
ssS'2158663'
p605
(dp606
g3
V[[RED]]-----[][[GREEN]]\u968a\u4f0d[[RED]][]-----
p607
sg5
V[[RED]]-----[][[GREEN]]PARTY[[RED]][]-----
p608
sg7
VCommands.Party.Header
p609
ssS'3655329'
p610
(dp611
g3
V[mcMMO] \u4f60\u7684\u8840\u689d\u986f\u793a\u6a21\u5f0f\u5df2\u66f4\u6539\u70ba [[YELLOW]]\u65b9\u584a[[WHITE]].
p612
sg5
V[mcMMO] Your healthbar display type was changed to [[YELLOW]]Boxes[[WHITE]].
p613
sg7
VCommands.Healthbars.Changed.BAR
p614
ssS'3655328'
p615
(dp616
g3
V\u6280\u80fd\u4f7f\u7528\u5df2\u88ab\u5207\u63db\u70ba [[YELLOW]]{0}
p617
sg5
VAbility use has been toggled for [[YELLOW]]{0}
p618
sg7
VCommands.Ability.Toggle
p619
ssS'2124970'
p620
(dp621
g3
V\u73a9\u5bb6
p622
sg5
Vplayer
p623
sg7
VCommands.Usage.Player
p624
ssS'3655327'
p625
(dp626
g3
V\u795e\u4e4b\u6a21\u5f0f\u5df2\u88ab\u5207\u63db\u70ba [[YELLOW]]{0}
p627
sg5
VGod mode has been toggled for [[YELLOW]]{0}
p628
sg7
VCommands.GodMode.Toggle
p629
ssS'3655326'
p630
(dp631
g3
V[mcMMO] \u4f60\u7684\u602a\u7269\u8840\u689d\u5df2 [[GRAY]]\u505c\u7528[[WHITE]].
p632
sg5
V[mcMMO] Your mob healthbars have been [[GRAY]]disabled[[WHITE]].
p633
sg7
VCommands.Healthbars.Changed.DISABLED
p634
ssS'2124971'
p635
(dp636
g3
V[[GREEN]]{0} \u5df2\u6210\u529f\u5f9e\u6578\u64da\u88e1\u79fb\u9664!
p637
sg5
V[[GREEN]]{0} was successfully removed from the database!
p638
sg7
VCommands.mcremove.Success
p639
ssS'2190032'
p640
(dp641
g3
V\u986f\u793a\u8a73\u7d30\u7684{0}mcMMO\u6280\u80fd\u8cc7\u8a0a
p642
sg5
VDisplay detailed mcMMO skill info for {0}
p643
sg7
VCommands.Description.Skill
p644
ssS'2190033'
p645
(dp646
g3
V\u986f\u793a\u4f60\u7684MMO\u7b49\u7d1a\u8207\u7d93\u9a57
p647
sg5
VShow your mcMMO levels and XP
p648
sg7
VCommands.Description.mcstats
p649
ssS'2190030'
p650
(dp651
g3
V[[RED]]\u4f60\u5fc5\u9808\u6307\u5b9a\u4e00\u500b\u968a\u4f0d.
p652
sg5
V[[RED]]You must specify a party.
p653
sg7
VParty.Specify
p654
ssS'2190031'
p655
(dp656
g3
V\u5f9emcMMO\u8cc7\u6599\u5eab\u4e2d\u522a\u9664\u4f7f\u7528\u8005
p657
sg5
VRemove a user from the mcMMO database
p658
sg7
VCommands.Description.mcremove
p659
ssS'2190036'
p660
(dp661
g3
V\u5207\u63dbmcMMo\u795e\u4e4b\u6a21\u5f0f(\u958b/\u95dc)
p662
sg5
VToggle mcMMO god-mode on/off
p663
sg7
VCommands.Description.mcgod
p664
ssS'2190037'
p665
(dp666
g3
V\u7d66\u4e88\u73a9\u5bb6mcMMO\u7d93\u9a57\u503c
p667
sg5
VAdd mcMMO XP to a user
p668
sg7
VCommands.Description.addxp
p669
ssS'2190035'
p670
(dp671
g3
V\u986f\u793amcMMO\u6392\u884c\u699c
p672
sg5
VShow mcMMO leader boards
p673
sg7
VCommands.Description.mctop
p674
ssS'4068746'
p675
(dp676
g21
V[[RED]]\u968a\u4f0d\u50b3\u9001\u5c1a\u672a\u89e3\u9396.
p677
sg23
V[[RED]]Party teleport is not unlocked yet.
p678
sg25
VParty.Feature.Disabled.2
p679
ssS'4068744'
p680
(dp681
g21
V[[RED]]\u968a\u4f0d\u7269\u54c1\u5206\u4eab\u5c1a\u672a\u89e3\u9396.
p682
sg23
V[[RED]]Party item sharing is not unlocked yet.
p683
sg25
VParty.Feature.Disabled.4
p684
ssS'4068745'
p685
(dp686
g21
V\u806f\u76df
p687
sg23
VAlliances
p688
sg25
VParty.Feature.Alliance
p689
ssS'4068742'
p690
(dp691
g21
V\u968a\u4f0d\u50b3\u9001
p692
sg23
VParty Teleport
p693
sg25
VParty.Feature.Teleport
p694
ssS'4068743'
p695
(dp696
g21
V[[RED]]\u968a\u4f0d\u804a\u5929\u5c1a\u672a\u89e3\u9396.
p697
sg23
V[[RED]]Party chat is not unlocked yet.
p698
sg25
VParty.Feature.Disabled.1
p699
ssS'4068740'
p700
(dp701
g21
V[[RED]]\u968a\u4f0d\u806f\u76df\u5c1a\u672a\u89e3\u9396.
p702
sg23
V[[RED]]Party alliances are not unlocked yet.
p703
sg25
VParty.Feature.Disabled.3
p704
ssS'4068741'
p705
(dp706
g21
V\u7269\u54c1\u5206\u4eab
p707
sg23
VItem Sharing
p708
sg25
VParty.Feature.ItemShare
p709
ssS'3975689'
p710
(dp711
g3
V\u4f7f\u7528\u66f4\u591a\u5143\u7d20\u4f86\u91c0\u9020\u7684\u85e5\u6c34
p712
sg5
VBrew potions with more ingredients
p713
sg7
VAlchemy.Effect.3
p714
ssS'797003'
p715
(dp716
g3
V[[RED]]\u6f02\u4eae\u7ffb\u6efe\u6a5f\u7387: [[YELLOW]]{0}
p717
sg5
V[[RED]]Graceful Roll Chance: [[YELLOW]]{0}
p718
sg7
VAcrobatics.Roll.GraceChance
p719
ssS'797002'
p720
(dp721
g3
V[[RED]]\u7ffb\u6efe\u6a5f\u7387: [[YELLOW]]{0}
p722
sg5
V[[RED]]Roll Chance: [[YELLOW]]{0}
p723
sg7
VAcrobatics.Roll.Chance
p724
ssS'797001'
p725
(dp726
g3
V[[RED]]\u6688\u7729\u6a5f\u7387: [[YELLOW]]{0}
p727
sg5
V[[RED]]Chance to Daze: [[YELLOW]]{0}
p728
sg7
VArchery.Combat.DazeChance
p729
ssS'3975688'
p730
(dp731
g3
V\u8abf\u914d
p732
sg5
VConcoctions
p733
sg7
VAlchemy.Effect.2
p734
ssS'3633772'
p735
(dp736
g3
V[[DARK_AQUA]]\u4ec0\u9ebc\u662f\u6f01\u4eba\u4fbf\u7576?[[YELLOW]]\u9019\u662f\u4e00\u500b\u88ab\u52d5\u6280\u80fd\u8b93\u4f60\u80fd\u5728\u5403\u9b5a\u6642\u6709[[YELLOW]]\u66f4\u591a\u7684\u98fd\u98df\u5ea6.
p737
sg5
V[[DARK_AQUA]]How does Fisherman's Diet work?\u005cn[[YELLOW]]This passive skill increases the amount of hunger restored \u005cn[[YELLOW]]from eating fish.
p738
sg7
VGuides.Fishing.Section.5
p739
ssS'2094874'
p740
(dp741
g3
V\u780d\u6a39
p742
sg5
VChopping down trees
p743
sg7
VCommands.XPGain.Woodcutting
p744
ssS'3380520'
p745
(dp746
g3
V[[GOLD]][mcMMO] [[YELLOW]]{0}[[DARK_RED]]\u5f9e\u4f60\u9019\u5077\u53d6\u4e86[[BLUE]]{1}[[DARK_RED]]\u500b\u7b49\u7d1a!
p747
sg5
V[[GOLD]][mcMMO] [[YELLOW]]{0}[[DARK_RED]] has stolen [[BLUE]]{1}[[DARK_RED]] levels from you!
p748
sg7
VHardcore.Vampirism.Victim.Success
p749
ssS'792073'
p750
(dp751
g21
V[[RED]]- \u5207\u63db\u968a\u4f0d\u804a\u5929
p752
sg23
V[[RED]]- Toggle Party Chat
p753
sg25
VCommands.Party.Toggle
p754
ssS'3607278'
p755
(dp756
g3
V[[RED]]mcMMO\u7121\u6cd5\u8f09\u5165\u4f60\u7684\u8cc7\u6599,\u4f60\u53ef\u80fd\u9700\u8981\u806f\u7e6b[[AQUA]]\u904a\u6232\u7ba1\u7406\u54e1\u005cn[[YELLOW]]\u4f60\u53ef\u4ee5\u7e7c\u7e8c\u904a\u6232,\u4f46\u4f60[[BOLD]]\u7121\u6cd5\u5f97\u5230mcMMO\u7b49\u7d1a[[YELLOW]]\u548c\u4efb\u4f55\u7d93\u9a57[[BOLD]]\u6240\u6709\u8cc7\u6599\u4e0d\u6703\u88ab\u5132\u5b58[[YELLOW]].
p757
sg5
V[[RED]]mcMMO still cannot load your data. You may want to [[AQUA]]contact the server owner.\u005cn[[YELLOW]]You can still play on the server, but you will have [[BOLD]]no mcMMO levels[[YELLOW]] and any XP you get [[BOLD]]will not be saved[[YELLOW]].
p758
sg7
VRecovery.Failure
p759
ssS'3607279'
p760
(dp761
g3
V[[RED]]\u6ce8\u610f: mcMMO[[DARK_RED]]\u7121\u6cd5\u8f09\u5165\u4f60\u7684\u8cc7\u6599.[[RED]] \u91cd\u8a665\u6b21...
p762
sg5
V[[RED]]Notice: mcMMO was [[DARK_RED]]unable to load your data.[[RED]] Retrying 5 times...
p763
sg7
VRecovery.Notice
p764
ssS'791900'
p765
(dp766
g3
V[[RED]]\u4f60\u4e0d\u80fd\u53ec\u63db\u5c71\u8c93\u56e0\u70ba\u4f60\u5df2\u7d93\u53ec\u559a\u592a\u591a\u4e86.
p767
sg5
V[[RED]]You have too many ocelots nearby to summon any more.
p768
sg7
VTaming.Summon.Fail.Ocelot
p769
ssS'791901'
p770
(dp771
g3
V\u6703\u5fc3\u4e00\u64ca
p772
sg5
VCritical Strikes
p773
sg7
VAxes.Effect.2
p774
ssS'791902'
p775
(dp776
g3
V\u9020\u6210\u7bc4\u570d\u50b7\u5bb3
p777
sg5
VDeal AoE Damage
p778
sg7
VAxes.Effect.1
p779
ssS'791903'
p780
(dp781
g3
V\u5288\u9871\u65ac (\u4e3b\u52d5\u6280\u80fd)
p782
sg5
VSkull Splitter (Ability)
p783
sg7
VAxes.Effect.0
p784
ssS'3613482'
p785
(dp786
g3
V[[GRAY]]\u4ec0\u9ebc\u6771\u897f,\u805e\u8d77\u4f86\u597d\u81ed\u554a...
p787
sg5
V[[GRAY]]Something doesn't smell quite right...
p788
sg7
VFishing.Ability.TH.Poison
p789
ssS'791905'
p790
(dp791
g3
V\u5f37\u529b\u653b\u64ca
p792
sg5
VGreater Impact
p793
sg7
VAxes.Effect.8
p794
ssS'792060'
p795
(dp796
g3
V[[RED]]**\u66b4\u8d70\u947d\u982d\u5df2\u7ed3\u675f**
p797
sg5
V[[RED]]**Giga Drill Breaker has worn off**
p798
sg7
VExcavation.Skills.GigaDrillBreaker.Off
p799
ssS'791907'
p800
(dp801
g3
V\u4f10\u6728:
p802
sg5
VWoodcutting:
p803
sg7
VWoodcutting.Listener
p804
ssS'3219351'
p805
(dp806
g3
V\u7da0\u624b\u6307 (\u5927\u91cf)
p807
sg5
VGreen Thumb (Blocks)
p808
sg7
VHerbalism.Effect.4
p809
ssS'3975685'
p810
(dp811
g3
V\u91c0\u9020\u85e5\u6c34
p812
sg5
VBrewing Potions
p813
sg7
VCommands.XPGain.Alchemy
p814
ssS'791729'
p815
(dp816
g3
V\u7ba1\u7406\u54e1\u804a\u5929\u6a21\u5f0f [[RED]]\u95dc\u9589
p817
sg5
VAdmin Chat only [[RED]]Off
p818
sg7
VCommands.AdminChat.Off
p819
ssS'796998'
p820
(dp821
g3
V[[RED]]\u6280\u8853\u5c04\u64ca\u734e\u52f5\u50b7\u5bb3: [[YELLOW]]{0}
p822
sg5
V[[RED]]Skill Shot Bonus Damage: [[YELLOW]]{0}
p823
sg7
VArchery.Combat.SkillshotBonus
p824
ssS'796999'
p825
(dp826
g3
V[[RED]]\u8ff4\u907f\u6a5f\u7387: [[YELLOW]]{0}
p827
sg5
V[[RED]]Dodge Chance: [[YELLOW]]{0}
p828
sg7
VAcrobatics.DodgeChance
p829
ssS'3975687'
p830
(dp831
g3
V\u589e\u52a0\u91c0\u9020\u85e5\u6c34\u7684\u901f\u5ea6
p832
sg5
VIncreases potion brewing speed
p833
sg7
VAlchemy.Effect.1
p834
ssS'3398944'
p835
(dp836
g3
V\u8f49\u63db\u8cc7\u6599\u5eab\u7684\u7a2e\u985e\u6216\u7d93\u9a57\u503c\u516c\u5f0f\u7684\u7a2e\u985e
p837
sg5
VConverts database types or experience formula types
p838
sg7
VCommands.Description.mcconvert
p839
ssS'3975686'
p840
(dp841
g3
V\u50ac\u5316
p842
sg5
VCatalysis
p843
sg7
VAlchemy.Effect.0
p844
ssS'796997'
p845
(dp846
g3
V[[RED]]\u56de\u6536\u7bad\u77e2\u7684\u6a5f\u7387: [[YELLOW]]{0}
p847
sg5
V[[RED]]Chance to Retrieve Arrows: [[YELLOW]]{0}
p848
sg7
VArchery.Combat.RetrieveChance
p849
ssS'2138166'
p850
(dp851
g3
V\u6316\u539f\u7926\u6642\u6709\u6a5f\u7387\u76f4\u63a5\u6389\u51fa\u51b6\u7149\u597d\u7684\u7926\u7269
p852
sg5
VChance for ores to be instantly smelted while mining
p853
sg7
VSmelting.Effect.7
p854
ssS'2138167'
p855
(dp856
g3
V\u589e\u52a0\u51b6\u7149\u6642\u7684\u4e00\u822c\u7d93\u9a57
p857
sg5
VIncrease vanilla XP gained while smelting
p858
sg7
VSmelting.Effect.5
p859
ssS'2138164'
p860
(dp861
g3
V\u589e\u52a0\u71c3\u6599\u5728\u7194\u7210\u88e1\u71c3\u71d2\u7684\u6642\u9593
p862
sg5
VIncrease the burn time of fuel used in furnaces when smelting
p863
sg7
VSmelting.Effect.1
p864
ssS'2138165'
p865
(dp866
g3
V\u71c3\u6599\u6548\u7387
p867
sg5
VFuel Efficiency
p868
sg7
VSmelting.Effect.0
p869
ssS'2138162'
p870
(dp871
g3
V\u51b6\u7149\u7926\u7269\u52a0\u500d
p872
sg5
VDouble the resources gained from smelting
p873
sg7
VSmelting.Effect.3
p874
ssS'2138163'
p875
(dp876
g3
V\u518d\u51b6\u7149
p877
sg5
VSecond Smelt
p878
sg7
VSmelting.Effect.2
p879
ssS'2138161'
p880
(dp881
g3
V\u4e00\u822c\u7d93\u9a57\u52a0\u4e58
p882
sg5
VVanilla XP Boost
p883
sg7
VSmelting.Effect.4
p884
ssS'3587626'
p885
(dp886
g3
V[[DARK_AQUA]]\u95dc\u65bc\u6316\u7926:[[YELLOW]]\u6316\u7926\u7531\u63a1\u77f3\u8207\u63a1\u7926\u6240\u7d44\u6210. \u5b83\u63d0\u4f9b\u6316\u7926\u6642[[YELLOW]]\u7684\u984d\u5916\u7926\u7269\u6389\u843d\u91cf.[[DARK_AQUA]]\u5982\u4f55\u7372\u53d6\u7d93\u9a57:[[YELLOW]]\u8981\u589e\u9032\u6316\u7926\u6280\u80fd,\u4f60\u5fc5\u9808\u7528\u93ac\u5b50\u6316\u7926.[[YELLOW]]\u53ea\u6709\u6316\u6398\u6307\u5b9a\u7926\u7269\u80fd\u589e\u52a0\u7d93\u9a57.
p887
sg5
V[[DARK_AQUA]]About Mining:\u005cn[[YELLOW]]Mining consists of mining stone and ores. It provides bonuses\u005cn[[YELLOW]]to the amount of materials dropped while mining.\u005cn\u005cn[[DARK_AQUA]]XP GAIN:\u005cn[[YELLOW]]To gain XP in this skill, you must mine with a pickaxe in hand.\u005cn[[YELLOW]]Only certain blocks award XP.
p888
sg7
VGuides.Mining.Section.0
p889
ssS'2138168'
p890
(dp891
g3
V\u51b6\u7149
p892
sg5
VSMELTING
p893
sg7
VSmelting.SkillName
p894
ssS'791768'
p895
(dp896
g3
V\u653b\u64ca\u602a\u7269
p897
sg5
VAttacking Monsters
p898
sg7
VCommands.XPGain.Swords
p899
ssS'791769'
p900
(dp901
g3
V[[RED]]\u6ce8\u610f: [[GREEN]]\u4f60\u6536\u5230\u4e86\u4f86\u81ea {1} \u7684\u968a\u4f0d\u9080\u8acb {0} 
p902
sg5
V[[RED]]ALERT: [[GREEN]]You have received a party invite for {0} from {1}
p903
sg7
VCommands.Party.Invite.0
p904
ssS'791764'
p905
(dp906
g3
V\u4fee\u7406
p907
sg5
VREPAIR
p908
sg7
VRepair.SkillName
p909
ssS'791765'
p910
(dp911
g3
V[[GREEN]]**\u5288\u9871\u65ac\u5df2\u4f7f\u7528**
p912
sg5
V[[GREEN]]**Skull Splitter ACTIVATED**
p913
sg7
VAxes.Skills.SS.On
p914
ssS'791766'
p915
(dp916
g3
V[[GRAY]]{0}
p917
sg5
V[[GRAY]]{0}
p918
sg7
VAbility.Generic.Template.Lock
p919
ssS'792160'
p920
(dp921
g3
V\u6e1b\u5c11\u4f86\u81eaTNT\u7684\u50b7\u5bb3
p922
sg5
VDecreases damage from TNT explosions
p923
sg7
VMining.Effect.9
p924
ssS'791762'
p925
(dp926
g3
V\u4fee\u7406\uff1a
p927
sg5
VRepair:
p928
sg7
VRepair.Listener
p929
ssS'791763'
p930
(dp931
g3
V[[GREEN]]{0}[[DARK_GREEN]] \u4f7f\u7528\u4e86 [[RED]]\u5272\u88c2\u65ac!
p932
sg5
V[[GREEN]]{0}[[DARK_GREEN]] has used [[RED]]Serrated Strikes!
p933
sg7
VSwords.Skills.SS.Other.On
p934
ssS'3436694'
p935
(dp936
g3
V[[GOLD]][mcMMO] [[DARK_AQUA]]\u786c\u6d3e\u6a21\u5f0f\u5df2\u555f\u7528: [[DARK_RED]]{0}
p937
sg5
V[[GOLD]][mcMMO] [[DARK_AQUA]]Hardcore Mode enabled: [[DARK_RED]]{0}
p938
sg7
VMOTD.Hardcore.Enabled
p939
ssS'3436692'
p940
(dp941
g3
V[[GOLD]][mcMMO] [[DARK_AQUA]]\u6b7b\u4ea1\u6280\u80fd\u61f2\u7f70: [[DARK_RED]]{0}%
p942
sg5
V[[GOLD]][mcMMO] [[DARK_AQUA]]Skill Death Penalty: [[DARK_RED]]{0}%
p943
sg7
VMOTD.Hardcore.DeathStatLoss.Stats
p944
ssS'3436693'
p945
(dp946
g3
V[[GOLD]][mcMMO] [[DARK_AQUA]]\u5438\u8840\u7372\u5f97\u72c0\u614b: [[DARK_RED]]{0}%
p947
sg5
V[[GOLD]][mcMMO] [[DARK_AQUA]]Vampirism Stat Leech: [[DARK_RED]]{0}%
p948
sg7
VMOTD.Hardcore.Vampirism.Stats
p949
ssS'2115592'
p950
(dp951
g3
V[[GOLD]][mcMMO] [[GREEN]]{0}[[YELLOW]] - mcMMO \u9996\u9801
p952
sg5
V[[GOLD]][mcMMO] [[GREEN]]{0}[[YELLOW]] - mcMMO Website
p953
sg7
VMOTD.Website
p954
ssS'2737045'
p955
(dp956
g3
V\u5f9e\u820a\u7684 mcMMO \u8cc7\u6599\u5eab\u9077\u79fb\u5230\u76ee\u524d\u4f7f\u7528\u7684\u8cc7\u6599\u5eab
p957
sg5
VMigrate mcMMO database from an old database into the current one
p958
sg7
VCommands.Description.mmoupdate
p959
ssS'2737042'
p960
(dp961
g3
V\u985e\u5225\u540d\u7a31
p962
sg5
Vclassname
p963
sg7
VCommands.Usage.FullClassName
p964
ssS'2737043'
p965
(dp966
g3
V[[YELLOW]]\u76ee\u524d\u4f7f\u7528\u7684\u8cc7\u6599\u5eab\u662f [[GREEN]]{0}
p967
sg5
V[[YELLOW]]The currently used database is [[GREEN]]{0}
p968
sg7
VCommands.mmoshowdb
p969
ssS'2190029'
p970
(dp971
g3
V[\u7da0\u8272]\u60a8\u6240\u6709\u7684\u6280\u80fd\u7b49\u7d1a\u88ab\u8a2d\u5b9a\u70ba{0}\uff01
p972
sg5
V[[GREEN]]Your level in all skills was set to {0}!
p973
sg7
VCommands.mmoedit.AllSkills.1
p974
ssS'2737048'
p975
(dp976
g3
V\u986f\u793a\u76ee\u524d\u7684\u8cc7\u6599\u5eab\u985e\u5225 (\u70ba\u4e86\u4e4b\u5f8c\u5728 /mmoupdate \u4e2d\u4f7f\u7528)
p977
sg5
VShow the name of the current database type (for later use with /mmoupdate)
p978
sg7
VCommands.Description.mmoshowdb
p979
ssS'2190028'
p980
(dp981
g3
V[[RED]]\u6b63\u78ba\u7528\u6cd5\u70ba/{0}
p982
sg5
V[[RED]]Proper usage is /{0}
p983
sg7
VCommands.Usage.0
p984
ssS'3380466'
p985
(dp986
g3
V[[GOLD]][mcMMO] [[DARK_AQUA]]\u4f60\u5f9e[[YELLOW]]{1}[[DARK_AQUA]]\u90a3\u5077\u53d6\u4e86[[BLUE]]{0}[[DARK_AQUA]]\u500b\u7b49\u7d1a .
p987
sg5
V[[GOLD]][mcMMO] [[DARK_AQUA]]You have stolen [[BLUE]]{0}[[DARK_AQUA]] levels from [[YELLOW]]{1}.
p988
sg7
VHardcore.Vampirism.Killer.Success
p989
ssS'3380462'
p990
(dp991
g3
V\u5438\u8840\u6a21\u5f0f
p992
sg5
VVampirism
p993
sg7
VHardcore.Vampirism.Name
p994
ssS'2215960'
p995
(dp996
g3
V\u6563\u64ad\u83cc\u7d72\u9ad4\u81f3\u571f\u548c\u8349
p997
sg5
VSpread mycelium to dirt & grass
p998
sg7
VHerbalism.Effect.13
p999
ssS'3504051'
p1000
(dp1001
S'translation'
p1002
V[[YELLOW]](\u58fd\u547d: {0}s)
p1003
sS'string'
p1004
V[[YELLOW]](Lifespan: {0}s)
p1005
sS'context'
p1006
VTaming.Summon.Lifespan
p1007
ssS'2115593'
p1008
(dp1009
g3
V{0} \u4e00\u5b9a\u6a5f\u7387\u5728\u653b\u64ca\u6642\u6062\u5fa9\u8840\u91cf
p1010
sg5
V{0} Chance for heal on attack
p1011
sg7
VTaming.Ability.Bonus.9
p1012
ssS'2115614'
p1013
(dp1014
g3
V[[YELLOW]]\u6574\u9ad4[[GREEN]] - [[GOLD]]\u6392\u884c [[WHITE]]#[[GREEN]]{0}
p1015
sg5
V[[YELLOW]]Overall[[GREEN]] - [[GOLD]]Rank [[WHITE]]#[[GREEN]]{0}
p1016
sg7
VCommands.mcrank.Overall
p1017
ssS'792153'
p1018
(dp1019
g3
V\u901f\u5ea6+, 3\u500d\u6389\u843d\u7387
p1020
sg5
VSpeed+, Triple Drop Chance
p1021
sg7
VMining.Effect.1
p1022
ssS'792099'
p1023
(dp1024
g3
V\u627e\u5230\u9644\u9b54\u7269\u54c1
p1025
sg5
VFind Enchanted Items
p1026
sg7
VFishing.Effect.3
p1027
ssS'792041'
p1028
(dp1029
g3
V[[RED]]\u9019\u500b\u968a\u4f0d\u4e26\u6c92\u6709\u9396\u5b9a!
p1030
sg5
V[[RED]]This party is not locked!
p1031
sg7
VParty.IsntLocked
p1032
ssS'792098'
p1033
(dp1034
g3
V\u5bf6\u7269\u7375\u4eba (\u88ab\u52d5\u6280\u80fd)
p1035
sg5
VTreasure Hunter (Passive)
p1036
sg7
VFishing.Effect.0
p1037
ssS'792118'
p1038
(dp1039
g3
V[[GREEN]]\u4f60\u6210\u529f\u5730\u4fdd\u7559\u4e86\u9019\u4ef6\u7269\u54c1\u7684\u9644\u9b54.
p1040
sg5
V[[GREEN]]You have sustained the arcane energies in this item.
p1041
sg7
VRepair.Arcane.Perfect
p1042
ssS'2115596'
p1043
(dp1044
g3
V[[RED]]\u66b4\u64ca\u6a5f\u7387: [[YELLOW]]{0}%
p1045
sg5
V[[RED]]Chance to critically strike: [[YELLOW]]{0}
p1046
sg7
VAxes.Combat.CritChance
p1047
ssS'792117'
p1048
(dp1049
g3
V[[RED]]\u9019\u500b\u968a\u4f0d\u5df2\u9396\u5b9a!\u53ea\u6709\u968a\u9577\u53ef\u4ee5\u9080\u8acb!
p1050
sg5
V[[RED]]Party is locked, only party leader may invite.
p1051
sg7
VParty.Locked
p1052
ssS'792114'
p1053
(dp1054
g3
V\u6316\u51fa\u5bf6\u85cf\u7684\u80fd\u529b
p1055
sg5
VAbility to dig for treasure
p1056
sg7
VExcavation.Effect.3
p1057
ssS'2115595'
p1058
(dp1059
g3
V\u9632\u5177\u7834\u58de\u8005
p1060
sg5
VArmor Impact
p1061
sg7
VAxes.Ability.Bonus.2
p1062
ssS'792112'
p1063
(dp1064
g3
V[[DARK_RED]]\u4f60\u7684\u6280\u80fd\u7b49\u7d1a\u4e0d\u8db3\u4ee5\u4fee\u7406\u9435\u88fd\u88dd\u5099!
p1065
sg5
V[[DARK_RED]]You're not skilled enough to repair Iron.
p1066
sg7
VRepair.Skills.AdeptIron
p1067
ssS'792113'
p1068
(dp1069
g3
V\u5bf6\u7269\u7375\u4eba
p1070
sg5
VTreasure Hunter
p1071
sg7
VExcavation.Effect.2
p1072
ssS'792111'
p1073
(dp1074
g3
V[[GREEN]]\u9080\u8acb\u8a0a\u606f\u767c\u9001\u6210\u529f
p1075
sg5
V[[GREEN]]Invite sent successfully.
p1076
sg7
VCommands.Invite.Success
p1077
ssS'792106'
p1078
(dp1079
g3
V[[RED]]\u6703\u5fc3\u4e00\u64ca!
p1080
sg5
V[[RED]]CRITICAL HIT!
p1081
sg7
VAxes.Combat.CriticalHit
p1082
ssS'791836'
p1083
(dp1084
g21
V[[RED]]- \u5207\u63db\u70ba\u795e\u4e4b\u6a21\u5f0f
p1085
sg23
V[[RED]]- Toggle GodMode
p1086
sg25
VCommands.mcgod
p1087
ssS'791730'
p1088
(dp1089
g3
V[[GOLD]]mcMMO\u73fe\u6b63\u8655\u65bc\u7d93\u9a57\u503c\u52a0\u500d\u968e\u6bb5!\u7d93\u9a57\u503c\u6bd4\u4f8b\u70ba{0}!
p1090
sg5
V[[GOLD]]mcMMO is currently in an XP rate event! XP rate is {0}x!
p1091
sg7
VXPRate.Event
p1092
ssS'792100'
p1093
(dp1094
g3
V\u9b54\u6cd5\u7375\u4eba
p1095
sg5
VMagic Hunter
p1096
sg7
VFishing.Effect.2
p1097
ssS'3595881'
p1098
(dp1099
g3
V\u6709\u65b0\u7684\u7248\u672cBukkitDev\u3002
p1100
sg5
VThere is a new version available on BukkitDev.
p1101
sg7
VUpdateChecker.NewAvailable
p1102
ssS'3595880'
p1103
(dp1104
g3
V\u8010\u529b
p1105
sg5
VEndurance
p1106
sg7
VPerks.ActivationTime.Name
p1107
ssS'3889104'
p1108
(dp1109
g3
V[[DARK_AQUA]]mcMMO \u5f97\u5206\u699c\u5f9e\u73fe\u5728\u958b\u59cb\u5c07\u6703\u6e05\u9664 [[GOLD]]{0}[[DARK_AQUA]] \u79d2.
p1110
sg5
V[[DARK_AQUA]]The mcMMO scoreboard will clear [[GOLD]]{0}[[DARK_AQUA]] seconds from now.
p1111
sg7
VCommands.Scoreboard.Timer
p1112
ssS'3595882'
p1113
(dp1114
g3
V\u5feb\u901f\u56de\u5fa9
p1115
sg5
VFast Recovery
p1116
sg7
VPerks.Cooldowns.Name
p1117
ssS'3588435'
p1118
(dp1119
g3
V[[RED]]\u518d\u6b21\u4f7f\u7528\u6b64\u547d\u4ee4\u4e4b\u524d,\u4f60\u5fc5\u9808\u7b49\u4e0a1\u79d2.
p1120
sg5
V[[RED]]You must wait 1 second before using this command again.
p1121
sg7
VCommands.Database.Cooldown
p1122
ssS'792091'
p1123
(dp1124
g3
V\u653e\u8840
p1125
sg5
VBleed
p1126
sg7
VSwords.Effect.6
p1127
ssS'792022'
p1128
(dp1129
g3
V[[RED]]\u9019\u4e0d\u662f\u4e00\u500b\u6709\u6548\u7684\u6280\u80fd\u540d\u5b57!
p1130
sg5
V[[RED]]That is not a valid skillname!
p1131
sg7
VCommands.Skill.Invalid
p1132
ssS'791814'
p1133
(dp1134
g21
V[[RED]]- \u63a5\u53d7\u968a\u4f0d\u9080\u8acb
p1135
sg23
V[[RED]]- Accept party invite
p1136
sg25
VCommands.Party.Accept
p1137
ssS'2649390'
p1138
(dp1139
g3
V\u5947\u7f8e\u62c9\u4e4b\u7ffc
p1140
sg5
VChimaera Wing
p1141
sg7
VItem.ChimaeraWing.Name
p1142
ssS'2649391'
p1143
(dp1144
g3
V\u9396\u5b9a\u76f4\u5230\u6280\u80fd {0}+ (\u51b0\u91e3)
p1145
sg5
VLOCKED UNTIL {0}+ SKILL (ICE FISHING)
p1146
sg7
VFishing.Ability.Locked.1
p1147
ssS'2649392'
p1148
(dp1149
g3
V\u4f10\u6728
p1150
sg5
VWoodcutting
p1151
sg7
VParty.ItemShare.Category.Woodcutting
p1152
ssS'2649393'
p1153
(dp1154
g3
V\u4fee\u7406
p1155
sg5
VRepair
p1156
sg7
VRepair.Pretty.Name
p1157
ssS'2649394'
p1158
(dp1159
g3
V[[GRAY]]\u5373\u5c07\u5728 [[GOLD]]({0}) [[GRAY]]\u79d2\u5f8c\u50b3\u9001, \u8acb\u4e0d\u8981\u4e82\u52d5...
p1160
sg5
V[[GRAY]]Commencing teleport in [[GOLD]]({0}) [[GRAY]]seconds, please stand still...
p1161
sg7
VTeleport.Commencing
p1162
ssS'2649395'
p1163
(dp1164
g3
V\u62fe\u53d6
p1165
sg5
VLoot
p1166
sg7
VParty.ItemShare.Category.Loot
p1167
ssS'2649396'
p1168
(dp1169
g3
V[[GRAY]]\u50b3\u9001\u4f60\u5230\u4f60\u7684\u5e8a\u908a.
p1170
sg5
V[[GRAY]]Teleports you to your bed.
p1171
sg7
VItem.ChimaeraWing.Lore
p1172
ssS'2649397'
p1173
(dp1174
g3
V[[RED]]\u4f7f\u7528 [[DARK_AQUA]]{0} [[RED]]\u4f86\u548c\u968a\u54e1\u5206\u4eab\u7269\u54c1
p1175
sg5
V[[RED]]Use [[DARK_AQUA]]{0} [[RED]]to share items with party members
p1176
sg7
VParty.Help.9
p1177
ssS'2649398'
p1178
(dp1179
g3
V\u6316\u7926
p1180
sg5
VMining
p1181
sg7
VParty.ItemShare.Category.Mining
p1182
ssS'2649399'
p1183
(dp1184
g3
V[[RED]]\u4f60\u5fc5\u9808\u7b49\u5f85\u76f4\u5230\u53ef\u4ee5\u518d\u6b21\u4f7f\u7528! [[YELLOW]]({0}s)
p1185
sg5
V[[RED]]You need to wait before you can use this again! [[YELLOW]]({0}s)
p1186
sg7
VItem.Generic.Wait
p1187
ssS'791738'
p1188
(dp1189
g3
V[[GREEN]]\u4f60\u7684[[YELLOW]] \u8d85\u7d1a\u788e\u77f3\u6a5f [[GREEN]]\u80fd\u529b\u5df2\u53ef\u518d\u6b21\u4f7f\u7528\uff01
p1190
sg5
V[[GREEN]]Your [[YELLOW]]Super Breaker [[GREEN]]ability is refreshed!
p1191
sg7
VMining.Skills.SuperBreaker.Refresh
p1192
ssS'791948'
p1193
(dp1194
g3
V\u589e\u52a0{0}\u50b7\u5bb3
p1195
sg5
V+{0} DMG Upgrade
p1196
sg7
VUnarmed.Ability.Bonus.1
p1197
ssS'3587679'
p1198
(dp1199
g3
V[[DARK_AQUA]]\u4ec0\u9ebc\u662f\u79d8\u6cd5\u935b\u9020?[[YELLOW]]\u79d8\u6cd5\u935b\u9020\u8b93\u4f60\u6709\u6a5f\u7387\u7559\u4f4f\u5de5\u5177\u7684\u9644\u9b54.[[YELLOW]]\u9644\u9b54\u53ef\u80fd\u5728\u4fee\u5fa9\u6642\u964d\u7d1a\u6216\u6d88\u5931.
p1200
sg5
V[[DARK_AQUA]]How does Arcane Forging work?\u005cn[[YELLOW]]This passive ability allows you to repair items with a certain\u005cn[[YELLOW]]chance of maintaining its enchantments. The enchants may be\u005cn[[YELLOW]]kept at their existing levels, downgraded to a lower level,\u005cn[[YELLOW]]or lost entirely.
p1201
sg7
VGuides.Repair.Section.4
p1202
ssS'3587678'
p1203
(dp1204
g3
V[[DARK_AQUA]]\u4fee\u5fa9:[[YELLOW]]\u4fee\u5fa9\u6280\u80fd\u8b93\u4f60\u53ef\u4ee5\u4f7f\u7528\u9435\u78da(MMO\u9435\u7827)[[YELLOW]]\u4fee\u5fa9\u5de5\u5177,\u6216\u4f7f\u7528\u91d1\u78da\u56de\u6536\u5de5\u5177.[[DARK_AQUA]]\u7d93\u9a57\u7372\u53d6:[[YELLOW]]\u7528MMO\u9435\u7827\u4fee\u5fa9\u5de5\u5177.[[YELLOW]]\u9810\u8a2d\u662f\u9435\u78da,\u4e0d\u8981\u548c\u4e00\u822c\u7684\u9435\u7827\u641e\u6df7.
p1205
sg5
V[[DARK_AQUA]]About Repair:\u005cn[[YELLOW]]Repair allows you to use an iron block to repair armor and\u005cn[[YELLOW]]tools, or a gold block to salvage armor and tools.\u005cn\u005cn[[DARK_AQUA]]XP GAIN:\u005cn[[YELLOW]]Repair tools or armor using the mcMMO Anvil. This is an\u005cn[[YELLOW]]iron block by default and should not be confused with\u005cn[[YELLOW]]the Vanilla Minecraft Anvil.
p1206
sg7
VGuides.Repair.Section.0
p1207
ssS'791784'
p1208
(dp1209
g3
V[[GREEN]]\u4f60\u7684 [[YELLOW]]\u7da0\u5316 [[GREEN]]\u80fd\u529b\u5df2\u53ef\u4f7f\u7528!
p1210
sg5
V[[GREEN]]Your [[YELLOW]]Green Terra [[GREEN]]ability is refreshed!
p1211
sg7
VHerbalism.Skills.GTe.Refresh
p1212
ssS'792029'
p1213
(dp1214
g3
V[[WHITE]]**\u64ca\u843d\u5f13\u7bad**
p1215
sg5
V[[WHITE]]**ARROW DEFLECT**
p1216
sg7
VCombat.ArrowDeflect
p1217
ssS'791783'
p1218
(dp1219
g3
V[[GREEN]]**\u4f60\u63e1\u7dca\u8457\u4f60\u7684\u528d**
p1220
sg5
V[[GREEN]]**YOU READY YOUR SWORD**
p1221
sg7
VSwords.Ability.Ready
p1222
ssS'3633767'
p1223
(dp1224
g3
V[[DARK_AQUA]]\u4ec0\u9ebc\u662f\u5bf6\u7269\u7375\u4eba?[[YELLOW]]\u9019\u500b\u6280\u80fd\u8b93\u4f60\u5728\u91e3\u9b5a\u6642\u91e3\u5230\u5bf6\u7269[[YELLOW]]\u6709\u5c0f\u6a5f\u7387\u91e3\u5230\u9644\u9b54\u9053\u5177.[[YELLOW]]\u6bcf\u7a2e\u5bf6\u7269\u7684\u51fa\u73fe\u95dc\u4fc2\u5230[[YELLOW]]\u4f60\u7684\u91e3\u9b5a\u7b49\u7d1a. \u91e3\u9b5a\u7b49\u7d1a\u6108\u9ad8,[[YELLOW]]\u5c31\u80fd\u91e3\u5230\u6108\u591a\u6108\u597d\u7684\u5bf6\u7269.
p1225
sg5
V[[DARK_AQUA]]How does Treasure Hunter work?\u005cn[[YELLOW]]This ability allows you to find treasure from fishing \u005cn[[YELLOW]]with a small chance of the items being enchanted.\u005cn[[YELLOW]]Every possible treasure for Fishing has a chance\u005cn[[YELLOW]]to drop on any level. It depends however\u005cn[[YELLOW]]what the rarity of the item is how often it will drop.\u005cn[[YELLOW]]The higher your Fishing skill is, the better\u005cn[[YELLOW]]your chances are to find better treasures.
p1226
sg7
VGuides.Fishing.Section.1
p1227
ssS'791781'
p1228
(dp1229
g3
V[[RED]]\u72c2\u66b4[[GREEN]] \u5373\u5c07\u7ed3\u675f [[YELLOW]]{0}
p1230
sg5
V[[RED]]Berserk[[GREEN]] has worn off for [[YELLOW]]{0}
p1231
sg7
VUnarmed.Skills.Berserk.Other.Off
p1232
ssS'3587671'
p1233
(dp1234
g3
V[[DARK_AQUA]]\u5982\u4f55\u7528\u66b4\u8d70\u947d\u982d:[[YELLOW]]\u624b\u6301\u93df\u5b50\u4e26\u9ede\u53f3\u9375.[[YELLOW]]\u9032\u5165\u6b64\u72c0\u614b\u7d04\u80fd\u7dad\u63014\u79d2[[YELLOW]]\u4e00\u65e6\u63a5\u89f8\u5230\u76f8\u5bb9\u7684\u7269\u8cea\u4fbf\u80fd[[YELLOW]]\u89f8\u767c\u66b4\u8d70\u947d\u982d.
p1235
sg5
V[[DARK_AQUA]]How to use Giga Drill Breaker:\u005cn[[YELLOW]]With a shovel in hand right click to ready your tool.\u005cn[[YELLOW]]Once in this state you have about 4 seconds to make\u005cn[[YELLOW]]contact with Excavation compatible materials this will\u005cn[[YELLOW]]activate Giga Drill Breaker.
p1236
sg7
VGuides.Excavation.Section.2
p1237
ssS'3587670'
p1238
(dp1239
g3
V[[DARK_AQUA]]\u4ec0\u9ebc\u662f\u66b4\u8d70\u947d\u982d?[[YELLOW]]\u66b4\u8d70\u947d\u982d\u662f\u4e3b\u52d5\u6280\u80fd,\u6301\u7e8c\u6642\u9593\u95dc\u4fc2\u5230[[YELLOW]]\u6316\u6398\u6280\u80fd\u7b49\u7d1a,\u5b83\u53ef \u4ee5\u8b93\u4f60\u6709\u6a5f\u7387\u7372\u5f97\u5bf6\u7269[[YELLOW]]\u9084\u6709\u76f4\u63a5\u6467\u6bc0\u6307\u5b9a\u65b9\u584a.
p1240
sg5
V[[DARK_AQUA]]What is Giga Drill Breaker?\u005cn[[YELLOW]]Giga Drill Breaker is an ability with a cooldown\u005cn[[YELLOW]]tied to Excavation skill. It triples your chance\u005cn[[YELLOW]]of finding treasures and enables instant break\u005cn[[YELLOW]]on Excavation materials.
p1241
sg7
VGuides.Excavation.Section.3
p1242
ssS'3587673'
p1243
(dp1244
g3
V[[DARK_AQUA]]\u95dc\u65bc\u6316\u6398:[[YELLOW]]\u6316\u6398\u662f\u4e00\u500b\u95dc\u65bc\u6316\u571f\u8207\u6316\u5bf6\u7684\u6280\u80fd.[[YELLOW]]\u6316\u6398\u5730\u9762\u53ef\u4ee5\u627e\u5230\u5bf6\u7269.[[YELLOW]]\u6316\u6108\u591a\u5bf6\u7269\u6108\u591a.[[DARK_AQUA]]\u7372\u53d6\u7d93\u9a57:[[YELLOW]]\u8981\u7372\u53d6\u7d93\u9a57\u5fc5\u9808\u6301\u6709\u93df\u5b50.[[YELLOW]]\u53ea\u6709\u7279\u5b9a\u7269\u8cea\u624d\u80fd\u6316\u5230\u5bf6\u7269\u6216\u7d93\u9a57.
p1245
sg5
V[[DARK_AQUA]]About Excavation:\u005cn[[YELLOW]]Excavation is the act of digging up dirt to find treasures.\u005cn[[YELLOW]]By excavating the land you will find treasures.\u005cn[[YELLOW]]The more you do this the more treasures you can find.\u005cn\u005cn[[DARK_AQUA]]XP GAIN:\u005cn[[YELLOW]]To gain XP in this skill you must dig with a shovel in hand.\u005cn[[YELLOW]]Only certain materials can be dug up for treasures and XP.
p1246
sg7
VGuides.Excavation.Section.0
p1247
ssS'3587672'
p1248
(dp1249
g3
V[[DARK_AQUA]]\u76f8\u5bb9\u7684\u7269\u8cea:[[YELLOW]]\u8349\u76ae, \u571f, \u6c99, \u9ecf\u571f, \u792b\u77f3, \u83cc\u7d72\u9ad4, \u9748\u9b42\u6c99
p1250
sg5
V[[DARK_AQUA]]Compatible Materials:\u005cn[[YELLOW]]Grass, Dirt, Sand, Clay, Gravel, Mycelium, Soul Sand
p1251
sg7
VGuides.Excavation.Section.1
p1252
ssS'792026'
p1253
(dp1254
g3
V\u7bad\u8853
p1255
sg5
VARCHERY
p1256
sg7
VArchery.SkillName
p1257
ssS'791862'
p1258
(dp1259
g3
V\u65a7\u982d\u7cbe\u901a
p1260
sg5
VAxe Mastery
p1261
sg7
VAxes.Ability.Bonus.0
p1262
ssS'791861'
p1263
(dp1264
g3
V\u528d\u8853
p1265
sg5
VSWORDS
p1266
sg7
VSwords.SkillName
p1267
ssS'791860'
p1268
(dp1269
g21
V[[RED]]- \u7528\u6ed1\u9f20\u53f3\u9375\u5207\u63db\u6280\u80fd\u4f7f\u7528\u6a21\u5f0f
p1270
sg23
V[[RED]]- Toggle ability activation with right click
p1271
sg25
VCommands.ToggleAbility
p1272
ssS'3785638'
p1273
(dp1274
g3
V[[GOLD]]--= [[GREEN]]mcMMO \u80fd\u529b\u51b7\u537b\u6642\u9593[[GOLD]] =--
p1275
sg5
V[[GOLD]]--= [[GREEN]]mcMMO Ability Cooldowns[[GOLD]] =--
p1276
sg7
VCommands.Cooldowns.Header
p1277
ssS'3785637'
p1278
(dp1279
g3
V[[YELLOW]]mcMMO \u51b7\u537b\u6642\u9593
p1280
sg5
V[[YELLOW]]mcMMO Cooldowns
p1281
sg7
VScoreboard.Header.PlayerCooldowns
p1282
ssS'893583'
p1283
(dp1284
g3
V[[RED]]\u4fee\u7406\u7cbe\u901a: [[YELLOW]]\u984d\u5916\u56de\u5fa9 {0}% \u8010\u4e45\u5ea6
p1285
sg5
V[[RED]]Repair Mastery: [[YELLOW]]Extra {0} durability restored
p1286
sg7
VRepair.Skills.Mastery
p1287
ssS'893582'
p1288
(dp1289
g3
V\u4fee\u7406\u77f3\u982d ({0}+ SKILL)
p1290
sg5
VStone Repair ({0}+ SKILL)
p1291
sg7
VRepair.Effect.14
p1292
ssS'893581'
p1293
(dp1294
g3
V\u4fee\u7406\u77f3\u88fd\u5de5\u5177
p1295
sg5
VRepair Stone Tools
p1296
sg7
VRepair.Effect.15
p1297
ssS'893580'
p1298
(dp1299
g3
V\u4fee\u7406\u9435 ({0}+ SKILL)
p1300
sg5
VIron Repair ({0}+ SKILL)
p1301
sg7
VRepair.Effect.12
p1302
ssS'893587'
p1303
(dp1304
g3
V\u4f7f\u7528\u7a2e\u5b50\u8b93\u9d5d\u5375\u77f3\u8b8a\u9752\u82d4\u77f3,\u6216\u8b93\u6ce5\u571f\u8b8a\u8349\u5730
p1305
sg5
VMake bricks mossy, or make grass grow
p1306
sg7
VHerbalism.Effect.5
p1307
ssS'893585'
p1308
(dp1309
g3
V[[RED]]\u96d9\u500d\u6389\u843d\u6a5f\u7387: [[YELLOW]]{0}
p1310
sg5
V[[RED]]Double Drop Chance: [[YELLOW]]{0}
p1311
sg7
VMining.Effect.DropChance
p1312
ssS'893584'
p1313
(dp1314
g3
V[[RED]]\u96d9\u500d\u6389\u843d\u6a5f\u7387: [[YELLOW]]{0}
p1315
sg5
V[[RED]]Double Drop Chance: [[YELLOW]]{0}
p1316
sg7
VHerbalism.Ability.DoubleDropChance
p1317
ssS'893588'
p1318
(dp1319
g3
V[[RED]]\u4f60\u6c92\u6709\u67e5\u8a62\u96e2\u7dda\u73a9\u5bb6\u8a0a\u606f\u7684\u6b0a\u9650!
p1320
sg5
V[[RED]]You do not have permission to inspect offline players!
p1321
sg7
VInspect.Offline
p1322
ssS'3790750'
p1323
(dp1324
g21
V[[RED]]-----[][[GREEN]]\u968a\u4f0d\u806f\u76df[[RED]][]-----
p1325
sg23
V[[RED]]-----[][[GREEN]]PARTY ALLIANCE[[RED]][]-----
p1326
sg25
VCommands.Party.Alliance.Header
p1327
ssS'791918'
p1328
(dp1329
g3
V[[GREEN]]{0}[[DARK_GREEN]] \u4f7f\u7528\u4e86 [[RED]]\u6316\u7926\u7206\u767c!
p1330
sg5
V[[GREEN]]{0}[[DARK_GREEN]] has used [[RED]]Blast Mining!
p1331
sg7
VMining.Blast.Other.On
p1332
ssS'2127529'
p1333
(dp1334
g3
V\u6d77\u502b\u7684\u795d\u798f
p1335
sg5
VHylian Luck
p1336
sg7
VHerbalism.Effect.10
p1337
ssS'2217091'
p1338
(dp1339
g3
V[[GRAY]]\u968a\u4f0d\u5171\u4eab\u7684\u7269\u54c1[[GOLD]]{0} [[GRAY]] \u5df2\u7d93 [[DARK_AQUA]]{1}
p1340
sg5
V[[GRAY]]Party item sharing for [[GOLD]]{0} [[GRAY]]has been [[DARK_AQUA]]{1}
p1341
sg7
VCommands.Party.ToggleShareCategory
p1342
ssS'3587675'
p1343
(dp1344
g3
V[[DARK_AQUA]]\u7bad\u8853:[[YELLOW]]\u7bad\u8853\u662f\u7528\u5f13\u5c04\u7bad\u7684\u6280\u80fd.[[YELLOW]]\u7bad\u8853\u6709\u5404\u7a2e\u52a0\u4e58\u6548\u679c,\u5982\u52a0\u4e58\u653b\u64ca[[YELLOW]]\u6688\u7729\u5c0d\u624b\u7b49\u6548\u679c.[[YELLOW]]\u6b64\u5916\u4f60\u4e5f\u6709\u6a5f\u7387\u56de\u6536\u5df2\u7d93\u5c04\u4e2d\u6575\u4eba\u7684\u7bad[[YELLOW]] \u4ee5\u4e0a\u6a5f\u7387\u95dc\u4fc2\u5230\u7b49\u7d1a.[[DARK_AQUA]]\u7372\u53d6\u7d93\u9a57:[[YELLOW]]\u8981\u7372\u5f97\u7d93\u9a57\u5fc5\u9808\u7528\u5f13\u5c04\u4e2d\u602a\u7269\u6216\u73a9\u5bb6.
p1345
sg5
V[[DARK_AQUA]]About Archery:\u005cn[[YELLOW]]Archery is about shooting with your bow and arrow.\u005cn[[YELLOW]]It provides various combat bonuses, such as a damage boost\u005cn[[YELLOW]]that scales with your level and the ability to daze your\u005cn[[YELLOW]]opponents in PvP. In addition to this, you can retrieve\u005cn[[YELLOW]]some of your spent arrows from the corpses of your foes.\u005cn\u005cn\u005cn[[DARK_AQUA]]XP GAIN:\u005cn[[YELLOW]]To gain XP in this skill you need to shoot mobs or\u005cn[[YELLOW]]other players.
p1346
sg7
VGuides.Archery.Section.0
p1347
ssS'2239117'
p1348
(dp1349
g3
V[[RED]]\u4f60\u5728{0}\u79d2\u524d\u88ab\u653b\u64ca\u6240\u4ee5\u7121\u6cd5\u50b3\u9001.
p1350
sg5
V[[RED]]You have been hurt in the last {0} seconds and cannot teleport.
p1351
sg7
VParty.Teleport.Hurt
p1352
ssS'2093998'
p1353
(dp1354
g3
V\u6f01\u4eba\u4fbf\u7576
p1355
sg5
VFisherman's Diet
p1356
sg7
VFishing.Effect.6
p1357
ssS'2215959'
p1358
(dp1359
g3
V\u8611\u83c7\u624b
p1360
sg5
VShroom Thumb
p1361
sg7
VHerbalism.Effect.12
p1362
ssS'2215958'
p1363
(dp1364
g3
V[[RED]]\u8611\u83c7\u624b\u89f8\u767c\u6a5f\u7387: [[YELLOW]]{0}
p1365
sg5
V[[RED]]Shroom Thumb Chance: [[YELLOW]]{0}
p1366
sg7
VHerbalism.Ability.ShroomThumb.Chance
p1367
ssS'2215957'
p1368
(dp1369
g3
V[[RED]]**\u78e8\u83c7\u624b\u4f7f\u7528\u5931\u6557**
p1370
sg5
V[[RED]]**SHROOM THUMB FAIL**
p1371
sg7
VHerbalism.Ability.ShroomThumb.Fail
p1372
ssS'2093992'
p1373
(dp1374
g3
V\u9396\u5b9a\u76f4\u5230\u6280\u80fd {0}+  (\u6bdb\u76ae\u5f37\u5316)
p1375
sg5
VLOCKED UNTIL {0}+ SKILL (THICK FUR)
p1376
sg7
VTaming.Ability.Locked.1
p1377
ssS'2093991'
p1378
(dp1379
g3
V\u9396\u5b9a\u76f4\u5230\u6280\u80fd {0}+  (\u885d\u64ca\u683c\u64cb)
p1380
sg5
VLOCKED UNTIL {0}+ SKILL (SHOCK PROOF)
p1381
sg7
VTaming.Ability.Locked.2
p1382
ssS'2093990'
p1383
(dp1384
g3
V\u9396\u5b9a\u76f4\u5230\u6280\u80fd {0}+  (\u5229\u722a)
p1385
sg5
VLOCKED UNTIL {0}+ SKILL (SHARPENED CLAWS)
p1386
sg7
VTaming.Ability.Locked.3
p1387
ssS'2093997'
p1388
(dp1389
g3
V\u98df\u7528\u9b5a\u98df\u54c1\u6642\u984d\u5916\u6062\u5fa9\u98fd\u98df\u5ea6
p1390
sg5
VImproves hunger restored from fished foods
p1391
sg7
VFishing.Effect.7
p1392
ssS'2093996'
p1393
(dp1394
g3
V[[DARK_RED]]\u6230\u9b25\u529b: [[GREEN]]{0} [[DARK_RED]]\u6700\u9ad8\u7b49\u7d1a: [[YELLOW]]{1}
p1395
sg5
V[[DARK_RED]]POWER LEVEL: [[GREEN]]{0} [[DARK_RED]]MAX LEVEL: [[YELLOW]]{1}
p1396
sg7
VCommands.PowerLevel.Capped
p1397
ssS'2093995'
p1398
(dp1399
g21
V[[RED]]\u8a2d\u5b9a\u6280\u80fd\u7b49\u7d1a\u70ba0
p1400
sg23
V[[RED]]Reset a skill's level to 0
p1401
sg25
VCommands.Reset
p1402
ssS'2093994'
p1403
(dp1404
g3
V\u9396\u5b9a\u76f4\u5230\u6280\u80fd {0}+  (\u5feb\u9910\u670d\u52d9)
p1405
sg5
VLOCKED UNTIL {0}+ SKILL (FAST FOOD SERVICE)
p1406
sg7
VTaming.Ability.Locked.4
p1407
ssS'3595870'
p1408
(dp1409
g3
V\u6e1b\u5c11\u51b7\u537b\u6642\u9593 {0}
p1410
sg5
VCuts cooldown duration by {0}.
p1411
sg7
VPerks.Cooldowns.Desc
p1412
ssS'3595871'
p1413
(dp1414
g3
V\u67d0\u6a23\u6280\u80fd\u7372\u5f97\u5927\u91cf\u7d93\u9a57\u503c.
p1415
sg5
VReceive boosted XP in certain skills.
p1416
sg7
VPerks.XP.Desc
p1417
ssS'3595872'
p1418
(dp1419
g3
V\u7d66\u4e88 {0} \u6280\u80fd\u9ad8\u65bc33.3%\u4ee5\u4e0a\u7684\u6a5f\u7387\u89f8\u767c
p1420
sg5
VGives {0} skills and abilities a 33.3% better chance to activate.
p1421
sg7
VPerks.Lucky.Desc
p1422
ssS'3595873'
p1423
(dp1424
g3
V\u63d0\u9ad8\u80fd\u529b \u6301\u7e8c\u6642\u9593: {0} \u79d2
p1425
sg5
VIncreases ability activation time by {0} seconds.
p1426
sg7
VPerks.ActivationTime.Desc
p1427
ssS'3595874'
p1428
(dp1429
g3
V\u7d93\u9a57\u503c
p1430
sg5
VExperience
p1431
sg7
VPerks.XP.Name
p1432
ssS'3595875'
p1433
(dp1434
g3
V[[GOLD]] ({0}\u5f88\u8d70\u904b)
p1435
sg5
V[[GOLD]] ({0} with Lucky Perk)
p1436
sg7
VPerks.Lucky.Bonus
p1437
ssS'3595876'
p1438
(dp1439
g3
V\u60a8\u4f7f\u7528\u7684\u662f\u904e\u6642\u7684\u7248\u672cmcMMO\uff01
p1440
sg5
VYou are using an outdated version of mcMMO!
p1441
sg7
VUpdateChecker.Outdated
p1442
ssS'3595877'
p1443
(dp1444
g3
V\u7d66\u4e88\u6280\u80fd\u9ad8\u65bc33.3%\u4ee5\u4e0a\u7684\u6a5f\u7387\u89f8\u767c
p1445
sg5
VGives certain skills and abilities a 33.3% better chance to activate.
p1446
sg7
VPerks.Lucky.Desc.Login
p1447
ssS'3595878'
p1448
(dp1449
g3
V\u5e78\u904b
p1450
sg5
VLuck
p1451
sg7
VPerks.Lucky.Name
p1452
ssS'3595879'
p1453
(dp1454
g3
V[[GOLD]] ({0}\u8010\u4e45\u52a0\u4e58)
p1455
sg5
V[[GOLD]] ({0}s with Endurance Perk)
p1456
sg7
VPerks.ActivationTime.Bonus
p1457
ssS'3587674'
p1458
(dp1459
g3
V[[DARK_AQUA]]\u4ec0\u9ebc\u662f\u7da0\u624b\u6307(\u4f5c\u7269)?[[YELLOW]]\u9019\u662f\u4e00\u500b\u88ab\u52d5\u6280\u80fd,\u8b93\u4f5c\u7269\u5728\u63a1\u6536\u6642[[YELLOW]]\u81ea\u52d5\u7a2e\u56de\u53bb.[[YELLOW]]\u6210\u529f\u7387\u95dc\u4fc2\u5230\u4f60\u7684\u8349\u85e5\u5b78\u6280\u80fd\u7b49\u7d1a.
p1460
sg5
V[[DARK_AQUA]]How does Green Thumb (Crops) work?\u005cn[[YELLOW]]This passive ability will automatically replant crops when\u005cn[[YELLOW]]harvesting.\u005cn[[YELLOW]]Your chance of success depends on your Herbalism skill.
p1461
sg7
VGuides.Herbalism.Section.3
p1462
ssS'2093967'
p1463
(dp1464
g3
V[[GREEN]]\u4f60\u5168\u90e8\u7684\u6280\u80fd\u7b49\u7d1a\u4ee5\u91cd\u7f6e\u6210\u529f.
p1465
sg5
V[[GREEN]]All of your skill levels have been reset successfully.
p1466
sg7
VCommands.Reset.All
p1467
ssS'2093964'
p1468
(dp1469
g3
V[[YELLOW]]\u528d\u8853\u6280\u80fd\u4e0a\u5347\u4e86 {0}. \u7e3d\u7b49\u7d1a ({1})
p1470
sg5
V[[YELLOW]]Swords skill increased by {0}. Total ({1})
p1471
sg7
VSwords.Skillup
p1472
ssS'2093965'
p1473
(dp1474
g3
V\u9396\u5b9a\u76f4\u5230\u6280\u80fd {0}+ \uff08\u6416\u6643\uff09
p1475
sg5
VLOCKED UNTIL {0}+ SKILL (SHAKE)
p1476
sg7
VFishing.Ability.Locked.0
p1477
ssS'2093962'
p1478
(dp1479
g3
V[[DARK_RED]]\u4f60\u653e\u7f6e\u4e86\u4e00\u500b\u56de\u6536\u53f0,\u4f7f\u7528\u5b83\u4f86\u56de\u6536\u5de5\u5177\u548c\u88dd\u7532
p1480
sg5
V[[DARK_RED]]You have placed a Salvage anvil, use this to Salvage tools and armor.
p1481
sg7
VRepair.Listener.Anvil2
p1482
ssS'2093963'
p1483
(dp1484
g3
V[[GREEN]]\u4f60\u7684 {0} \u6280\u80fd\u7b49\u7d1a\u4ee5\u91cd\u7f6e\u6210\u529f.
p1485
sg5
V[[GREEN]]Your {0} skill level has been reset successfully.
p1486
sg7
VCommands.Reset.Single
p1487
ssS'791831'
p1488
(dp1489
g3
V[[GOLD]]-=\u96dc\u985e\u6280\u80fd=-
p1490
sg5
V[[GOLD]]-=MISC SKILLS=-
p1491
sg7
VStats.Header.Misc
p1492
ssS'2093969'
p1493
(dp1494
g3
V\u9396\u5b9a\u76f4\u5230\u6280\u80fd {0}+ (\u79cb\u98a8\u6383\u843d\u8449)
p1495
sg5
VLOCKED UNTIL {0}+ SKILL (LEAF BLOWER)
p1496
sg7
VWoodcutting.Ability.Locked.0
p1497
ssS'3380428'
p1498
(dp1499
g3
V[[GOLD]][mcMMO] [[YELLOW]]{0}[[GRAY]]\u592a\u4e0d\u7d14\u719f\u4ee5\u81f3\u65bc\u7121\u6cd5\u8b93\u4f60\u7372\u5f97\u4efb\u4f55\u7684\u77e5\u8b58.
p1500
sg5
V[[GOLD]][mcMMO] [[YELLOW]]{0}[[GRAY]] was too unskilled to grant you any knowledge.
p1501
sg7
VHardcore.Vampirism.Killer.Failure
p1502
ssS'2138159'
p1503
(dp1504
g3
V[[RED]]\u6d41\u80fd\u6316\u7926\u6a5f\u7387: [[YELLOW]]{0}
p1505
sg5
V[[RED]]Flux Mining Chance: [[YELLOW]]{0}
p1506
sg7
VSmelting.Ability.FluxMining
p1507
ssS'3380530'
p1508
(dp1509
g3
V[[GOLD]][mcMMO] \u72c0\u614b\u5438\u6536\u7387\u8b8a\u66f4\u70ba {0}.
p1510
sg5
V[[GOLD]][mcMMO] The stat leech percentage was changed to {0}.
p1511
sg7
VHardcore.Vampirism.PercentageChanged
p1512
ssS'2138157'
p1513
(dp1514
g3
V[[GREEN]]\u7926\u7269\u81ea\u52d5\u51b6\u7149!
p1515
sg5
V[[GREEN]]That ore smelted itself!
p1516
sg7
VSmelting.FluxMining.Success
p1517
ssS'2138156'
p1518
(dp1519
g3
V\u51b6\u7149:
p1520
sg5
VSmelting:
p1521
sg7
VSmelting.Listener
p1522
ssS'2138155'
p1523
(dp1524
g3
V\u9396\u5b9a\u76f4\u5230\u6280\u80fd {0}+ (\u6d41\u80fd\u6316\u7926)
p1525
sg5
VLOCKED UNTIL {0}+ SKILL (FLUX MINING)
p1526
sg7
VSmelting.Ability.Locked.1
p1527
ssS'2138154'
p1528
(dp1529
g3
V\u9396\u5b9a\u76f4\u5230\u6280\u80fd {0}+ (\u4e00\u822c\u7d93\u9a57\u52a0\u6210)
p1530
sg5
VLOCKED UNTIL {0}+ SKILL (VANILLA XP BOOST)
p1531
sg7
VSmelting.Ability.Locked.0
p1532
ssS'3587677'
p1533
(dp1534
g3
V[[DARK_AQUA]]\u4ec0\u9ebc\u662f\u4fee\u7406\u7cbe\u901a?[[YELLOW]]\u55ae\u6b21\u4fee\u5fa9\u7684\u8010\u4e45\u5ea6\u52a0\u4e58.[[YELLOW]]\u9019\u95dc\u4fc2\u5230\u4f60\u7684\u4fee\u5fa9\u7b49\u7d1a.
p1535
sg5
V[[DARK_AQUA]]How does Repair Mastery work?\u005cn[[YELLOW]]Repair Mastery increases the repair amount. The extra amount\u005cn[[YELLOW]]repaired is influenced by your Repair skill level.
p1536
sg7
VGuides.Repair.Section.2
p1537
ssS'791737'
p1538
(dp1539
g3
V[[GOLD]]-=\u63a1\u96c6\u6280\u80fd=-
p1540
sg5
V[[GOLD]]-=GATHERING SKILLS=-
p1541
sg7
VStats.Header.Gathering
p1542
ssS'791736'
p1543
(dp1544
g3
V[[DARK_RED]]\u4f60\u7684\u6280\u80fd\u7b49\u7d1a\u4e0d\u8db3\u4ee5\u4fee\u7406\u9ec4\u91d1\u88dd\u5099!
p1545
sg5
V[[DARK_RED]]You're not skilled enough to repair Gold.
p1546
sg7
VRepair.Skills.AdeptGold
p1547
ssS'791735'
p1548
(dp1549
g3
V[[RED]]**\u72c2\u66b4\u5df2\u7ed3\u675f**
p1550
sg5
V[[RED]]**Berserk has worn off**
p1551
sg7
VUnarmed.Skills.Berserk.Off
p1552
ssS'791734'
p1553
(dp1554
g3
V[[DARK_RED]]\u6230\u9b25\u529b: [[GREEN]]{0}
p1555
sg5
V[[DARK_RED]]POWER LEVEL: [[GREEN]]{0}
p1556
sg7
VCommands.PowerLevel
p1557
ssS'792156'
p1558
(dp1559
g3
V\u6316\u7926\u7206\u767c
p1560
sg5
VBlast Mining
p1561
sg7
VMining.Effect.4
p1562
ssS'792157'
p1563
(dp1564
g3
V\u4f7f\u7528TNT\u6316\u7926\u6703\u7372\u5f97\u984d\u5916\u734e\u52f5
p1565
sg5
VBonuses to mining with TNT
p1566
sg7
VMining.Effect.5
p1567
ssS'792154'
p1568
(dp1569
g3
V\u96d9\u500d\u6389\u843d
p1570
sg5
VDouble Drops
p1571
sg7
VMining.Effect.2
p1572
ssS'792155'
p1573
(dp1574
g3
V\u96d9\u500d\u6389\u843d\u7269\u54c1
p1575
sg5
VDouble the normal loot
p1576
sg7
VMining.Effect.3
p1577
ssS'792093'
p1578
(dp1579
g3
V[[RED]]\u9019\u4ef6\u7269\u54c1\u7684\u9644\u9b54\u7b49\u7d1a\u5df2\u4e0b\u964d
p1580
sg5
V[[RED]]Arcane power has decreased for this item.
p1581
sg7
VRepair.Arcane.Downgrade
p1582
ssS'792092'
p1583
(dp1584
g3
V[[GOLD]]mcMMO \u7d93\u9a57\u503c\u73fe\u5728\u52a0\u500d {0}x!
p1585
sg5
V[[GOLD]]mcMMO XP RATE IS NOW {0}x!
p1586
sg7
VCommands.xprate.started.1
p1587
ssS'792158'
p1588
(dp1589
g3
V\u589e\u52a0TNT\u7206\u70b8\u7bc4\u570d
p1590
sg5
VIncreases TNT explosion radius
p1591
sg7
VMining.Effect.7
p1592
ssS'792159'
p1593
(dp1594
g3
V\u7206\u7834\u5c08\u5bb6
p1595
sg5
VDemolitions Expertise
p1596
sg7
VMining.Effect.8
p1597
ssS'792097'
p1598
(dp1599
g3
V\u6389\u5230\u96dc\u7269
p1600
sg5
VFish up misc. objects
p1601
sg7
VFishing.Effect.1
p1602
ssS'792096'
p1603
(dp1604
g3
V\u6416\u6643 (\u5c0d\u602a\u7269\u4f7f\u7528)
p1605
sg5
VShake (vs. Entities)
p1606
sg7
VFishing.Effect.4
p1607
ssS'792095'
p1608
(dp1609
g3
V\u7528\u91e3\u7aff\u628a\u602a\u7269\u7684\u7269\u54c1\u53d6\u4e0b\u4f86
p1610
sg5
VShake items off of mobs w/ fishing pole
p1611
sg7
VFishing.Effect.5
p1612
ssS'792094'
p1613
(dp1614
g3
V[mcMMO] \u795e\u4e4b\u6a21\u5f0f\u4e0d\u5141\u8a31\u5728\u9019\u4e16\u754c\u958b\u555f (\u8acb\u89c0\u770b\u6b0a\u9650\u8a2d\u5b9a)
p1615
sg5
V[mcMMO] God Mode not permitted on this world (See Permissions)
p1616
sg7
VCommands.GodMode.Forbidden
p1617
ssS'2127526'
p1618
(dp1619
g3
V[[GREEN]]\u8c50\u6536\u5973\u795e\u4eca\u65e5\u8207\u4f60\u540c\u5728!
p1620
sg5
V[[GREEN]]The luck of Hyrule is with you today!
p1621
sg7
VHerbalism.HylianLuck
p1622
ssS'2127527'
p1623
(dp1624
g3
V[[RED]]\u6d77\u502b\u7684\u795d\u798f\u6a5f\u7387: [[YELLOW]]{0}
p1625
sg5
V[[RED]]Hylian Luck Chance: [[YELLOW]]{0}
p1626
sg7
VHerbalism.Ability.HylianLuck
p1627
ssS'2195758'
p1628
(dp1629
g3
V[[RED]]\u8981\u5275\u5efa\u4e00\u500b\u968a\u4f0d\uff0c\u8acb\u4f7f\u7528[[DARK_AQUA]] {0} <name> [password].
p1630
sg5
V[[RED]]To create a party, use [[DARK_AQUA]]{0} <name> [password].
p1631
sg7
VParty.Help.1
p1632
ssS'2195759'
p1633
(dp1634
g3
V[[RED]]\u4f7f\u7528 [[DARK_AQUA]]{0} <player> [password] [[RED]]\u4f86\u52a0\u5165\u6216\u4f7f\u7528 [[DARK_AQUA]]{1} [[RED]]\u4f86\u96e2\u958b
p1635
sg5
V[[RED]]Use [[DARK_AQUA]]{0} <player> [password] [[RED]]to join or [[DARK_AQUA]]{1} [[RED]]to quit
p1636
sg7
VParty.Help.3
p1637
ssS'791850'
p1638
(dp1639
g3
V\u589e\u52a0\u5f13\u7bad\u50b7\u5bb3
p1640
sg5
VIncreases damage done with bows
p1641
sg7
VArchery.Effect.1
p1642
ssS'2195756'
p1643
(dp1644
g3
V[[RED]]\u968a\u4f0d\u7d93\u9a57\u5171\u4eab\u5df2\u505c\u7528.
p1645
sg5
V[[RED]]Party experience sharing is disabled.
p1646
sg7
VParty.ExpShare.Disabled
p1647
ssS'3587676'
p1648
(dp1649
g3
V\u4e0b\u6b21\u9084\u6709...
p1650
sg5
VComing soon...
p1651
sg7
VGuides.Smelting.Section.0
p1652
ssS'2195750'
p1653
(dp1654
g3
V\u8abf\u6574mcMMO\u786c\u6d3e\u6bd4\u4f8b\u6216\u5207\u63db\u786c\u6d3e\u6a21\u5f0f (\u958b/\u95dc)
p1655
sg5
VModify the mcMMO hardcore percentage or toggle hardcore mode on/off
p1656
sg7
VCommands.Description.hardcore
p1657
ssS'2195753'
p1658
(dp1659
g3
V[[RED]]\u6b63\u78ba\u7528\u6cd5\u70ba[[DARK_AQUA]]{0} <player> [password].
p1660
sg5
V[[RED]]Proper usage is [[DARK_AQUA]]{0} <player> [password].
p1661
sg7
VParty.Help.0
p1662
ssS'3823879'
p1663
(dp1664
g3
V[[GOLD]][mcMMO] \u786c\u6d3e\u6a21\u5f0f {0} \u958b\u555f. {1}
p1665
sg5
V[[GOLD]][mcMMO] Hardcore mode {0} enabled for {1}.
p1666
sg7
VHardcore.Mode.Enabled
p1667
ssS'3399049'
p1668
(dp1669
g3
V[[RED]]{0}\u4e0d\u662f\u4e00\u500b\u6b63\u78ba\u7684\u8cc7\u6599\u5eab\u7a2e\u985e.
p1670
sg5
V[[RED]]{0} is not a valid database type.
p1671
sg7
VCommands.mcconvert.Database.InvalidType
p1672
ssS'3399048'
p1673
(dp1674
g3
V[[RED]]\u4f60\u6b63\u5728\u4f7f\u7528{0}\u8cc7\u6599\u5eab!
p1675
sg5
V[[RED]]You are already using the {0} database!
p1676
sg7
VCommands.mcconvert.Database.Same
p1677
ssS'3399047'
p1678
(dp1679
g3
V[[GRAY]]\u958b\u59cb\u5f9e{0}\u8f49\u63db\u5230{1}\u66f2\u7dda
p1680
sg5
V[[GRAY]]Starting conversion from {0} to {1} curve
p1681
sg7
VCommands.mcconvert.Experience.Start
p1682
ssS'3399046'
p1683
(dp1684
g3
V[[GRAY]]\u958b\u59cb\u5f9e{0}\u8f49\u63db\u81f3{1}...
p1685
sg5
V[[GRAY]]Starting conversion from {0} to {1}...
p1686
sg7
VCommands.mcconvert.Database.Start
p1687
ssS'792043'
p1688
(dp1689
g3
V[[GREEN]]**\u8d85\u7d1a\u788e\u77f3\u6a5f\u5df2\u4f7f\u7528**
p1690
sg5
V[[GREEN]]**SUPER BREAKER ACTIVATED**
p1691
sg7
VMining.Skills.SuperBreaker.On
p1692
ssS'3399045'
p1693
(dp1694
g3
V[[GRAY]]\u8cc7\u6599\u5eab\u9077\u79fb\u5b8c\u6210; {1}\u8cc7\u6599\u5eab\u73fe\u5728\u64c1\u6709{0}\u8cc7\u6599\u5eab\u7684\u6240\u6709\u8cc7\u6599.
p1695
sg5
V[[GRAY]]Database migration complete; the {1} database now has all data from the {0} database.
p1696
sg7
VCommands.mcconvert.Database.Finish
p1697
ssS'2124957'
p1698
(dp1699
g3
V\u7b49\u7d1a
p1700
sg5
Vlevel
p1701
sg7
VCommands.Usage.Level
p1702
ssS'2124954'
p1703
(dp1704
g3
V\u8a0a\u606f
p1705
sg5
Vmessage
p1706
sg7
VCommands.Usage.Message
p1707
ssS'2124955'
p1708
(dp1709
g3
V[[RED]]\u76ee\u6a19: [[WHITE]]{0}
p1710
sg5
V[[RED]]TARGET: [[WHITE]]{0}
p1711
sg7
VCommands.mcrank.Player
p1712
ssS'2190050'
p1713
(dp1714
g3
V\u66f4\u63db\u4f60\u7684McMMO HUD\u98a8\u683c
p1715
sg5
VChange your mcMMO HUD style
p1716
sg7
VCommands.Description.mchud
p1717
ssS'2124953'
p1718
(dp1719
g3
V[[RED]]\u4f60\u9700\u8981\u66f4\u591a\u7a2e\u5b50\u624d\u53ef\u7da0\u5316.
p1720
sg5
V[[RED]]You need more seeds to spread Green Terra.
p1721
sg7
VHerbalism.Ability.GTe.NeedMore
p1722
ssS'2190052'
p1723
(dp1724
g3
V\u986f\u793a\u6240\u6709mcMMO\u7684\u6392\u540d
p1725
sg5
VShow mcMMO ranking for a player
p1726
sg7
VCommands.Description.mcrank
p1727
ssS'2124951'
p1728
(dp1729
g3
V[[GREEN]]\u4f60\u6210\u70ba\u4e86\u968a\u9577.
p1730
sg5
V[[GREEN]]You are now the party leader.
p1731
sg7
VParty.Owner.Player
p1732
ssS'791819'
p1733
(dp1734
g3
V\u4fee\u7406\u947d\u77f3\u5de5\u5177\u548c\u88dd\u5099
p1735
sg5
VRepair Diamond Tools & Armor
p1736
sg7
VRepair.Effect.7
p1737
ssS'791847'
p1738
(dp1739
g3
V\u4e00\u5b9a\u6a5f\u7387\u4f7f\u72fc\u5728\u653b\u64ca\u6642\u6062\u5fa9\u8840\u91cf
p1740
sg5
VChance for wolves to heal on attack
p1741
sg7
VTaming.Effect.17
p1742
ssS'2124958'
p1743
(dp1744
g3
V[[GREEN]]\u6578\u64da\u5df2\u91cd\u7f6e!
p1745
sg5
V[[GREEN]]The database was successfully purged!
p1746
sg7
VCommands.mcpurge.Success
p1747
ssS'2124959'
p1748
(dp1749
g3
V[[GREEN]]{1}\u6280\u80fd\u5df2\u589e\u52a0{0}\u7b49!
p1750
sg5
V[[GREEN]]You were awarded {0} levels in {1}!
p1751
sg7
VCommands.addlevels.AwardSkill.1
p1752
ssS'791823'
p1753
(dp1754
g3
V\u5df2\u589e\u52a0\u4fee\u7406\u6578\u91cf
p1755
sg5
VIncreased repair amount
p1756
sg7
VRepair.Effect.3
p1757
ssS'791822'
p1758
(dp1759
g3
V\u4fee\u7406
p1760
sg5
VRepair
p1761
sg7
VRepair.Effect.0
p1762
ssS'791820'
p1763
(dp1764
g3
V\u947d\u77f3\u4fee\u7406 ({0}+ SKILL)
p1765
sg5
VDiamond Repair ({0}+ SKILL)
p1766
sg7
VRepair.Effect.6
p1767
ssS'791827'
p1768
(dp1769
g3
V[[RED]]\u4f60\u7684\u6280\u80fd\u7b49\u7d1a\u4e0d\u8db3\u4ee5\u4fdd\u7559\u9644\u9b54\u5c6c\u6027.
p1770
sg5
V[[RED]]You were not skilled enough to keep any enchantments.
p1771
sg7
VRepair.Arcane.Lost
p1772
ssS'3587638'
p1773
(dp1774
g3
V[[DARK_AQUA]]\u4ec0\u9ebc\u662f\u91ce\u6027\u547c\u558a?[[YELLOW]]\u91ce\u6027\u547c\u558a\u662f\u4e00\u500b\u4e3b\u52d5\u6280\u80fd\u8b93\u4f60[[YELLOW]]\u53ef\u4ee5\u53ec\u559a\u4e00\u96bb\u72fc\u6216\u8c79\u8c93,[[YELLOW]]\u53ea\u8981\u624b\u630110\u8ddf\u9aa8\u982d\u6216\u751f\u9b5a,\u9ede\u5de6\u9375.
p1775
sg5
V[[DARK_AQUA]]How does Call of the Wild work?\u005cn[[YELLOW]]Call of the Wild is an active ability that will allow you to summon\u005cn[[YELLOW]]a wolf or an ocelot by your side. You can do this by\u005cn[[YELLOW]]left-clicking while holding bones or fish.
p1776
sg7
VGuides.Taming.Section.1
p1777
ssS'791825'
p1778
(dp1779
g3
V\u528d\u8853:
p1780
sg5
VSwords:
p1781
sg7
VSwords.Listener
p1782
ssS'791824'
p1783
(dp1784
g3
V\u4fee\u7406\u7cbe\u901a
p1785
sg5
VRepair Mastery
p1786
sg7
VRepair.Effect.2
p1787
ssS'3587635'
p1788
(dp1789
g3
V[[DARK_AQUA]]\u4ec0\u9ebc\u662f\u6703\u5fc3\u4e00\u64ca?[[YELLOW]]\u6703\u5fc3\u4e00\u64ca\u662f\u4e00\u500b\u53ef\u4ee5\u9020\u6210\u52a0\u4e58\u50b7\u5bb3\u7684\u88ab\u52d5\u6280\u80fd.[[YELLOW]]\u9810\u8a2d\u65a7\u6280\u6bcf\u5347\u5169\u7b49,\u53ef\u589e\u52a00.1%\u66b4\u64ca\u7387[[YELLOW]]\u5c0d\u602a\u7269\u67092\u500d\u653b\u64ca\u529b\u5c0d\u73a9\u5bb6\u67091.5\u500d.
p1790
sg5
V[[DARK_AQUA]]How does Critical Strikes work?\u005cn[[YELLOW]]Critical Strikes is a passive ability which gives players a\u005cn[[YELLOW]]chance to deal additional damage.\u005cn[[YELLOW]]With the default settings, every 2 skill levels in Axes awards a\u005cn[[YELLOW]]0.1% chance to deal a Critical Strike, causing 2.0 times damage\u005cn[[YELLOW]]to mobs or 1.5 times damage against other players.
p1791
sg7
VGuides.Axes.Section.2
p1792
ssS'3587634'
p1793
(dp1794
g3
V[[DARK_AQUA]]\u4ec0\u9ebc\u662f\u5288\u9871\u65ac?[[YELLOW]]\u9019\u662f\u4e00\u500b\u4e3b\u52d5\u6280\u80fd(\u7bc4\u570d\u6280).[[YELLOW]]\u9031\u906d\u88ab\u6ce2\u53ca\u7684\u50b7\u5bb3\u70ba\u4e3b\u8981\u76ee\u6a19\u7684\u4e00\u534a[[YELLOW]]\u662f\u7528\u4f86\u6e05\u9664\u4e00\u5768\u602a\u7269\u7684\u5fc5\u5099\u7d55\u62db.
p1795
sg5
V[[DARK_AQUA]]How does Skull Splitter work?\u005cn[[YELLOW]]This ability allows you to deal an AoE (Area of Effect) hit.\u005cn[[YELLOW]]This AoE hit will deal half as much damage as you did to the\u005cn[[YELLOW]]main target, so it's great for clearing out large piles of mobs.
p1796
sg7
VGuides.Axes.Section.1
p1797
ssS'3587637'
p1798
(dp1799
g3
V[[DARK_AQUA]]\u5982\u4f55\u4fee\u5fa9?[[YELLOW]]\u624b\u6301\u8981\u4fee\u5fa9\u7684\u5de5\u5177\u5c0d\u9435\u78da\u9ede\u64ca\u53f3\u9375[[YELLOW]]\u6703\u6d88\u80171\u500b\u4e3b\u539f\u6599.
p1800
sg5
V[[DARK_AQUA]]How can I use Repair?\u005cn[[YELLOW]]Place down a mcMMO Anvil and right-click to repair the item \u005cn[[YELLOW]]you're currently holding. This consumes 1 item on every use.
p1801
sg7
VGuides.Repair.Section.1
p1802
ssS'791828'
p1803
(dp1804
g3
V\u96d9\u500d\u50b7\u5bb3
p1805
sg5
VDouble Damage
p1806
sg7
VAxes.Effect.3
p1807
ssS'3587631'
p1808
(dp1809
g3
V[[DARK_AQUA]]\u4ec0\u9ebc\u662f\u8d85\u7d1a\u4fee\u7406?[[YELLOW]]\u8d85\u7d1a\u4fee\u7406\u662f\u88ab\u52d5\u6280\u80fd. \u7576\u4fee\u7406\u4e00\u500b\u7269\u54c1\u6642,[[YELLOW]]\u73a9\u5bb6\u6709\u6a5f\u7387\u4fee\u5fa9\u5169\u500d\u8010\u4e45\u5ea6.
p1810
sg5
V[[DARK_AQUA]]How does Super Repair work?\u005cn[[YELLOW]]Super Repair is a passive ability. When repairing an item,\u005cn[[YELLOW]]it grants players a chance to repair an item with\u005cn[[YELLOW]]double effectiveness.
p1811
sg7
VGuides.Repair.Section.3
p1812
ssS'2211651'
p1813
(dp1814
g3
V\u795e\u72ac
p1815
sg5
VHoly Hound
p1816
sg7
VTaming.Ability.Bonus.10
p1817
ssS'791986'
p1818
(dp1819
g3
V\u72fc\u6703\u907f\u958b\u5371\u96aa
p1820
sg5
VWolves avoid danger
p1821
sg7
VTaming.Ability.Bonus.1
p1822
ssS'3587632'
p1823
(dp1824
g3
V[[DARK_AQUA]]\u4ec0\u9ebc\u662f\u5f37\u529b\u653b\u64ca?[[YELLOW]]\u5728\u653b\u64ca\u73a9\u5bb6\u6216\u602a\u7269\u6642\u6709\u88ab\u52d5\u6a5f\u7387\u70b8\u98db\u5c0d\u624b[[YELLOW]]\u9810\u8a2d\u6a5f\u7387\u70ba25%. \u70b8\u98db\u6548\u679c\u76f8\u7576\u65bc\u64ca\u9000II\u7684\u9644\u9b54[[YELLOW]]\u5916\u52a0\u5c0d\u76ee\u6a19\u7684\u52a0\u4e58\u653b\u64ca.
p1825
sg5
V[[DARK_AQUA]]How does Greater Impact work?\u005cn[[YELLOW]]You have a passive chance to achieve a greater impact when\u005cn[[YELLOW]]hitting mobs or players with your axe.\u005cn[[YELLOW]]By default this chance is 25%. This passive ability has an\u005cn[[YELLOW]]extreme knockback effect, similar to the Knockback II\u005cn[[YELLOW]]enchantment. In addition, it deals bonus damage to the target.
p1826
sg7
VGuides.Axes.Section.5
p1827
ssS'3587666'
p1828
(dp1829
g3
V[[DARK_AQUA]]\u4ec0\u9ebc\u662f\u99b4\u7378\u4e4b\u80fd?[[YELLOW]]\u99b4\u7378\u4e4b\u80fd\u8b93\u4f60\u5bdf\u89ba\u5bf5\u7269\u7684\u72c0\u614b,[[YELLOW]]\u5c0d\u5bf5\u7269\u9ede\u64ca\u5de6\u9375\u5c31\u80fd\u4f7f\u7528\u9019\u9805\u80fd\u529b.
p1830
sg5
V[[DARK_AQUA]]How does Beast Lore work?\u005cn[[YELLOW]]Beast Lore allows players to inspect pets and to check the\u005cn[[YELLOW]]stats of wolves and ocelots. Left-click a wolf or ocelot to use\u005cn[[YELLOW]]Beast Lore.
p1831
sg7
VGuides.Taming.Section.2
p1832
ssS'792133'
p1833
(dp1834
g3
V+50%\u50b7\u5bb3 \u80fd\u7834\u58de\u786c\u5ea6\u4f4e\u7684\u65b9\u584a
p1835
sg5
V+50% DMG, Breaks weak materials
p1836
sg7
VUnarmed.Effect.1
p1837
ssS'3587659'
p1838
(dp1839
g3
V[[DARK_AQUA]]\u4ec0\u9ebc\u662f\u7ffb\u6efe?[[YELLOW]]\u4f60\u6709\u4e00\u5b9a\u7684\u6a5f\u7387\u53ef\u4ee5\u6e1b\u514d\u5f9e\u9ad8\u8655\u589c\u843d[[YELLOW]]\u7684\u50b7\u5bb3. \u4f60\u53ef\u4ee5\u6309\u4f4f\u6f5b\u884c\u9375(\u9810\u8a2dshift)[[YELLOW]]\u4f86\u5f97\u5230\u96d9\u500d\u7684\u7ffb\u6efe\u6a5f\u7387.[[YELLOW]]\u9019\u5c07\u89f8\u767c\u5b8c\u7f8e\u8457\u9678\u800c\u4e0d\u53ea\u662f\u55ae\u7d14\u7684\u7ffb\u6efe.[[YELLOW]]\u5b8c\u7f8e\u8457\u9678\u6548\u679c\u8207\u7ffb\u6efe\u985e\u4f3c,\u4f46\u6709\u5169\u500d[[YELLOW]]\u7684\u89f8\u767c\u6a5f\u7387\u4e14\u53ef\u6e1b\u514d\u66f4\u591a\u50b7\u5bb3.[[YELLOW]]\u7ffb\u6efe\u6a5f\u7387\u95dc\u4fc2\u5230\u4f60\u7684\u96dc\u6280\u7b49\u7d1a.
p1840
sg5
V[[DARK_AQUA]]How does Rolling work?\u005cn[[YELLOW]]You have a passive chance when you take fall damage\u005cn[[YELLOW]]to negate the damage done. You can hold the sneak button to\u005cn[[YELLOW]]double your chances during the fall.\u005cn[[YELLOW]]This triggers a Graceful Roll instead of a standard one.\u005cn[[YELLOW]]Graceful Rolls are like regular rolls but are twice as likely to\u005cn[[YELLOW]]occur and provide more damage safety than regular rolls.\u005cn[[YELLOW]]Rolling chance is tied to your skill level
p1841
sg7
VGuides.Acrobatics.Section.1
p1842
ssS'3655332'
p1843
(dp1844
g3
V\u4e0d\u6b63\u78ba\u7684\u8840\u689d\u985e\u578b!
p1845
sg5
VInvalid healthbar type!
p1846
sg7
VCommands.Healthbars.Invalid
p1847
ssS'3655330'
p1848
(dp1849
g3
V[mcMMO] \u4f60\u7684\u8840\u689d\u986f\u793a\u6a21\u5f0f\u5df2\u66f4\u6539\u70ba  [[RED]]\u611b\u5fc3[[WHITE]].
p1850
sg5
V[mcMMO] Your healthbar display type was changed to [[RED]]Hearts[[WHITE]].
p1851
sg7
VCommands.Healthbars.Changed.HEARTS
p1852
ssS'3655331'
p1853
(dp1854
g3
V[[DARK_AQUA]]\u4ec0\u9ebc\u662f\u5782\u91e3\u5927\u5e2b?[[YELLOW]]\u9019\u500b\u88ab\u52d5\u6280\u80fd\u5c07\u589e\u52a0\u4e0a\u9264\u7684\u6a5f\u7387.[[YELLOW]]\u7576\u4f60\u7372\u5f97\u9019\u500b\u80fd\u529b, \u5728\u8239\u4e0a\u6216\u6d77\u6d0b\u751f\u614b[[YELLOW]]\u91e3\u9b5a\u5c07\u6703\u7372\u5f97\u96d9\u500d\u4e0a\u9264\u6a5f\u7387.
p1855
sg5
V[[DARK_AQUA]]How does Master Angler work?\u005cn[[YELLOW]]This passive skill increases the bite chance while fishing.\u005cn[[YELLOW]]When you've unlocked this ability, fishing while in\u005cn[[YELLOW]]a boat or when an ocean biome doubles the bite chance.
p1856
sg7
VGuides.Fishing.Section.3
p1857
ssS'3587664'
p1858
(dp1859
g3
V[[DARK_AQUA]]\u4ec0\u9ebc\u662f\u5229\u722a?[[YELLOW]]\u5229\u722a\u4f7f\u72fc\u7684\u653b\u64ca\u529b\u96a8\u8457\u99b4\u7378\u7b49\u7d1a[[YELLOW]]\u589e\u52a0\u800c\u589e\u52a0.
p1860
sg5
V[[DARK_AQUA]]How does Sharpened Claws work?\u005cn[[YELLOW]]Sharpened Claws provides a damage bonus to damage dealt\u005cn[[YELLOW]]by wolves. The damage bonus depends on your Taming level.
p1861
sg7
VGuides.Taming.Section.4
p1862
ssS'3587657'
p1863
(dp1864
g3
V[[DARK_AQUA]]\u6316\u6398\u7684\u6ce8\u610f\u4e8b\u9805:[[YELLOW]]\u6316\u6398\u7684\u6389\u843d\u7269\u662f\u53ef\u96a8\u610f\u8abf\u6574\u7684,[[YELLOW]]\u4e0d\u540c\u4f3a\u670d\u5668\u5c07\u6709\u6240\u5dee\u7570.
p1865
sg5
V[[DARK_AQUA]]Notes about Excavation:\u005cn[[YELLOW]]Excavation drops are completely customizeable\u005cn[[YELLOW]]So results vary server to server.
p1866
sg7
VGuides.Excavation.Section.5
p1867
ssS'4068739'
p1868
(dp1869
g21
V[[RED]]\u968a\u4f0d\u7d93\u9a57\u5206\u4eab\u5c1a\u672a\u89e3\u9396.
p1870
sg23
V[[RED]]Party XP sharing is not unlocked yet.
p1871
sg25
VParty.Feature.Disabled.5
p1872
ssS'4068738'
p1873
(dp1874
g21
V[[RED]] \u5982\u6b32\u806f\u76df\u8acb\u8f38\u5165 [[DARK_AQUA]]/party alliance invite <player>[[RED]].
p1875
sg23
V[[RED]] to an alliance with [[DARK_AQUA]]/party alliance invite <player>[[RED]].
p1876
sg25
VCommands.Party.Alliance.Help.1
p1877
ssS'2209328'
p1878
(dp1879
g3
V[[RED]] [mcMMO]\u60a8\u6c92\u6709\u6b0a\u9650\u50b3\u9001\u5230\u4e16\u754c{0}.
p1880
sg5
V[[RED]][mcMMO] You do not have permission to teleport to the world {0}.
p1881
sg7
VCommands.ptp.NoWorldPermissions
p1882
ssS'3587656'
p1883
(dp1884
g3
V[[DARK_AQUA]]\u4ec0\u9ebc\u662f\u7da0\u5316?[[YELLOW]]\u7da0\u5316\u662f\u4e00\u500b\u4e3b\u52d5\u6280\u80fd, \u7576\u4f60\u624b\u6301\u92e4\u982d\u6642[[YELLOW]]\u9ede\u64ca\u53f3\u9375\u53ef\u767c\u52d5\u6280\u80fd. \u7da0\u5316\u63d0\u9ad8\u4e09\u88ab\u6536\u7a6b\u7684\u6a5f\u7387. [[YELLOW]]\u540c\u6642\u4e5f\u8b93\u73a9\u5bb6\u6709\u80fd\u529b\u4f7f\u7528\u8eab\u4e0a\u7684\u7a2e\u5b50\u4f86\u8f49\u5316[[YELLOW]]\u65b9\u584a\u4e26\u8ce6\u4e88\u751f\u547d.
p1885
sg5
V[[DARK_AQUA]]How does Green Terra work?\u005cn[[YELLOW]]Green Terra is an active ability, you can right-click\u005cn[[YELLOW]]while holding a hoe to activate Green Terra.\u005cn[[YELLOW]]Green Terra grants players a chance to get 3x drops from\u005cn[[YELLOW]]harvesting plants. It also gives players the ability to\u005cn[[YELLOW]]spread life into blocks and transform them using seeds\u005cn[[YELLOW]]from your inventory.
p1886
sg7
VGuides.Herbalism.Section.2
p1887
ssS'3587662'
p1888
(dp1889
g3
V[[DARK_AQUA]]\u4ec0\u9ebc\u662f\u6bdb\u76ae\u5f37\u5316?[[YELLOW]]\u9019\u662f\u4e00\u500b\u88ab\u52d5\u6280\u80fd\u80fd\u8b93\u72fc[[YELLOW]]\u53d7\u5230\u653b\u64ca\u6216\u71c3\u71d2\u6642\u6e1b\u514d\u50b7\u5bb3.
p1890
sg5
V[[DARK_AQUA]]How does Thick Fur work?\u005cn[[YELLOW]]This passive ability will reduce damage and make wolves\u005cn[[YELLOW]]fire resistant.
p1891
sg7
VGuides.Taming.Section.6
p1892
ssS'4068737'
p1893
(dp1894
g21
V[[RED]]\u9019\u500b\u968a\u4f0d\u4e26\u4e0d\u5c6c\u65bc\u4efb\u4f55\u806f\u76df. \u9080\u8acb\u4e00\u500b\u968a\u9577
p1895
sg23
V[[RED]]This party hasn't formed an alliance. Invite a party leader
p1896
sg25
VCommands.Party.Alliance.Help.0
p1897
ssS'4068736'
p1898
(dp1899
g21
V\u968a\u4f0d\u804a\u5929
p1900
sg23
VParty Chat
p1901
sg25
VParty.Feature.Chat
p1902
ssS'4068735'
p1903
(dp1904
g21
V\u7d93\u9a57\u5206\u4eab
p1905
sg23
VXP Sharing
p1906
sg25
VParty.Feature.XpShare
p1907
ssS'3587663'
p1908
(dp1909
g3
V[[DARK_AQUA]]\u4ec0\u9ebc\u662f\u5371\u6a5f\u610f\u8b58?[[YELLOW]]\u9019\u500b\u88ab\u52d5\u6280\u80fd\u80fd\u8b93\u72fc\u5728\u9047\u5230\u5371\u96aa\u6642[[YELLOW]]\u8fc5\u901f\u56de\u5230\u4f60\u8eab\u908a(\u5982\u4ed9\u4eba\u638c\u6216\u5ca9\u6f3f),[[YELLOW]]\u4e5f\u53ef\u4ee5\u6e1b\u514d\u6454\u843d\u50b7\u5bb3.
p1910
sg5
V[[DARK_AQUA]]How does Environmentally Aware work?\u005cn[[YELLOW]]This passive ability will allow wolves to teleport to you when\u005cn[[YELLOW]]they get near hazards, such as Cacti/Lava. It will also give\u005cn[[YELLOW]]wolves fall damage immunity.
p1911
sg7
VGuides.Taming.Section.5
p1912
ssS'3790746'
p1913
(dp1914
g21
V[[WHITE]]{0} [[DARK_GRAY]] \u8207 [[WHITE]]{1} [[DARK_GRAY]]\u7d50\u76df
p1915
sg23
V[[WHITE]]{0} [[DARK_GRAY]]IS ALLIED WITH: [[WHITE]]{1}
p1916
sg25
VCommands.Party.Alliance.Ally
p1917
ssS'3790744'
p1918
(dp1919
g21
V[[GREEN]]\u5df2\u63a5\u53d7\u806f\u76df\u9080\u8acb.
p1920
sg23
V[[GREEN]]Alliance invite Accepted.
p1921
sg25
VCommands.Party.Alliance.Invite.Accepted
p1922
ssS'3790743'
p1923
(dp1924
g21
V[[RED]]-----[][[GREEN]]\u806f\u76df\u6210\u54e1[[RED]][]-----
p1925
sg23
V[[RED]]-----[][[GREEN]]ALLIANCE MEMBERS[[RED]][]-----
p1926
sg25
VCommands.Party.Alliance.Members.Header
p1927
ssS'945278'
p1928
(dp1929
g3
V[[DARK_RED]] \u4f60\u6b63\u5728\u6d41\u8840!
p1930
sg5
V[[DARK_RED]] You're bleeding!
p1931
sg7
VSwords.Combat.Bleeding.Started
p1932
ssS'791849'
p1933
(dp1934
g3
V[[GREEN]]\u4f60\u7684 [[YELLOW]]\u5272\u88c2\u65ac [[GREEN]]\u6280\u80fd\u5df2\u53ef\u4f7f\u7528!
p1935
sg5
V[[GREEN]]Your [[YELLOW]]Serrated Strikes [[GREEN]]ability is refreshed!
p1936
sg7
VSwords.Skills.SS.Refresh
p1937
ssS'3587661'
p1938
(dp1939
g3
V[[DARK_AQUA]]\u4ec0\u9ebc\u662f\u885d\u64ca\u683c\u64cb?[[YELLOW]]\u9019\u662f\u4e00\u500b\u88ab\u52d5\u6280\u80fd,\u8b93\u72fc\u7fa4[[YELLOW]]\u6e1b\u514d\u7206\u70b8\u50b7\u5bb3.
p1940
sg5
V[[DARK_AQUA]]How does Shock Proof work?\u005cn[[YELLOW]]This passive ability reduces damage done to wolves\u005cn[[YELLOW]]from explosions.
p1941
sg7
VGuides.Taming.Section.7
p1942
ssS'3790749'
p1943
(dp1944
g21
V[[DARK_RED]]{0} \u4e0d\u662f\u968a\u9577.
p1945
sg23
V[[DARK_RED]]{0} is not the party leader.
p1946
sg25
VParty.Target.NotOwner
p1947
ssS'3790748'
p1948
(dp1949
g21
V[[DARK_GRAY]]\u806f\u76df: [[WHITE]]{0}
p1950
sg23
V[[DARK_GRAY]]ALLY: [[WHITE]]{0}
p1951
sg25
VCommands.Party.Status.Alliance
p1952
ssS'3665278'
p1953
(dp1954
g3
V[[YELLOW]]{0}[[GREEN]]{1}
p1955
sg5
V[[YELLOW]]{0}[[GREEN]]{1}
p1956
sg7
VSkills.ChildStats
p1957
ssS'3587651'
p1958
(dp1959
g3
V[[DARK_AQUA]]\u4ec0\u9ebc\u662f\u8fb2\u592b\u79c1\u623f\u83dc?[[YELLOW]]\u9019\u662f\u4e00\u500b\u88ab\u52d5\u6280\u80fd, \u53ef\u589e\u52a0\u4e0b\u5217\u98df\u7269\u7684\u98fd\u98df\u5ea6\u56de\u5fa9 -[[YELLOW]]\u9eb5\u5305, \u9905\u4e7e, \u897f\u74dc, \u8611\u83c7\u6e6f, \u80e1\u863f\u8514, \u99ac\u9234\u85af.
p1960
sg5
V[[DARK_AQUA]]How does Farmer's Diet work?\u005cn[[YELLOW]]This passive skill increases the amount of hunger restored \u005cn[[YELLOW]]when eating Bread, Cookies, Melons, Mushroom Soup, Carrots,\u005cn[[YELLOW]]and Potatoes.
p1961
sg7
VGuides.Herbalism.Section.5
p1962
ssS'792150'
p1963
(dp1964
g3
V\u7da0\u624b\u6307 (\u5c0f\u9ea5)
p1965
sg5
VGreen Thumb (Wheat)
p1966
sg7
VHerbalism.Effect.2
p1967
ssS'3587650'
p1968
(dp1969
g3
V[[DARK_AQUA]]\u4ec0\u9ebc\u662f\u64ca\u843d\u6b66\u5668?[[YELLOW]]\u9019\u500b\u88ab\u52d5\u6280\u80fd\u8b93\u73a9\u5bb6\u89e3\u9664\u5176\u4ed6\u73a9\u5bb6\u7684\u6b66\u88dd,[[YELLOW]]\u4f7f\u76ee\u6a19\u6240\u88dd\u5099\u7684\u7269\u54c1\u6389\u843d\u5230\u5730\u4e0a.
p1970
sg5
V[[DARK_AQUA]]How does Disarm work?\u005cn[[YELLOW]]This passive ability allows players to disarm other players,\u005cn[[YELLOW]]causing the target's equipped item to fall to the ground.
p1971
sg7
VGuides.Unarmed.Section.5
p1972
ssS'791959'
p1973
(dp1974
g3
V\u8349\u85e5\u5b78
p1975
sg5
VHERBALISM
p1976
sg7
VHerbalism.SkillName
p1977
ssS'2190051'
p1978
(dp1979
g3
V\u89c0\u770b\u5176\u5b83\u4f7f\u7528\u8005\u7684\u8a73\u7d30mcMMO\u8cc7\u8a0a
p1980
sg5
VView detailed mcMMO info on another player
p1981
sg7
VCommands.Description.inspect
p1982
ssS'792074'
p1983
(dp1984
g3
V\u76ee\u6a19\u5df2\u88ab [[DARK_RED]] \u64ca\u6688
p1985
sg5
VTarget was [[DARK_RED]]Dazed
p1986
sg7
VCombat.TargetDazed
p1987
ssS'791854'
p1988
(dp1989
g3
V\u6709\u6a5f\u7387\u5f9e\u5c4d\u9ad4\u4e0a\u53d6\u5f97\u7bad\u77e2
p1990
sg5
VChance to retrieve arrows from corpses
p1991
sg7
VArchery.Effect.5
p1992
ssS'791855'
p1993
(dp1994
g3
V[[DARK_RED]]\u4f60\u6253\u51fa\u4e86\u6703\u5fc3\u4e00\u64ca!
p1995
sg5
V[[DARK_RED]]You were CRITICALLY hit!
p1996
sg7
VAxes.Combat.CritStruck
p1997
ssS'2124950'
p1998
(dp1999
g3
V[[RED]]\u968a\u4f0d\u5bc6\u78bc\u932f\u8aa4.
p2000
sg5
V[[RED]]Party password is incorrect.
p2001
sg7
VParty.Password.Incorrect
p2002
ssS'791919'
p2003
(dp2004
g3
V\u4f60\u7684\u8a0a\u606f
p2005
sg5
VYOUR STATS
p2006
sg7
VCommands.Stats.Self
p2007
ssS'791851'
p2008
(dp2009
g3
V\u6280\u8853\u5c04\u64ca
p2010
sg5
VSkill Shot
p2011
sg7
VArchery.Effect.0
p2012
ssS'791917'
p2013
(dp2014
g3
V[[RED]]\u5272\u88c2\u65ac\u6301\u7e8c\u6642\u9593: [[YELLOW]]{0}s
p2015
sg5
V[[RED]]Serrated Strikes Length: [[YELLOW]]{0}s
p2016
sg7
VSwords.SS.Length
p2017
ssS'791916'
p2018
(dp2019
g3
V[[DARK_AQUA]]\u64c1\u6709\u8005 ([[RED]]{0}[[DARK_AQUA]])
p2020
sg5
V[[DARK_AQUA]]Owner ([[RED]]{0}[[DARK_AQUA]])
p2021
sg7
VCombat.BeastLoreOwner
p2022
ssS'791915'
p2023
(dp2024
g3
V[[GRAY]]**\u4f60\u653e\u4e0b\u4e86\u4f60\u7684\u93df\u5b50**
p2025
sg5
V[[GRAY]]**YOU LOWER YOUR SHOVEL**
p2026
sg7
VExcavation.Ability.Lower
p2027
ssS'791914'
p2028
(dp2029
g3
V[[GREEN]]\u53ec\u63db\u5b8c\u7562
p2030
sg5
V[[GREEN]]Summoning complete
p2031
sg7
VTaming.Summon.Complete
p2032
ssS'791913'
p2033
(dp2034
g3
V[[GREEN]]**\u6280\u80fd\u51b7\u537b\u5b8c\u7562!**
p2035
sg5
V[[GREEN]]**ABILITIES REFRESHED!**
p2036
sg7
VAbility.Generic.Refresh
p2037
ssS'791858'
p2038
(dp2039
g3
V[[YELLOW]]\u4f10\u6728\u6280\u80fd\u4e0a\u5347\u4e86 {0}. \u7e3d\u7b49\u7d1a ({1})
p2040
sg5
V[[YELLOW]]Woodcutting skill increased by {0}. Total ({1})
p2041
sg7
VWoodcutting.Skillup
p2042
ssS'791859'
p2043
(dp2044
g3
V[[DARK_RED]]\u4f60\u53cd\u64ca\u4e86\u5c0d\u624b!
p2045
sg5
V[[DARK_RED]]Hit with a counter-attack!
p2046
sg7
VSwords.Combat.Counter.Hit
p2047
ssS'3785666'
p2048
(dp2049
g3
V[[GOLD]]\u6230\u9b25\u529b
p2050
sg5
V[[GOLD]]Power Level
p2051
sg7
VScoreboard.Misc.PowerLevel
p2052
ssS'3785667'
p2053
(dp2054
g3
V[[DARK_AQUA]]\u5df2\u6e05\u9664 mcMMO \u5f97\u5206\u699c.
p2055
sg5
V[[DARK_AQUA]]mcMMO scoreboard cleared.
p2056
sg7
VCommands.Scoreboard.Clear
p2057
ssS'3785664'
p2058
(dp2059
g3
V\u005c  [[RED]]{0}[[WHITE]] - [[GOLD]]\u5c1a\u9918 {1} \u79d2
p2060
sg5
V\u005c  [[RED]]{0}[[WHITE]] - [[GOLD]]{1} seconds left
p2061
sg7
VCommands.Cooldowns.Row.N
p2062
ssS'3785665'
p2063
(dp2064
g3
V[[YELLOW]]mcMMO \u72c0\u614b: {0}
p2065
sg5
V[[YELLOW]]mcMMO Stats: {0}
p2066
sg7
VScoreboard.Header.PlayerInspect
p2067
ssS'3785662'
p2068
(dp2069
g3
V\u67e5\u770b\u6240\u6709 mcMMO \u80fd\u529b\u7684\u51b7\u537b\u6642\u9593
p2070
sg5
VView all of the mcMMO ability cooldowns
p2071
sg7
VCommands.Description.mccooldown
p2072
ssS'3587668'
p2073
(dp2074
g3
V[[DARK_AQUA]]\u99b4\u7378[[YELLOW]]\u99b4\u7378\u6280\u80fd\u8b93\u73a9\u5bb6\u80fd\u5728\u7528\u72fc\u6230\u9b25\u6642[[YELLOW]]\u6642\u6709\u52a0\u4e58\u6548\u679c.[[DARK_AQUA]]\u7d93\u9a57\u7372\u53d6:[[YELLOW]]\u8981\u7372\u53d6\u7d93\u9a57,\u9808\u8a13\u670d\u72fc\u6216\u8c79\u8c93,[[YELLOW]]\u6216\u8207\u4f60\u7684\u72fc\u4e00\u540c\u6230\u9b25.
p2075
sg5
V[[DARK_AQUA]]About Taming:\u005cn[[YELLOW]]Taming will give players various combat bonuses when using\u005cn[[YELLOW]]tamed wolves.\u005cn\u005cn[[DARK_AQUA]]XP GAIN:\u005cn[[YELLOW]]To gain XP in this skill, you need to tame wolves/ocelots or\u005cn[[YELLOW]]get into combat with your wolves.
p2076
sg7
VGuides.Taming.Section.0
p2077
ssS'3785660'
p2078
(dp2079
g3
V[[DARK_AQUA]]/mcscoreboard[[AQUA]] keep [[WHITE]] - \u6301\u7e8c\u986f\u793a mcMMO \u5f97\u5206\u699c
p2080
sg5
V[[DARK_AQUA]]/mcscoreboard[[AQUA]] keep [[WHITE]] - keep the mcMMO scoreboard up
p2081
sg7
VCommands.Scoreboard.Help.2
p2082
ssS'2209180'
p2083
(dp2084
g3
V\u5207\u63dbmcMMO\u7684\u804a\u5929\u986f\u793a\u901a\u77e5 (\u958b/\u95dc)
p2085
sg5
VToggle mcMMO abilities chat display notifications on/off
p2086
sg7
VCommands.Description.mcnotify
p2087
ssS'3790738'
p2088
(dp2089
g21
V[[RED]]- \u52a0\u5165\u73a9\u5bb6\u7684\u968a\u4f0d\u88e1
p2090
sg23
V[[RED]]- Join a players party
p2091
sg25
VCommands.Party.2
p2092
ssS'3587669'
p2093
(dp2094
g3
V[[DARK_AQUA]]\u4ec0\u9ebc\u662f\u5bf6\u7269\u7375\u4eba?[[YELLOW]]\u6240\u6709\u5bf6\u7269\u90fd\u6709\u81ea\u5df1\u7684\u6700\u4f4e\u6389\u843d\u7b49\u7d1a[[YELLOW]]\u6240\u4ee5\u5bf6\u7269\u5c0d\u4f60\u4e0d\u898b\u5f97\u6709\u7528.[[YELLOW]]\u53ea\u9700\u8981 \u8a18\u5f97\u6108\u6316\u6398\u7b49\u7d1a\u6108\u9ad8,[[YELLOW]]\u5c31\u80fd\u6316\u9053\u6108\u591a\u5bf6.[[YELLOW]]\u9084\u6709\u6bcf\u4e00\u7a2e\u4e0d\u540c\u7684\u6750\u8cea,[[YELLOW]]\u53ef\u80fd\u6389\u51fa\u4f86\u7684\u5bf6\u7269\u90fd\u4e0d\u540c.[[YELLOW]]\u63db\u53e5\u8a71\u8aaa\u4f60\u80fd\u5f9e\u571f\u88e1\u6316\u51fa\u6bd4\u792b\u77f3[[YELLOW]]\u66f4\u591a\u7a2e\u985e\u7684\u5bf6\u7269.
p2095
sg5
V[[DARK_AQUA]]How does Treasure Hunter work?\u005cn[[YELLOW]]Every possible treasure for Excavation has its own\u005cn[[YELLOW]]skill level requirement for it to drop, as a result it's\u005cn[[YELLOW]]difficult to say how much it is helping you.\u005cn[[YELLOW]]Just keep in mind that the higher your Excavation skill\u005cn[[YELLOW]]is, the more treasures that can be found.\u005cn[[YELLOW]]And also keep in mind that each type of Excavation\u005cn[[YELLOW]]compatible material has its own unique list of treasures.\u005cn[[YELLOW]]In other words you will find different treasures in Dirt\u005cn[[YELLOW]]than you would in Gravel.
p2096
sg7
VGuides.Excavation.Section.4
p2097
ssS'4083329'
p2098
(dp2099
g239
V[[RED]]\u8abf\u914d\u7b49\u7d1a: [[YELLOW]]{0}/{1}
p2100
sg241
V[[RED]]Concoctions Rank: [[YELLOW]]{0}/{1}
p2101
sg243
VAlchemy.Concoctions.Rank
p2102
ssS'4078493'
p2103
(dp2104
g3
V[[GREEN]]\u5982\u6b32\u50b3\u9001, \u8f38\u5165 [[YELLOW]]/ptp accept[[GREEN]]. \u8acb\u6c42\u5c07\u5728 [[RED]]{0} [[GREEN]]\u79d2\u5f8c\u5931\u6548.
p2105
sg5
V[[GREEN]]To teleport, type [[YELLOW]]/ptp accept[[GREEN]]. Request expires in [[RED]]{0} [[GREEN]]seconds.
p2106
sg7
VCommands.ptp.Request2
p2107
ssS'792039'
p2108
(dp2109
g3
V[[RED]]\u4f60\u6c92\u6709\u6536\u5230\u4efb\u4f55\u968a\u4f0d\u9080\u8acb
p2110
sg5
V[[RED]]You have no invites at this time
p2111
sg7
VmcMMO.NoInvites
p2112
ssS'2124960'
p2113
(dp2114
g3
V[[RED]]{0} \u56e0\u70ba {1} \u800c\u4fee\u6539.
p2115
sg5
V[[RED]]{0} has been modified for {1}.
p2116
sg7
VCommands.addlevels.AwardSkill.2
p2117
ssS'791818'
p2118
(dp2119
g3
V\u8d85\u7d1a\u4fee\u7406
p2120
sg5
VSuper Repair
p2121
sg7
VRepair.Effect.4
p2122
ssS'791796'
p2123
(dp2124
g3
V[[GREEN]][mcMMO] \u72c0\u614b
p2125
sg5
V[[GREEN]][mcMMO] Stats
p2126
sg7
VStats.Own.Stats
p2127
ssS'2160035'
p2128
(dp2129
g3
V\u7d93\u9a57\u503c
p2130
sg5
VEXP
p2131
sg7
VParty.ShareType.Exp
p2132
ssS'2137880'
p2133
(dp2134
g3
V+{0} \u50b7\u5bb3
p2135
sg5
V+{0} Damage
p2136
sg7
VTaming.Ability.Bonus.7
p2137
ssS'792137'
p2138
(dp2139
g3
V\u4f7f\u4f60\u7684\u88dd\u7532\u96a8\u6642\u9593\u589e\u52a0\u800c\u589e\u5f37
p2140
sg5
VHardens your arm over time
p2141
sg7
VUnarmed.Effect.5
p2142
ssS'4091452'
p2143
(dp2144
g1002
V[[DARK_AQUA]]\u8abf\u914d\u7b2c4\u968e\u6bb5:\u005cn[[YELLOW]]\u860b\u679c(Apple) - \u751f\u547d\u503c\u85e5\u6c34(Potion of Health Boost)\u005cn[[YELLOW]]\u8150\u8089(Rotten Flesh) - \u98e2\u9913\u85e5\u6c34(Potion of Hunger)\u005cn\u005cn[[DARK_AQUA]]\u8abf\u914d\u7b2c 5 \u968e\u6bb5:\u005cn[[YELLOW]]\u68d5\u8611\u83c7(Brown Mushroom) - \u5641\u5fc3\u85e5\u6c34(Potion of Nausea)\u005cn[[YELLOW]]\u58a8\u56ca(Ink Sack) - \u5931\u660e\u85e5\u6c34(Potion of Blindness)
p2145
sg1004
V[[DARK_AQUA]]Concotions tier 4 ingredients:\u005cn[[YELLOW]]Apple (Potion of Health Boost)\u005cn[[YELLOW]]Rotten Flesh (Potion of Hunger)\u005cn\u005cn[[DARK_AQUA]]Concotions tier 5 ingredients:\u005cn[[YELLOW]]Brown Mushroom (Potion of Nausea)\u005cn[[YELLOW]]Ink Sack (Potion of Blindness)
p2146
sg1006
VGuides.Alchemy.Section.5
p2147
ssS'4091453'
p2148
(dp2149
g1002
V[[DARK_AQUA]]\u8abf\u914d\u7b2c2\u968e\u6bb5:\u005cn[[YELLOW]]\u80e1\u863f\u8514(Carrot) - \u901f\u6398\u85e5\u6c34(Potion of Haste)\u005cn[[YELLOW]]\u53f2\u840a\u59c6\u7403(Slimeball) - \u9072\u7de9\u85e5\u6c34(Potion of Dullness)\u005cn\u005cn[[DARK_AQUA]]\u8abf\u914d\u7b2c3\u968e\u6bb5:\u005cn[[YELLOW]]\u77f3\u82f1(Quartz) - \u50b7\u5bb3\u5438\u6536\u85e5\u6c34(Potion of Absorption)\u005cn[[YELLOW]]\u7d05\u8611\u83c7(Red Mushroom) - \u8df3\u8e8d\u85e5\u6c34(Potion of Leaping)
p2150
sg1004
V[[DARK_AQUA]]Concotions tier 2 ingredients:\u005cn[[YELLOW]]Carrot (Potion of Haste)\u005cn[[YELLOW]]Slimeball (Potion of Dullness)\u005cn\u005cn[[DARK_AQUA]]Concotions tier 3 ingredients:\u005cn[[YELLOW]]Quartz (Potion of Absorption)\u005cn[[YELLOW]]Red Mushroom (Potion of Leaping)
p2151
sg1006
VGuides.Alchemy.Section.4
p2152
ssS'4091454'
p2153
(dp2154
g1002
V[[DARK_AQUA]]\u8abf\u914d\u7b2c 6 \u968e\u6bb5:\u005cn[[YELLOW]]\u8568(Fern) - \u98fd\u98df\u85e5\u6c34(Potion of Saturation)\u005cn\u005cn[[DARK_AQUA]]\u8abf\u914d\u7b2c 7 \u968e\u6bb5:\u005cn[[YELLOW]]\u6bd2\u99ac\u9234\u85af(Poisonous Potato) - \u8150\u673d\u85e5\u6c34(Potion of Decay)\u005cn\u005cn[[DARK_AQUA]]\u8abf\u914d\u7b2c 8 \u968e\u6bb5:\u005cn[[YELLOW]]\u4e00\u822c\u91d1\u860b\u679c(Regular Golden Apple) - \u6297\u6027\u85e5\u6c34(Potion of Resistance)
p2155
sg1004
V[[DARK_AQUA]]Concotions tier 6 ingredients:\u005cn[[YELLOW]]Fern (Potion of Saturation)\u005cn\u005cn[[DARK_AQUA]]Concotions tier 7 ingredients:\u005cn[[YELLOW]]Poisonous Potato (Potion of Decay)\u005cn\u005cn[[DARK_AQUA]]Concotions tier 8 ingredients:\u005cn[[YELLOW]]Regular Golden Apple (Potion of Resistance)
p2156
sg1006
VGuides.Alchemy.Section.6
p2157
ssS'791989'
p2158
(dp2159
g21
V[[GREEN]]--\u7d44\u968a\u6307\u4ee4--
p2160
sg23
V[[GREEN]]--PARTY COMMANDS--
p2161
sg25
VCommands.Party.Commands
p2162
ssS'792030'
p2163
(dp2164
g3
V[[GREEN]]**\u4f60\u7dca\u63e1\u8457\u4f60\u7684\u62f3\u982d**
p2165
sg5
V[[GREEN]]**YOU READY YOUR FISTS**
p2166
sg7
VUnarmed.Ability.Ready
p2167
ssS'3587639'
p2168
(dp2169
g3
V[[DARK_AQUA]]\u4ec0\u9ebc\u662f\u5feb\u9910\u670d\u52d9?[[YELLOW]]\u9019\u662f\u4e00\u500b\u88ab\u52d5\u6280\u80fd,\u8b93\u72fc\u7fa4\u5728\u653b\u64ca\u6642[[YELLOW]]\u6709\u6a5f\u7387\u56de\u5fa9\u8840\u91cf.
p2170
sg5
V[[DARK_AQUA]]How does Fast Food Service work?\u005cn[[YELLOW]]This passive ability gives wolves a chance to heal whenever\u005cn[[YELLOW]]they perform an attack.
p2171
sg7
VGuides.Taming.Section.8
p2172
ssS'2158640'
p2173
(dp2174
g3
V[[RED]]-----[][[GREEN]]\u6210\u54e1[[RED]][]-----
p2175
sg5
V[[RED]]-----[][[GREEN]]MEMBERS[[RED]][]-----
p2176
sg7
VCommands.Party.Members.Header
p2177
ssS'791826'
p2178
(dp2179
g3
V\u589e\u52a0\u984d\u5916\u50b7\u5bb3
p2180
sg5
VAdds bonus DMG
p2181
sg7
VAxes.Effect.5
p2182
ssS'791779'
p2183
(dp2184
g3
V[[RED]]\u5272\u88c2\u65ac[[GREEN]] \u5373\u5c07\u7d50\u675f [[YELLOW]]{0}
p2185
sg5
V[[RED]]Serrated Strikes[[GREEN]] has worn off for [[YELLOW]]{0}
p2186
sg7
VSwords.Skills.SS.Other.Off
p2187
ssS'791778'
p2188
(dp2189
g3
V[[RED]]\u4f60\u96e2\u958b\u4e86\u9019\u652f\u968a\u4f0d
p2190
sg5
V[[RED]]You have left that party
p2191
sg7
VCommands.Party.Leave
p2192
ssS'791773'
p2193
(dp2194
g3
V[[GREEN]]\u4f60\u7684 [[YELLOW]]\u5288\u9871\u65ac [[GREEN]]\u80fd\u529b\u5df2\u53ef\u4f7f\u7528\uff01
p2195
sg5
V[[GREEN]]Your [[YELLOW]]Skull Splitter [[GREEN]]ability is refreshed!
p2196
sg7
VAxes.Skills.SS.Refresh
p2197
ssS'791772'
p2198
(dp2199
g3
V[[GREEN]]{0} \u5df2\u7d93\u50b3\u9001\u5230\u4f60\u8eab\u908a.
p2200
sg5
V[[GREEN]]{0} has teleported to you.
p2201
sg7
VParty.Teleport.Target
p2202
ssS'791771'
p2203
(dp2204
g3
V[[GREEN]]\u63a5\u53d7\u9080\u8acb\uff0c\u4f60\u52a0\u5165\u4e86\u968a\u4f0d {0}
p2205
sg5
V[[GREEN]]Invite Accepted. You have joined party {0}
p2206
sg7
VCommands.Invite.Accepted
p2207
ssS'2093993'
p2208
(dp2209
g3
V\u9396\u5b9a\u76f4\u5230\u6280\u80fd {0}+  (\u5371\u6a5f\u610f\u8b58)
p2210
sg5
VLOCKED UNTIL {0}+ SKILL (ENVIRONMENTALLY AWARE)
p2211
sg7
VTaming.Ability.Locked.0
p2212
ssS'791776'
p2213
(dp2214
g3
V\u640f\u64ca:
p2215
sg5
VUnarmed:
p2216
sg7
VUnarmed.Listener
p2217
ssS'791775'
p2218
(dp2219
g3
V[[DARK_AQUA]]\u751f\u547d\u503c ([[GREEN]]{0}[[DARK_AQUA]]/{1})
p2220
sg5
V[[DARK_AQUA]]Health ([[GREEN]]{0}[[DARK_AQUA]]/{1})
p2221
sg7
VCombat.BeastLoreHealth
p2222
ssS'791774'
p2223
(dp2224
g3
V[[RED]]\u9019\u500b\u6307\u4ee4\u88ab\u7981\u7528\u4e86.
p2225
sg5
V[[RED]]This command is disabled.
p2226
sg7
VCommands.Disabled
p2227
ssS'2160037'
p2228
(dp2229
g3
V\u96a8\u6a5f
p2230
sg5
VRANDOM
p2231
sg7
VParty.ShareMode.Random
p2232
ssS'2211654'
p2233
(dp2234
g3
V\u9396\u5b9a\u76f4\u5230\u6280\u80fd {0}+ (\u795e\u72ac)
p2235
sg5
VLOCKED UNTIL {0}+ SKILL (HOLY HOUND)
p2236
sg7
VTaming.Ability.Locked.5
p2237
ssS'3633770'
p2238
(dp2239
g3
V[[DARK_AQUA]]\u4ec0\u9ebc\u662f\u51b0\u91e3?[[YELLOW]]\u9019\u500b\u88ab\u52d5\u6280\u80fd\u8b93\u4f60\u5728\u51b0\u6e56\u4e0a\u6355\u9b5a![[YELLOW]]\u5728\u51b0\u6e56\u4e0a\u7529\u52d5\u4f60\u7684\u91e3\u7aff[[YELLOW]]\u5c07\u6703\u5728\u51b0\u4e0a\u88fd\u9020\u51fa\u53ef\u4f9b\u91e3\u9b5a\u7684\u5c0f\u6d1e.
p2240
sg5
V[[DARK_AQUA]]How does Ice Fishing work?\u005cn[[YELLOW]]This passive skill allows you to fish in ice lakes!\u005cn[[YELLOW]]Cast your fishing rod in an ice lake and the ability will\u005cn[[YELLOW]]create a small hole in the ice to fish in.
p2241
sg7
VGuides.Fishing.Section.2
p2242
ssS'791815'
p2243
(dp2244
g3
V[[RED]]\u5288\u9871\u65ac\u6301\u7e8c\u6642\u9593: [[YELLOW]]{0}s
p2245
sg5
V[[RED]]Skull Splitter Length: [[YELLOW]]{0}s
p2246
sg7
VAxes.Combat.SS.Length
p2247
ssS'792057'
p2248
(dp2249
g3
V[[YELLOW]]{0}[[GREEN]]{1}[[DARK_AQUA]] XP([[GRAY]]{2}[[DARK_AQUA]]/[[GRAY]]{3}[[DARK_AQUA]])
p2250
sg5
V[[YELLOW]]{0}[[GREEN]]{1}[[DARK_AQUA]] XP([[GRAY]]{2}[[DARK_AQUA]]/[[GRAY]]{3}[[DARK_AQUA]])
p2251
sg7
VSkills.Stats
p2252
ssS'2093979'
p2253
(dp2254
g3
V\u6536\u6210\u6642\u81ea\u52d5\u7a2e\u690d\u5c0f\u9ea5
p2255
sg5
VAuto-Plants crops when harvesting
p2256
sg7
VHerbalism.Effect.3
p2257
ssS'791983'
p2258
(dp2259
g3
V\u5feb\u9910\u670d\u52d9
p2260
sg5
VFast Food Service
p2261
sg7
VTaming.Ability.Bonus.8
p2262
ssS'791987'
p2263
(dp2264
g3
V\u5371\u6a5f\u610f\u8b58
p2265
sg5
VEnvironmentally Aware
p2266
sg7
VTaming.Ability.Bonus.0
p2267
ssS'2211650'
p2268
(dp2269
g3
V\u7576\u88ab\u6cd5\u8853\u653b\u64ca\u6216\u4e2d\u6bd2\u6642\u6062\u5fa9\u751f\u547d\u503c
p2270
sg5
VRegain health when damaged by magic or poison
p2271
sg7
VTaming.Ability.Bonus.11
p2272
ssS'3587630'
p2273
(dp2274
g3
V[[DARK_AQUA]]\u5982\u4f55\u4f7f\u7528\u7206\u7834\u6316\u6398:[[YELLOW]]\u624b\u6301\u6253\u706b\u77f3, \u9810\u8a2d\u7531\u71e7\u77f3\u53ca\u9435\u9320\u7d44\u6210,[[YELLOW]]\u8e72\u4e0b\u4e26\u7528\u53f3\u9375\u9ede\u53caTNT. \u9019\u6703\u4f7fTNT[[YELLOW]]\u76f4\u63a5\u7206\u70b8, \u6700\u597d\u7ad9\u9060\u4e00\u9ede.
p2275
sg5
V[[DARK_AQUA]]How to use Blast Mining:\u005cn[[YELLOW]]With a detonator in hand, which is a flint & steel by default,\u005cn[[YELLOW]]crouch and right-click on TNT from a distance. This will cause the TNT\u005cn[[YELLOW]]to instantly explode.
p2276
sg7
VGuides.Mining.Section.4
p2277
ssS'3587652'
p2278
(dp2279
g3
V[[DARK_AQUA]]\u4ec0\u9ebc\u662f\u96d9\u500d\u6389\u843d?[[YELLOW]]\u9019\u662f\u4e00\u500b\u88ab\u52d5\u6280\u80fd\u4f7f\u73a9\u5bb6\u80fd\u52a0\u500d\u6536\u7372.
p2280
sg5
V[[DARK_AQUA]]How do Double Drops work?\u005cn[[YELLOW]]This passive ability gives players more yield from their\u005cn[[YELLOW]]harvests.
p2281
sg7
VGuides.Herbalism.Section.7
p2282
ssS'2211652'
p2283
(dp2284
g3
V\u795e\u72ac
p2285
sg5
VHoly Hound
p2286
sg7
VTaming.Effect.18
p2287
ssS'2211653'
p2288
(dp2289
g3
V\u6cd5\u8853&\u4e2d\u6bd2\u5c07\u6703\u89f8\u767c\u6cbb\u7642.
p2290
sg5
VHealed by Magic & Poison
p2291
sg7
VTaming.Effect.19
p2292
ssS'2115602'
p2293
(dp2294
g3
V[[RED]]\u6b64\u6280\u80fd\u6b63\u8655\u65bc\u51b7\u537b\u6642\u9593. [[YELLOW]]({0}s)
p2295
sg5
V[[RED]]You are too tired to use that ability again. [[YELLOW]]({0}s)
p2296
sg7
VSkills.TooTired
p2297
ssS'2160039'
p2298
(dp2299
g3
V\u5e73\u5206
p2300
sg5
VEQUAL
p2301
sg7
VParty.ShareMode.Equal
p2302
ssS'791708'
p2303
(dp2304
g3
V[[GOLD]]-=\u683c\u9b25\u6280\u80fd=-
p2305
sg5
V[[GOLD]]-=COMBAT SKILLS=-
p2306
sg7
VStats.Header.Combat
p2307
ssS'791709'
p2308
(dp2309
g3
V[[GRAY]]\u653e\u8840\u5df2[[GREEN]]\u505c\u6b62[[GRAY]]!
p2310
sg5
V[[GRAY]]The bleeding has [[GREEN]]stopped[[GRAY]]!
p2311
sg7
VSwords.Combat.Bleeding.Stopped
p2312
ssS'791706'
p2313
(dp2314
g3
V\u96dc\u6280
p2315
sg5
VACROBATICS
p2316
sg7
VAcrobatics.SkillName
p2317
ssS'791707'
p2318
(dp2319
g3
V\u6316\u6398\u77f3\u982d\u548c\u7926\u7269
p2320
sg5
VMining Stone & Ore
p2321
sg7
VCommands.XPGain.Mining
p2322
ssS'791704'
p2323
(dp2324
g3
V[[GRAY]]\u968a\u4f0d\u5df2\u89e3\u9396!
p2325
sg5
V[[GRAY]]Party is unlocked
p2326
sg7
VParty.Unlocked
p2327
ssS'791705'
p2328
(dp2329
g3
V[[GREEN]]**\u4f60\u63e1\u7dca\u8457\u4f60\u7684\u93ac\u5b50**
p2330
sg5
V[[GREEN]]**YOU READY YOUR PICKAXE**
p2331
sg7
VMining.Ability.Ready
p2332
ssS'791702'
p2333
(dp2334
g3
V[[RED]]\u9019\u4ef6\u7269\u54c1\u7684\u9644\u9b54\u5df2\u6d88\u5931!
p2335
sg5
V[[RED]]Arcane power has permanently left the item.
p2336
sg7
VRepair.Arcane.Fail
p2337
ssS'791703'
p2338
(dp2339
g3
V[[YELLOW]]\u6316\u7926\u6280\u80fd\u4e0a\u5347\u4e86 {0}. \u7e3d\u7b49\u7d1a  ({1})
p2340
sg5
V[[YELLOW]]Mining skill increased by {0}. Total ({1})
p2341
sg7
VMining.Skillup
p2342
ssS'792103'
p2343
(dp2344
g3
V[[GREEN]]{0}[[DARK_GREEN]] \u4f7f\u7528\u4e86 [[RED]]\u8d85\u7d1a\u788e\u77f3\u6a5f!
p2345
sg5
V[[GREEN]]{0}[[DARK_GREEN]] has used [[RED]]Super Breaker!
p2346
sg7
VMining.Skills.SuperBreaker.Other.On
p2347
ssS'791701'
p2348
(dp2349
g3
V[[RED]]{0}: [[YELLOW]]{1}
p2350
sg5
V[[RED]]{0}: [[YELLOW]]{1}
p2351
sg7
VAbility.Generic.Template
p2352
ssS'791864'
p2353
(dp2354
g3
V\u65a7\u6280
p2355
sg5
VAXES
p2356
sg7
VAxes.SkillName
p2357
ssS'2093975'
p2358
(dp2359
g3
V\u56de\u6536 ({0}+ SKILL)
p2360
sg5
VSalvage ({0}+ SKILL)
p2361
sg7
VRepair.Effect.16
p2362
ssS'791817'
p2363
(dp2364
g3
V\u96d9\u500d\u6548\u679c
p2365
sg5
VDouble effectiveness
p2366
sg7
VRepair.Effect.5
p2367
ssS'2127513'
p2368
(dp2369
g3
V\u9019\u9801\u4e0d\u5b58\u5728, \u7e3d\u5171\u53ea\u6709 {0} \u9801.
p2370
sg5
VThat page does not exist, there are only {0} total pages.
p2371
sg7
VGuides.Page.OutOfRange
p2372
ssS'3746608'
p2373
(dp2374
g3
V[[GOLD]][mcMMO] [[DARK_RED]]\u56e0\u70ba\u6b7b\u4ea1\u4f60\u5931\u53bb\u4e86[[BLUE]]{0}[[DARK_RED]].
p2375
sg5
V[[GOLD]][mcMMO] [[DARK_RED]]You have lost [[BLUE]]{0}[[DARK_RED]] levels from death.
p2376
sg7
VHardcore.DeathStatLoss.PlayerDeath
p2377
ssS'2093974'
p2378
(dp2379
g3
V\u56de\u6536\u5de5\u5177\u548c\u88dd\u7532
p2380
sg5
VSalvage Tools & Armor
p2381
sg7
VRepair.Effect.17
p2382
ssS'3506431'
p2383
(dp2384
g3
V{0}s {1}
p2385
sg5
V{0}''s {1}
p2386
sg7
VTaming.Summon.Name.Format
p2387
ssS'3785659'
p2388
(dp2389
g3
V[[DARK_AQUA]]/mcscoreboard[[AQUA]] \u6642\u9593 [n] [[WHITE]] - \u5728 [[LIGHT_PURPLE]]n[[WHITE]] \u79d2\u4e4b\u5f8c\u6e05\u9664 McMMO \u5f97\u5206\u699c
p2390
sg5
V[[DARK_AQUA]]/mcscoreboard[[AQUA]] time [n] [[WHITE]] - clear the McMMO scoreboard after [[LIGHT_PURPLE]]n[[WHITE]] seconds
p2391
sg7
VCommands.Scoreboard.Help.3
p2392
ssS'3785658'
p2393
(dp2394
g3
V[[GOLD]] == [[RED]]/mcscoreboard [[GREEN]]\u8aaa\u660e [[GOLD]]==
p2395
sg5
V[[GOLD]] == [[GREEN]]Help for [[RED]]/mcscoreboard[[GOLD]] ==
p2396
sg7
VCommands.Scoreboard.Help.0
p2397
ssS'3785657'
p2398
(dp2399
g3
V[[DARK_AQUA]]/mcscoreboard[[AQUA]] clear [[WHITE]] - \u6e05\u9664 McMMO \u5f97\u5206\u699c
p2400
sg5
V[[DARK_AQUA]]/mcscoreboard[[AQUA]] clear [[WHITE]] - clear the McMMO scoreboard
p2401
sg7
VCommands.Scoreboard.Help.1
p2402
ssS'3785656'
p2403
(dp2404
g3
V[[YELLOW]]\u5269\u9918\u7d93\u9a57\u503c
p2405
sg5
V[[YELLOW]]Remaining XP
p2406
sg7
VScoreboard.Misc.RemainingXP
p2407
ssS'3785655'
p2408
(dp2409
g3
V[[GOLD]]\u5c0f\u6280\u5de7: \u8f38\u5165 [[RED]]/mcscoreboard clear[[GOLD]] \u4f86\u6e05\u9664\u5f97\u5206\u699c.
p2410
sg5
V[[GOLD]]Tip: Use [[RED]]/mcscoreboard clear[[GOLD]] to get rid of the scoreboard.
p2411
sg7
VCommands.Scoreboard.Tip.Clear
p2412
ssS'3785653'
p2413
(dp2414
g3
V[[RED]]\u6230\u9b25\u529b
p2415
sg5
V[[RED]]Power Level
p2416
sg7
VScoreboard.Header.PowerLevel
p2417
ssS'3785652'
p2418
(dp2419
g3
V[[YELLOW]]mcMMO \u72c0\u614b
p2420
sg5
V[[YELLOW]]mcMMO Stats
p2421
sg7
VScoreboard.Header.PlayerStats
p2422
ssS'3785651'
p2423
(dp2424
g3
V[[LIGHT_PURPLE]]\u51b7\u537b\u6642\u9593
p2425
sg5
V[[LIGHT_PURPLE]]Cooldown
p2426
sg7
VScoreboard.Misc.Cooldown
p2427
ssS'3785650'
p2428
(dp2429
g3
V\u6574\u9ad4
p2430
sg5
V[[GOLD]]Overall
p2431
sg7
VScoreboard.Misc.Overall
p2432
ssS'791953'
p2433
(dp2434
g3
V[[RED]]\u9b54\u6cd5\u7375\u4eba: [[GRAY]] ** \u96a8\u8457\u5bf6\u85cf\u7375\u4eba\u7b49\u7d1a\u63d0\u9ad8 **
p2435
sg5
V[[RED]]Magic Hunter: [[GRAY]] **Improves With Treasure Hunter Rank**
p2436
sg7
VFishing.Ability.Info
p2437
ssS'3587667'
p2438
(dp2439
g3
V[[DARK_AQUA]]\u4ec0\u9ebc\u662f\u7da0\u624b\u6307(\u5375\u77f3/\u77f3\u78da/\u571f)?[[YELLOW]]\u9019\u662f\u4e00\u500b\u4e3b\u52d5\u6280\u80fd,\u8b93\u4f60\u5728\u624b\u62ff\u8457\u7a2e\u5b50\u6642,[[YELLOW]]\u5c0d\u5375\u77f3/\u77f3\u78da/\u571f,\u9ede\u64ca\u53f3\u9375,\u53ef\u4f7f\u5b83\u5011\u8b8a\u6210[[YELLOW]]\u690d\u7269\u5f62\u614b,\u6703\u6d88\u8017\u4e00\u9846\u7a2e\u5b50.
p2440
sg5
V[[DARK_AQUA]]How does Green Thumb (Cobble/Stone Brick/Dirt) work?\u005cn[[YELLOW]]This active ability allows you to turn blocks into their\u005cn[[YELLOW]]"plant-related" counterparts. You can do this by right-clicking\u005cn[[YELLOW]]a block, while holding seeds. This will consume 1 seed.
p2441
sg7
VGuides.Herbalism.Section.4
p2442
ssS'791951'
p2443
(dp2444
g3
V\u653b\u64ca\u602a\u7269
p2445
sg5
VAttacking Monsters
p2446
sg7
VCommands.XPGain.Archery
p2447
ssS'3587665'
p2448
(dp2449
g3
V[[DARK_AQUA]]\u4ec0\u9ebc\u662f\u8840\u8165\u653b\u64ca?[[YELLOW]]\u8840\u8165\u653b\u64ca\u662f\u4e00\u500b\u4e3b\u52d5\u6280\u80fd,\u80fd\u9020\u6210[[YELLOW]]\u72fc\u7684\u653b\u64ca\u76ee\u6a19\u6709\u6a5f\u7387\u9677\u5165\u6d41\u8840\u72c0\u614b.
p2450
sg5
V[[DARK_AQUA]]How does Gore work?\u005cn[[YELLOW]]Gore is a passive ability that has a chance of inflicting a\u005cn[[YELLOW]]bleeding effect on your wolves' targets.
p2451
sg7
VGuides.Taming.Section.3
p2452
ssS'791957'
p2453
(dp2454
g3
V**\u5947\u7f8e\u62c9\u4e4b\u7ffc\u4f7f\u7528\u5931\u6557\u4e86!**
p2455
sg5
V**CHIMAERA WING FAILED!**
p2456
sg7
VItem.ChimaeraWing.Fail
p2457
ssS'791956'
p2458
(dp2459
g3
V[[RED]]\u66b4\u8d70\u947d\u982d[[GREEN]] \u5373\u5c07\u7ed3\u675f [[YELLOW]]{0}
p2460
sg5
V[[RED]]Giga Drill Breaker[[GREEN]] has worn off for [[YELLOW]]{0}
p2461
sg7
VExcavation.Skills.GigaDrillBreaker.Other.Off
p2462
ssS'2124969'
p2463
(dp2464
g3
V[[RED]]\u4f60\u7121\u6cd5\u50b3\u9001\u5230\u4f60\u81ea\u5df1\u8eab\u65c1!
p2465
sg5
V[[RED]]You can't teleport to yourself!
p2466
sg7
VParty.Teleport.Self
p2467
ssS'2124968'
p2468
(dp2469
g3
V\u6280\u80fd
p2470
sg5
Vskill
p2471
sg7
VCommands.Usage.Skill
p2472
ssS'2124967'
p2473
(dp2474
g3
V[[GREEN]]\u4f60\u5728 {1} \u4e2d\u88ab\u734e\u52f5\u4e86 {0} \u7d93\u9a57\u503c!
p2475
sg5
V[[GREEN]]You were awarded {0} experience in {1}!
p2476
sg7
VCommands.addxp.AwardSkill
p2477
ssS'2124966'
p2478
(dp2479
g3
V[[RED]]\u6240\u6709\u6280\u80fd\u7b49\u7d1a\u5df2\u88ab\u8a2d\u5b9a\u70ba {0}.
p2480
sg5
V[[RED]]All skills have been modified for {0}.
p2481
sg7
VCommands.addlevels.AwardAll.2
p2482
ssS'2124965'
p2483
(dp2484
g3
V[[GREEN]]\u5728\u5168\u90e8\u7684\u6280\u80fd\u88e1\u4f60\u9084\u5dee {0} \u7b49\u7d1a!
p2485
sg5
V[[GREEN]]You were awarded {0} levels in all skills!
p2486
sg7
VCommands.addlevels.AwardAll.1
p2487
ssS'2124964'
p2488
(dp2489
g3
V\u9801\u6578
p2490
sg5
Vpage
p2491
sg7
VCommands.Usage.Page
p2492
ssS'2124963'
p2493
(dp2494
g3
V[[RED]]\u7d93\u9a57\u503c\u500d\u6578\u5df2\u88ab\u8a2d\u5b9a\u70ba {0}
p2495
sg5
V[[RED]]The XP RATE was modified to {0}
p2496
sg7
VCommands.xprate.modified
p2497
ssS'2124962'
p2498
(dp2499
g3
V[[DARK_RED]]mcMMO \u5728\u4fee\u6b63\u6642\u767c\u751f\u4e86\u932f\u8aa4!
p2500
sg5
V[[DARK_RED]]mcMMO encountered an error attempting to repair this item!
p2501
sg7
VRepair.Error
p2502
ssS'2124961'
p2503
(dp2504
g3
V[[RED]]\u8acb\u8f38\u5165 /{0} {1}
p2505
sg5
V[[RED]]Proper usage is /{0} {1}
p2506
sg7
VCommands.Usage.1
p2507
ssS'791884'
p2508
(dp2509
g3
V[[GREEN]]**\u4f60\u63e1\u7dca\u4e86\u4f60\u7684\u93df\u5b50**
p2510
sg5
V[[GREEN]]**YOU READY YOUR SHOVEL**
p2511
sg7
VExcavation.Ability.Ready
p2512
ssS'791795'
p2513
(dp2514
g3
V**\u5947\u7f8e\u62c9\u4e4b\u7ffc**
p2515
sg5
V**CHIMAERA WING**
p2516
sg7
VItem.ChimaeraWing.Pass
p2517
ssS'792038'
p2518
(dp2519
g3
V[[RED]]**\u4f60\u958b\u59cb\u6d41\u8840\u4e86**
p2520
sg5
V[[RED]]**YOU HAVE BEEN GORED**
p2521
sg7
VCombat.StruckByGore
p2522
ssS'791797'
p2523
(dp2524
g3
V\u6316\u7926:
p2525
sg5
VMining:
p2526
sg7
VMining.Listener
p2527
ssS'792115'
p2528
(dp2529
g3
V\u66b4\u8d70\u947d\u982d (\u4e3b\u52d5\u6280\u80fd)
p2530
sg5
VGiga Drill Breaker (ABILITY)
p2531
sg7
VExcavation.Effect.0
p2532
ssS'791791'
p2533
(dp2534
g3
V[[GRAY]]**\u4f60\u653e\u4e0b\u4e86\u4f60\u7684\u528d**
p2535
sg5
V[[GRAY]]**YOU LOWER YOUR SWORD**
p2536
sg7
VSwords.Ability.Lower
p2537
ssS'791790'
p2538
(dp2539
g3
V\u96dc\u6280:
p2540
sg5
VAcrobatics:
p2541
sg7
VAcrobatics.Listener
p2542
ssS'791793'
p2543
(dp2544
g3
V[[GREEN]]\u4f60\u7684 [[YELLOW]]\u4f10\u6728\u5de5 [[GREEN]]\u5df2\u53ef\u4f7f\u7528\uff01
p2545
sg5
V[[GREEN]]Your [[YELLOW]]Tree Feller [[GREEN]]ability is refreshed!
p2546
sg7
VWoodcutting.Skills.TreeFeller.Refresh
p2547
ssS'791792'
p2548
(dp2549
g3
V\u91e3\u9b5a!(\u53bb\u60f3\u60f3\u5427!)
p2550
sg5
VFishing (Go figure!)
p2551
sg7
VCommands.XPGain.Fishing
p2552
ssS'792031'
p2553
(dp2554
g3
V\u6389\u843d
p2555
sg5
VFalling
p2556
sg7
VCommands.XPGain.Acrobatics
p2557
ssS'791813'
p2558
(dp2559
g3
V[[GREEN]]**\u7da0\u624b\u6307**
p2560
sg5
V[[GREEN]]**GREEN THUMB**
p2561
sg7
VHerbalism.Ability.GTh
p2562
ssS'792033'
p2563
(dp2564
g3
V[[GRAY]]\u6ce8\u610f: [[YELLOW]]\u6bcf\u5169\u79d2\u6e1b\u4e00\u6ef4\u8840
p2565
sg5
V[[GRAY]]NOTE: [[YELLOW]]1 Tick happens every 2 seconds
p2566
sg7
VSwords.Combat.Bleed.Note
p2567
ssS'792032'
p2568
(dp2569
g3
V[[RED]]\u66b4\u8d70\u947d\u982d\u6301\u7e8c\u6642\u9593: [[YELLOW]]{0}s
p2570
sg5
V[[RED]]Giga Drill Breaker Length: [[YELLOW]]{0}s
p2571
sg7
VExcavation.Effect.Length
p2572
ssS'791799'
p2573
(dp2574
g3
V[[YELLOW]]\u65a7\u6280\u4e0a\u5347\u4e86 {0}. \u7e3d\u7b49\u7d1a ({1})
p2575
sg5
V[[YELLOW]]Axes skill increased by {0}. Total ({1})
p2576
sg7
VAxes.Skillup
p2577
ssS'791798'
p2578
(dp2579
g3
V[[DARK_RED]]\u88ab\u5272\u88c2\u65ac\u653b\u64ca\uff01
p2580
sg5
V[[DARK_RED]]Struck by SERRATED STRIKES!
p2581
sg7
VSwords.Combat.SS.Struck
p2582
ssS'792037'
p2583
(dp2584
g3
V\u65a7\u6280:
p2585
sg5
VAxes:
p2586
sg7
VAxes.Listener
p2587
ssS'792036'
p2588
(dp2589
g3
V[[GREEN]]**\u6d41\u8840**
p2590
sg5
V[[GREEN]]**GORED**
p2591
sg7
VCombat.Gore
p2592
ssS'791888'
p2593
(dp2594
g3
V[[RED]]**\u4f10\u6728\u5de5\u5df2\u7ed3\u675f**
p2595
sg5
V[[RED]]**Tree Feller has worn off**
p2596
sg7
VWoodcutting.Skills.TreeFeller.Off
p2597
ssS'893578'
p2598
(dp2599
g3
V\u4fee\u7406\u9ec3\u91d1 ({0}+ SKILL)
p2600
sg5
VGold Repair ({0}+ SKILL)
p2601
sg7
VRepair.Effect.10
p2602
ssS'893579'
p2603
(dp2604
g3
V\u4fee\u7406\u9435\u88fd\u5de5\u5177\u548c\u88dd\u5099
p2605
sg5
VRepair Iron Tools & Armor
p2606
sg7
VRepair.Effect.13
p2607
ssS'893577'
p2608
(dp2609
g3
V\u4fee\u7406\u91d1\u88fd\u5de5\u5177\u548c\u88dd\u5099
p2610
sg5
VRepair Gold Tools & Armor
p2611
sg7
VRepair.Effect.11
p2612
ssS'893575'
p2613
(dp2614
g3
V[[RED]]\u7206\u7834\u5c08\u5bb6\u50b7\u5bb3\u6e1b\u5c11: [[YELLOW]]{0}
p2615
sg5
V[[RED]]Demolitions Expert Damage Decrease: [[YELLOW]]{0}
p2616
sg7
VMining.Effect.Decrease
p2617
ssS'893572'
p2618
(dp2619
g3
V[[RED]]\u96d9\u500d\u6389\u843d\u6a5f\u7387: [[YELLOW]]{0}
p2620
sg5
V[[RED]]Double Drop Chance: [[YELLOW]]{0}
p2621
sg7
VWoodcutting.Ability.Chance.DDrop
p2622
ssS'893573'
p2623
(dp2624
g3
V\u4fee\u7406\u5de5\u5177\u548c\u88dd\u5099
p2625
sg5
VRepair Tools & Armor
p2626
sg7
VRepair.Effect.1
p2627
ssS'893570'
p2628
(dp2629
g3
V[[RED]]\u64ca\u843d\u5f13\u7bad\u6a5f\u7387: [[YELLOW]]{0}
p2630
sg5
V[[RED]]Arrow Deflect Chance: [[YELLOW]]{0}
p2631
sg7
VUnarmed.Ability.Chance.ArrowDeflect
p2632
ssS'791926'
p2633
(dp2634
g3
V[[GOLD]]\u4f60\u7684\u7d93\u9a57\u503c\u9396\u5b9a\u5728 {0}!
p2635
sg5
V[[GOLD]]Your XP BAR is now locked to {0}!
p2636
sg7
VCommands.xplock.locked
p2637
ssS'791927'
p2638
(dp2639
g3
V[[RED]]\u4f60\u4e0d\u5728\u968a\u4f0d\u4e2d.
p2640
sg5
V[[RED]]You are not in a party.
p2641
sg7
VCommands.Party.None
p2642
ssS'791777'
p2643
(dp2644
g21
V[[RED]]- \u5207\u63db\u7ba1\u7406\u54e1\u804a\u5929\u6a21\u5f0f
p2645
sg23
V[[RED]]- Toggle admin chat
p2646
sg25
VCommands.AdminToggle
p2647
ssS'791925'
p2648
(dp2649
g3
V[[RED]]\u9019\u68f5\u6a39\u592a\u5927\u4e86!
p2650
sg5
V[[RED]]That tree is too large!
p2651
sg7
VWoodcutting.Skills.TreeFellerThreshold
p2652
ssS'791922'
p2653
(dp2654
g3
V[[GREEN]]**\u66b4\u529b\u6253\u64ca**
p2655
sg5
V[[GREEN]]**STRUCK WITH GREAT FORCE**
p2656
sg7
VAxes.Combat.GI.Proc
p2657
ssS'791923'
p2658
(dp2659
g3
V[[GRAY]]**\u4f60\u653e\u9b06\u4e86\u4f60\u7684\u62f3\u982d**
p2660
sg5
V[[GRAY]]**YOU LOWER YOUR FISTS**
p2661
sg7
VUnarmed.Ability.Lower
p2662
ssS'791920'
p2663
(dp2664
g3
V\u6280\u80fd\u4f7f\u7528 [[GREEN]]\u555f\u52d5
p2665
sg5
VAbility use toggled [[GREEN]]on
p2666
sg7
VCommands.Ability.On
p2667
ssS'791921'
p2668
(dp2669
g3
V[[GREEN]]**\u767c\u52d5\u7da0\u5316**
p2670
sg5
V[[GREEN]]**GREEN TERRA ACTIVATED**
p2671
sg7
VHerbalism.Skills.GTe.On
p2672
ssS'3380505'
p2673
(dp2674
g3
V[[GOLD]][mcMMO] [[YELLOW]]{0}[[GRAY]]\u7121\u6cd5\u5f9e\u4f60\u9019\u5077\u53d6\u4efb\u4f55\u7684\u77e5\u8b58!
p2675
sg5
V[[GOLD]][mcMMO] [[YELLOW]]{0}[[GRAY]] was unable to steal knowledge from you!
p2676
sg7
VHardcore.Vampirism.Victim.Failure
p2677
ssS'791928'
p2678
(dp2679
g3
V[[GRAY]]**\u4f60\u653e\u4e0b\u4e86\u4f60\u7684\u92e4\u982d**
p2680
sg5
V[[GRAY]]**YOU LOWER YOUR HOE**
p2681
sg7
VHerbalism.Ability.Lower
p2682
ssS'791929'
p2683
(dp2684
g3
V[[GRAY]]\u90a3\u770b\u8d77\u4f86\u5f88\u7c21\u55ae.
p2685
sg5
V[[GRAY]]That felt easy.
p2686
sg7
VRepair.Skills.FeltEasy
p2687
ssS'3587692'
p2688
(dp2689
g3
V[[DARK_AQUA]]\u4ec0\u9ebc\u662f\u79cb\u98a8\u6383\u843d\u8449?[[YELLOW]]\u79cb\u98a8\u6383\u843d\u8449\u662f\u4e00\u500b\u88ab\u52d5\u6280\u80fd,[[YELLOW]]\u7576\u4f60\u7528\u65a7\u982d\u7834\u58de\u6a39\u8449\u6642,\u6a39\u8449\u5c07\u76f4\u63a5\u6467\u6bc0.[[YELLOW]]\u9019\u500b\u6280\u80fd\u9810\u8a2d\u5728100\u7b49\u958b\u653e.
p2690
sg5
V[[DARK_AQUA]]How does Leaf Blower work?\u005cn[[YELLOW]]Leaf Blower is a passive ability that will cause leaf\u005cn[[YELLOW]]blocks to break instantly when hit with an axe. By default,\u005cn[[YELLOW]]this ability unlocks at level 100.
p2691
sg7
VGuides.Woodcutting.Section.2
p2692
ssS'3587691'
p2693
(dp2694
g3
V[[DARK_AQUA]]\u4ec0\u9ebc\u662f\u96d9\u500d\u6389\u843d?[[YELLOW]]\u9019\u500b\u88ab\u52d5\u6280\u80fd\u53ef\u4ee5\u8b93\u4f60\u6709\u6a5f\u7387\u5728\u4f10\u6728[[YELLOW]]\u6642\u6a39\u6728\u6389\u843d\u66f4\u591a\u539f\u6728.
p2695
sg5
V[[DARK_AQUA]]How do Double Drops work?\u005cn[[YELLOW]]This passive ability gives you a chance to obtain an extra\u005cn[[YELLOW]]block for every log you chop.
p2696
sg7
VGuides.Woodcutting.Section.3
p2697
ssS'3587690'
p2698
(dp2699
g3
V[[DARK_AQUA]]\u95dc\u65bc\u4f10\u6728:[[YELLOW]]\u4f10\u6728\u5c31\u662f\u628a\u6a39\u780d\u5012.[[DARK_AQUA]]\u7372\u53d6\u7d93\u9a57:[[YELLOW]]\u7834\u58de\u6a39\u5e79\u53ef\u7372\u53d6\u7d93\u9a57.
p2700
sg5
V[[DARK_AQUA]]About Woodcutting:\u005cn[[YELLOW]]Woodcutting is all about chopping down trees.\u005cn\u005cn[[DARK_AQUA]]XP GAIN:\u005cn[[YELLOW]]XP is gained whenever you break log blocks.
p2701
sg7
VGuides.Woodcutting.Section.0
p2702
ssS'2093988'
p2703
(dp2704
g3
V[[RED]]\u6f01\u4eba\u4fbf\u7576: [[YELLOW]]\u7b49\u7d1a {0}
p2705
sg5
V[[RED]]Fisherman''s Diet: [[YELLOW]]Rank {0}
p2706
sg7
VFishing.Ability.FD
p2707
ssS'2093989'
p2708
(dp2709
g3
V[[GRAY]]\u7269\u54c1\u5df2\u56de\u6536!
p2710
sg5
V[[GRAY]]Item salvaged!
p2711
sg7
VRepair.Skills.SalvageSuccess
p2712
ssS'791979'
p2713
(dp2714
g3
V[[YELLOW]]\u8349\u85e5\u5b78\u4e0a\u5347\u4e86 {0}. \u7e3d\u7b49\u7d1a ({1})
p2715
sg5
V[[YELLOW]]Herbalism skill increased by {0}. Total ({1})
p2716
sg7
VHerbalism.Skillup
p2717
ssS'2093980'
p2718
(dp2719
g3
V\u9396\u5b9a\u76f4\u5230\u6280\u80fd {0}+  (\u5de8\u5927\u7206\u7834)
p2720
sg5
VLOCKED UNTIL {0}+ SKILL (BIGGER BOMBS)
p2721
sg7
VMining.Ability.Locked.1
p2722
ssS'2093981'
p2723
(dp2724
g3
V\u9396\u5b9a\u76f4\u5230\u6280\u80fd {0}+  (\u6316\u7926\u7206\u767c)
p2725
sg5
VLOCKED UNTIL {0}+ SKILL (BLAST MINING)
p2726
sg7
VMining.Ability.Locked.0
p2727
ssS'2093982'
p2728
(dp2729
g3
V\u9396\u5b9a\u76f4\u5230\u6280\u80fd {0}+ (\u7206\u7834\u5c08\u5bb6)
p2730
sg5
VLOCKED UNTIL {0}+ SKILL (DEMOLITIONS EXPERTISE)
p2731
sg7
VMining.Ability.Locked.2
p2732
ssS'792054'
p2733
(dp2734
g3
V\u6e1b\u5c11\u6216\u53d6\u6d88\u6389\u843d\u50b7\u5bb3
p2735
sg5
VReduces or Negates fall damage
p2736
sg7
VAcrobatics.Effect.1
p2737
ssS'3790742'
p2738
(dp2739
g21
V[[RED]]- \u5275\u5efa\u65b0\u7684\u968a\u4f0d
p2740
sg23
V[[RED]]- Create a new party
p2741
sg25
VCommands.Party.1
p2742
ssS'2195770'
p2743
(dp2744
g3
V\u50b3\u9001\u5230\u4e00\u500bmcMMO\u968a\u4f0d\u6210\u54e1\u65c1
p2745
sg5
VTeleport to an mcMMO party member
p2746
sg7
VCommands.Description.ptp
p2747
ssS'3531195'
p2748
(dp2749
g3
V[[GRAY]]\u53ec\u559a (\u99ac): \u6309\u4f4fshift\u540c\u6642\u4e26\u6309\u4f4f\u5de6\u9375 \u9084\u9700\u8981\u62ff {0} \u500b\u860b\u679c\u5728\u624b\u88e1
p2750
sg5
V[[GRAY]]COTW (Horse): Crouch and left-click with {0} Apples in hand
p2751
sg7
VTaming.Effect.20
p2752
ssS'3531194'
p2753
(dp2754
g3
V[[RED]]\u4f60\u4e0d\u80fd\u53ec\u63db\u99ac\u56e0\u70ba\u4f60\u5df2\u7d93\u53ec\u559a\u592a\u591a\u4e86.
p2755
sg5
V[[RED]]You have too many horses nearby to summon any more.
p2756
sg7
VTaming.Summon.Fail.Horse
p2757
ssS'2195771'
p2758
(dp2759
g3
V\u8abf\u6574mcMMO\u5438\u8840\u6bd4\u4f8b\u6216\u5207\u63db\u5438\u8840\u6a21\u5f0f (\u958b/\u95dc)
p2760
sg5
VModify the mcMMO vampirism percentage or toggle vampirism mode on/off
p2761
sg7
VCommands.Description.vampirism
p2762
ssS'792053'
p2763
(dp2764
g3
V\u6f02\u4eae\u7ffb\u6efe
p2765
sg5
VGraceful Roll
p2766
sg7
VAcrobatics.Effect.2
p2767
ssS'791961'
p2768
(dp2769
g3
V\u6280\u80fd\u4f7f\u7528 [[RED]]\u95dc\u9589
p2770
sg5
VAbility use toggled [[RED]]off
p2771
sg7
VCommands.Ability.Off
p2772
ssS'791727'
p2773
(dp2774
g3
V[[YELLOW]]\u7bad\u8853\u6280\u80fd\u4e0a\u5347\u4e86 {0}. \u7e3d\u7b49\u7ea7 ({1})
p2775
sg5
V[[YELLOW]]Archery skill increased by {0}. Total ({1})
p2776
sg7
VArchery.Skillup
p2777
ssS'791788'
p2778
(dp2779
g3
V[[RED]]\u7206\u70b8\u534a\u5f91\u63d0\u5347: [[YELLOW]]+{0}
p2780
sg5
V[[RED]]Blast Radius Increase: [[YELLOW]]+{0}
p2781
sg7
VMining.Blast.Radius.Increase
p2782
ssS'2158619'
p2783
(dp2784
g21
V[[GREEN]]\u4f60\u50b3\u9001\u7684\u8a71\u8acb\u8f38\u5165[[YELLOW]]/ptp accept. [[GREEN]]\u5728[[RED]]{0} [[GREEN]]\u79d2\u5167\u5fc5\u9808\u5b8c\u6210
p2785
sg23
V[[GREEN]]To teleport, type [[YELLOW]]/ptp accept. [[GREEN]]Request expires in [[RED]]{0} [[GREEN]]seconds.
p2786
sg25
VCommands.ptp.Request2
p2787
ssS'791742'
p2788
(dp2789
g3
V[[GREEN]]{0}[[DARK_GREEN]]\u4f7f\u7528\u4e86 [[RED]]\u5288\u9871\u65ac!
p2790
sg5
V[[GREEN]]{0}[[DARK_GREEN]] has used [[RED]]Skull Splitter!
p2791
sg7
VAxes.Skills.SS.Other.On
p2792
ssS'792140'
p2793
(dp2794
g3
V\u64ca\u843d\u5f13\u7bad
p2795
sg5
VArrow Deflect
p2796
sg7
VUnarmed.Effect.6
p2797
ssS'792143'
p2798
(dp2799
g3
V\u96d9\u500d\u6389\u843d\u7269\u54c1
p2800
sg5
VDouble the normal loot
p2801
sg7
VHerbalism.Effect.9
p2802
ssS'792142'
p2803
(dp2804
g3
V\u96d9\u500d\u6389\u843d (\u6240\u6709\u7684\u690d\u7269)
p2805
sg5
VDouble Drops (All Herbs)
p2806
sg7
VHerbalism.Effect.8
p2807
ssS'791747'
p2808
(dp2809
g3
V[[GRAY]]\u81ea\u52d5\u7784\u6e96\u7684\u6210\u529f\u7387: [[YELLOW]]{0}%
p2810
sg5
V[[GRAY]]AF Success Rate: [[YELLOW]]{0}%
p2811
sg7
VRepair.Arcane.Chance.Success
p2812
ssS'792147'
p2813
(dp2814
g3
V\u98df\u7528\u8fb2\u98df\u54c1\u6642\u984d\u5916\u6062\u5fa9\u98fd\u98df\u5ea6
p2815
sg5
VImproves hunger restored from farmed foods
p2816
sg7
VHerbalism.Effect.7
p2817
ssS'792146'
p2818
(dp2819
g3
V\u8fb2\u592b\u79c1\u623f\u83dc
p2820
sg5
VFarmer's Diet
p2821
sg7
VHerbalism.Effect.6
p2822
ssS'792149'
p2823
(dp2824
g3
V\u6563\u64ad\u4e0a\u5e1d\u7684\u6069\u60e0,3\u500d\u6389\u843d\u7269
p2825
sg5
VSpread the Terra, 3x Drops
p2826
sg7
VHerbalism.Effect.1
p2827
ssS'792148'
p2828
(dp2829
g3
V\u7da0\u5316 (\u4e3b\u52d5\u6280\u80fd)
p2830
sg5
VGreen Terra (ABILITY)
p2831
sg7
VHerbalism.Effect.0
p2832
ssS'791748'
p2833
(dp2834
g3
V\u6548\u679c
p2835
sg5
VEFFECTS
p2836
sg7
VEffects.Effects
p2837
ssS'2124948'
p2838
(dp2839
g3
V[[GREEN]]\u5728\u5168\u90e8\u7684\u6280\u80fd\u88e1\u4f60\u9084\u5dee {0} \u7d93\u9a57\u503c!
p2840
sg5
V[[GREEN]]You were awarded {0} experience in all skills!
p2841
sg7
VCommands.addxp.AwardAll
p2842
ssS'792052'
p2843
(dp2844
g3
V\u5169\u500d\u7684\u7ffb\u6efe\u6548\u679c
p2845
sg5
VTwice as effective as a normal Roll
p2846
sg7
VAcrobatics.Effect.3
p2847
ssS'2195769'
p2848
(dp2849
g3
V[[RED]]\u968a\u4f0d\u7684\u7269\u54c1\u5206\u4eab\u95dc\u9589.
p2850
sg5
V[[RED]]Party item sharing is disabled.
p2851
sg7
VParty.ItemShare.Disabled
p2852
ssS'2195768'
p2853
(dp2854
g3
V[[RED]]\u4f60\u7121\u6cd5\u52a0\u5165\u81ea\u5df1!
p2855
sg5
V[[RED]]You can't join yourself!
p2856
sg7
VParty.Join.Self
p2857
ssS'4081064'
p2858
(dp2859
g3
V[[GREEN]]- \u67e5\u770b\u8a73\u7d30\u7684\u6280\u80fd\u8cc7\u8a0a
p2860
sg5
V[[GREEN]]- View detailed information about a skill
p2861
sg7
VCommands.SkillInfo
p2862
ssS'4081065'
p2863
(dp2864
g3
V<skill> <page> [[GREEN]]- \u6392\u884c\u699c
p2865
sg5
V<skill> <page> [[GREEN]]- Leaderboards
p2866
sg7
VCommands.Leaderboards
p2867
ssS'4081062'
p2868
(dp2869
g3
V<player> [[GREEN]]- \u67e5\u770b\u8a73\u7d30\u7684\u73a9\u5bb6\u8cc7\u8a0a
p2870
sg5
V<player> [[GREEN]]- View detailed player info
p2871
sg7
VCommands.Inspect
p2872
ssS'4081063'
p2873
(dp2874
g3
V[[RED]]---[][[GREEN]]mcMMO \u6307\u4ee4[[RED]][]---
p2875
sg5
V[[RED]]---[][[GREEN]]mcMMO Commands[[RED]][]---
p2876
sg7
VCommands.mcc.Header
p2877
ssS'4081060'
p2878
(dp2879
g3
V[[GREEN]]- \u91cd\u7f6e\u6280\u80fd\u7684\u7b49\u7d1a\u70ba 0
p2880
sg5
V[[GREEN]]- Reset a skill's level to 0
p2881
sg7
VCommands.Reset
p2882
ssS'4081061'
p2883
(dp2884
g3
V[[GREEN]]- \u5207\u63db\u968a\u4f0d\u983b\u9053
p2885
sg5
V[[GREEN]]- Toggle Party Chat
p2886
sg7
VCommands.Party.Toggle
p2887
ssS'2195761'
p2888
(dp2889
g3
V[[RED]]\u6b32\u4f7f\u7528\u5bc6\u78bc\u4fdd\u8b77\u4f60\u7684\u968a\u4f0d\uff0c\u8acb\u4f7f\u7528[[DARK_AQUA]] {0}<password>
p2890
sg5
V[[RED]]To password protect your party, use [[DARK_AQUA]]{0} <password>
p2891
sg7
VParty.Help.5
p2892
ssS'2195760'
p2893
(dp2894
g3
V[[RED]]\u66f4\u591a\u8cc7\u8a0a\u8acb\u8aee\u8a62[[DARK_AQUA]]{0} 
p2895
sg5
V[[RED]]Consult [[DARK_AQUA]]{0} [[RED]]for more information
p2896
sg7
VParty.Help.2
p2897
ssS'2195763'
p2898
(dp2899
g3
V[[RED]]\u8981\u8f49\u79fb\u4f60\u7684\u968a\u4f0d\u6240\u6709\u6b0a\uff0c\u4f7f\u7528[[DARK_AQUA]] {0} <player>
p2900
sg5
V[[RED]]To transfer ownership of your party, use [[DARK_AQUA]]{0} <player>
p2901
sg7
VParty.Help.7
p2902
ssS'2195762'
p2903
(dp2904
g3
V[[RED]]\u6b32\u9396\u5b9a\u6216\u89e3\u9396\u4f60\u7684\u968a\u4f0d\uff0c\u4f7f\u7528[[DARK_AQUA]] {0}
p2905
sg5
V[[RED]]To lock or unlock your party, use [[DARK_AQUA]]{0}
p2906
sg7
VParty.Help.4
p2907
ssS'2195765'
p2908
(dp2909
g3
V[[RED]]\u4f60\u4e0d\u80fd\u9080\u8acb\u81ea\u5df1\uff01
p2910
sg5
V[[RED]]You can't invite yourself!
p2911
sg7
VParty.Invite.Self
p2912
ssS'2195764'
p2913
(dp2914
g3
V[[RED]]\u8981\u89e3\u6563\u968a\u4f0d\uff0c\u4f7f\u7528[[DARK_AQUA]] {0}
p2915
sg5
V[[RED]]To disband your party, use [[DARK_AQUA]]{0}
p2916
sg7
VParty.Help.8
p2917
ssS'2195767'
p2918
(dp2919
g3
V\u7121
p2920
sg5
VNONE
p2921
sg7
VParty.ShareMode.None
p2922
ssS'2195766'
p2923
(dp2924
g3
V[[RED]] {0}\u4f60\u7684\u968a\u4f0d\u5df2\u7d93\u662f\u9019\u500b\u540d\u5b57\u4e86!
p2925
sg5
V[[RED]]That is already the name of your party!
p2926
sg7
VParty.Rename.Same
p2927
ssS'791869'
p2928
(dp2929
g3
V[[YELLOW]]mcMMO \u795e\u4e4b\u6a21\u5f0f\u53d6\u6d88
p2930
sg5
V[[YELLOW]]mcMMO Godmode Disabled
p2931
sg7
VCommands.GodMode.Disabled
p2932
ssS'792051'
p2933
(dp2934
g3
V\u8ff4\u907f
p2935
sg5
VDodge
p2936
sg7
VAcrobatics.Effect.4
p2937
ssS'2768313'
p2938
(dp2939
g3
V[[DARK_RED]]\u88ab\u5288\u9871\u65ac\u64ca\u4e2d!
p2940
sg5
V[[DARK_RED]]Struck by SKULL SPLITTER!
p2941
sg7
VAxes.Combat.SS.Struck
p2942
ssS'2115558'
p2943
(dp2944
g3
V[[YELLOW]]{0}[[GREEN]] - [[GOLD]]\u6392\u540d [[WHITE]]#[[GREEN]]{1}
p2945
sg5
V[[YELLOW]]{0}[[GREEN]] - [[GOLD]]Rank [[WHITE]]#[[GREEN]]{1}
p2946
sg7
VCommands.mcrank.Skill
p2947
ssS'2115559'
p2948
(dp2949
g3
V[[RED]]\u8acb\u8f38\u5165 /{0} 
p2950
sg5
V[[RED]] Usage is /{0} ? [page]
p2951
sg7
VGuides.Usage
p2952
ssS'2115557'
p2953
(dp2954
g3
V[[GOLD]]-=[[GREEN]]{0} \u6307\u5357[[GOLD]]=-
p2955
sg5
V[[GOLD]]-=[[GREEN]]{0} Guide[[GOLD]]=-
p2956
sg7
VGuides.Header
p2957
ssS'791997'
p2958
(dp2959
g3
V\u50b7\u5bb3\u734e\u52f5
p2960
sg5
VDamage Bonus
p2961
sg7
VTaming.Effect.5
p2962
ssS'791996'
p2963
(dp2964
g3
V\u5229\u722a
p2965
sg5
VSharpened Claws
p2966
sg7
VTaming.Effect.4
p2967
ssS'791995'
p2968
(dp2969
g3
V\u4ed9\u4eba\u638c/\u5ca9\u6f3f \u6050\u61fc\u75c7, \u514d\u75ab\u6389\u5165\u50b7\u5bb3
p2970
sg5
VCactus/Lava Phobia, Fall DMG Immune
p2971
sg7
VTaming.Effect.7
p2972
ssS'791994'
p2973
(dp2974
g3
V\u5371\u6a5f\u610f\u8b58
p2975
sg5
VEnvironmentally Aware
p2976
sg7
VTaming.Effect.6
p2977
ssS'791993'
p2978
(dp2979
g3
V\u5229\u722a
p2980
sg5
VSharpened Claws
p2981
sg7
VTaming.Ability.Bonus.6
p2982
ssS'791991'
p2983
(dp2984
g3
V\u885d\u64ca\u683c\u64cb
p2985
sg5
VShock Proof
p2986
sg7
VTaming.Ability.Bonus.4
p2987
ssS'3356094'
p2988
(dp2989
g3
V\u683c\u6a94\u6642\u53cd\u5f48{0}\u50b7\u5bb3\u503c
p2990
sg5
VReflect {0} of damage taken while blocking
p2991
sg7
VSwords.Effect.1
p2992
ssS'792050'
p2993
(dp2994
g3
V\u6e1b\u5c11\u4e00\u534a\u7684\u50b7\u5bb3
p2995
sg5
VReduce attack damage by half
p2996
sg7
VAcrobatics.Effect.5
p2997
ssS'791999'
p2998
(dp2999
g3
V\u6703\u5fc3\u4e00\u64ca\u4f7f\u76ee\u6a19\u6d41\u8840
p3000
sg5
VCritical Strike that applies Bleed
p3001
sg7
VTaming.Effect.3
p3002
ssS'791998'
p3003
(dp3004
g3
V\u6d41\u8840
p3005
sg5
VGore
p3006
sg7
VTaming.Effect.2
p3007
ssS'3587628'
p3008
(dp3009
g3
V[[DARK_AQUA]]\u5982\u4f55\u4f7f\u7528\u8d85\u7d1a\u788e\u77f3\u6a5f:[[YELLOW]]\u624b\u62ff\u8457\u93ac\u5b50\u9ede\u6ed1\u9f20\u53f3\u9375\u4ee5\u6e96\u5099\u597d\u958b\u555f\u6280\u80fd.[[YELLOW]]\u4e00\u65e6\u958b\u555f\u6280\u80fd\u5c07\u6709\u6578\u79d2\u7684\u6642\u9593\u53ef\u4ee5\u8b93\u4f60[[YELLOW]]\u5feb\u901f\u7834\u58de\u6307\u5b9a\u7926\u7269,\u53ea\u6709\u76f8\u5bb9\u7684\u7926\u7269\u53ef\u4ee5[[YELLOW]]\u89f8\u767c\u6280\u80fd.
p3010
sg5
V[[DARK_AQUA]]How to use Super Breaker:\u005cn[[YELLOW]]With a pickaxe in your hand, right click to ready your tool.\u005cn[[YELLOW]]Once in this state, you have about 4 seconds to make contact\u005cn[[YELLOW]]with Mining compatible materials, which will activate Super\u005cn[[YELLOW]]Breaker.
p3011
sg7
VGuides.Mining.Section.2
p3012
ssS'3587629'
p3013
(dp3014
g3
V[[DARK_AQUA]]\u4ec0\u9ebc\u662f\u7206\u7834\u6316\u6398?[[YELLOW]]\u7206\u7834\u6316\u6398\u662f\u4e00\u500b\u4e3b\u52d5\u6280\u80fd, \u51b7\u537b\u6642\u9593\u95dc\u4fc2\u5230\u4f60\u7684\u6316\u7926[[YELLOW]]\u6280\u80fd\u7b49\u7d1a. \u5b83\u53ef\u4ee5\u8b93\u4f60\u5728\u4f7f\u7528TNT\u6316\u7926\u77f3\u6709\u66f4\u591a\u798f\u5229[[YELLOW]]\u4e14\u53ef\u4ee5\u9059\u63a7\u5f15\u7206TNT. \u7206\u7834\u6316\u6398\u5206\u6210\u4e09\u90e8\u5206.[[YELLOW]]\u7b2c\u4e00\u90e8\u5206\u7a31\u70ba\u5de8\u5927\u7206\u7834, \u53ef \u4ee5\u64f4\u5927\u4f60\u7684\u7206\u7834\u7bc4\u570d.[[YELLOW]]\u7b2c\u4e8c\u90e8\u5206\u7a31\u70ba\u7206\u7834\u5c08\u5bb6, \u53ef\u4ee5\u6e1b\u514dTNT\u5c0d\u4f60\u7684\u50b7\u5bb3[[YELLOW]]\u7b2c\u4e09\u90e8\u5206\u7a31\u70ba\u7cbe\u6e96\u7206\u7834, \u589e\u52a0\u6389\u843d\u7269\u6578\u91cf, \u6e1b\u5c11\u5783\u573e\u6389[[YELLOW]]\u843d\u7269\u6578\u91cf, \u5f88\u68d2\u5427.
p3015
sg5
V[[DARK_AQUA]]How does Blast Mining work?\u005cn[[YELLOW]]Blast Mining is an ability with a cooldown tied to the Mining\u005cn[[YELLOW]]skill. It gives bonuses when mining with TNT and allows you\u005cn[[YELLOW]]to remote detonate TNT. There are three parts to Blast Mining.\u005cn[[YELLOW]]The first part is Bigger Bombs, which increases blast radius.\u005cn[[YELLOW]]The second is Demolitions Expert, which decreases damage\u005cn[[YELLOW]]from TNT explosions. The third part simply increases the\u005cn[[YELLOW]]amount of ores dropped from TNT and decreases the\u005cn[[YELLOW]]debris dropped.
p3016
sg7
VGuides.Mining.Section.5
p3017
ssS'791733'
p3018
(dp3019
g3
V[[DARK_RED]]\u4f60\u7684\u6b66\u5668\u88ab\u64ca\u843d!
p3020
sg5
V[[DARK_RED]]You have been disarmed!
p3021
sg7
VSkills.Disarmed
p3022
ssS'3633735'
p3023
(dp3024
g3
V[[RED]]\u9b54\u6cd5\u7375\u4eba\u6a5f\u7387: [[YELLOW]]{0}
p3025
sg5
V[[RED]]Magic Hunter Chance: [[YELLOW]]{0}
p3026
sg7
VFishing.Ability.TH.MagicRate
p3027
ssS'2160040'
p3028
(dp3029
g3
V\u7269\u54c1
p3030
sg5
VITEM
p3031
sg7
VParty.ShareType.Item
p3032
ssS'2160042'
p3033
(dp3034
g3
V[[GRAY]]\u7269\u54c1 [[DARK_AQUA]]({0})
p3035
sg5
V[[GRAY]]ITEM [[DARK_AQUA]]({0})
p3036
sg7
VCommands.Party.ItemShare
p3037
ssS'2160043'
p3038
(dp3039
g3
V[[GRAY]]\u968a\u4f0d {0} \u5206\u4eab\u8a2d\u5b9a\u70ba: [[DARK_AQUA]]{1}
p3040
sg5
V[[GRAY]]Party {0} sharing set to: [[DARK_AQUA]]{1}
p3041
sg7
VCommands.Party.SetSharing
p3042
ssS'2160044'
p3043
(dp3044
g3
V[[GRAY]]\u7d93\u9a57\u503c [[DARK_AQUA]]({0})
p3045
sg5
V[[GRAY]]EXP [[DARK_AQUA]]({0})
p3046
sg7
VCommands.Party.ExpShare
p3047
ssS'3587627'
p3048
(dp3049
g3
V[[DARK_AQUA]]\u4ec0\u9ebc\u662f\u8d85\u7d1a\u788e\u77f3\u6a5f?[[YELLOW]]\u8d85\u7d1a\u788e\u77f3\u6a5f\u662f\u4e00\u500b\u9700\u8981\u51b7\u537b\u6642\u9593\u7684\u6316\u7926\u6280\u80fd.[[YELLOW]]\u5b83\u80fd\u4f7f\u4f60\u5728\u6316\u6389\u5c0d\u61c9\u7926\u77f3\u7684\u6642\u5019\u589e\u52a03\u500d\u6389\u843d\u6a5f\u7387.[[YELLOW]]\u4e26\u4e14\u5728\u6280\u80fd\u6642\u9593\u5167\u77ac\u9593\u7834\u58de\u77f3\u982d\u548c\u7926\u77f3.
p3050
sg5
V[[DARK_AQUA]]What is Super Breaker?\u005cn[[YELLOW]]Super Breaker is an ability with a cooldown tied to the Mining\u005cn[[YELLOW]]skill. It triples your chance of extra items dropping and\u005cn[[YELLOW]]enables instant break on Mining materials.
p3051
sg7
VGuides.Mining.Section.3
p3052
ssS'3587625'
p3053
(dp3054
g3
V[[DARK_AQUA]]\u76f8\u5bb9\u7684\u7926\u7269:[[YELLOW]]\u77f3\u982d, \u70ad\u7926\u8108, \u9435\u7926\u8108, \u91d1\u7926\u8108, \u947d\u77f3\u7926\u8108, \u7d05\u77f3\u7926\u8108,[[YELLOW]]\u9752\u91d1\u77f3\u7926\u8108, \u9ed1\u66dc\u77f3, \u9752\u82d4\u77f3, \u7d42\u754c\u77f3,[[YELLOW]]\u87a2\u5149\u77f3, \u9084\u6709\u5730\u7344\u77f3.
p3055
sg5
V[[DARK_AQUA]]Compatible Materials:\u005cn[[YELLOW]]Stone, Coal Ore, Iron Ore, Gold Ore, Diamond Ore, Redstone Ore,\u005cn[[YELLOW]]Lapis Ore, Obsidian, Mossy Cobblestone, Ender Stone,\u005cn[[YELLOW]]Glowstone, and Netherrack.
p3056
sg7
VGuides.Mining.Section.1
p3057
ssS'3600027'
p3058
(dp3059
g3
V[[RED]]\u79d8\u6cd5\u935b\u9020: [[YELLOW]]\u6392\u540d {0}/{1}
p3060
sg5
V[[RED]]Arcane Forging: [[YELLOW]]Rank {0}/{1}
p3061
sg7
VRepair.Arcane.Rank
p3062
ssS'3600028'
p3063
(dp3064
g3
V[[RED]]\u5bf6\u7269\u7375\u4eba\u6392\u540d: [[YELLOW]]{0}/{1}
p3065
sg5
V[[RED]]Treasure Hunter Rank: [[YELLOW]]{0}/{1}
p3066
sg7
VFishing.Ability.Rank
p3067
ssS'791732'
p3068
(dp3069
g3
V[[GREEN]]{0}[[DARK_GREEN]] \u4f7f\u7528\u4e86 [[RED]]\u72c2\u66b4!
p3070
sg5
V[[GREEN]]{0}[[DARK_GREEN]] has used [[RED]]Berserk!
p3071
sg7
VUnarmed.Skills.Berserk.Other.On
p3072
ssS'3587660'
p3073
(dp3074
g3
V[[DARK_AQUA]]\u4ec0\u9ebc\u662f\u9632\u5177\u7834\u58de\u8005?[[YELLOW]]\u66b4\u529b\u7684\u6253\u64ca\u4f7f\u9632\u5177\u7c89\u788e![[YELLOW]]\u9632\u5177\u7834\u58de\u8005\u6709\u88ab\u52d5\u6a5f\u7387\u9020\u6210\u5c0d\u624b\u9632\u5177\u88ab\u7834\u58de![[YELLOW]]\u7834\u58de\u7a0b\u5ea6\u95dc\u4fc2\u5230\u4f60\u7684\u65a7\u982d\u6280\u80fd\u7b49\u7d1a.
p3075
sg5
V[[DARK_AQUA]]How does Armor Impact work?\u005cn[[YELLOW]]Strike with enough force to shatter armor!\u005cn[[YELLOW]]Armor Impact has a passive chance to damage your\u005cn[[YELLOW]]opponent's armor. This damage increases as you level in Axes.
p3076
sg7
VGuides.Axes.Section.4
p3077
ssS'792088'
p3078
(dp3079
g3
V\u53cd\u64ca
p3080
sg5
VCounter Attack
p3081
sg7
VSwords.Effect.0
p3082
ssS'3790751'
p3083
(dp3084
g21
V[[RED]]\u8b66\u544a: [[GREEN]]\u4f60\u5f9e {1} \u6536\u5230\u4e00\u500b\u548c {0} \u7d50\u76df\u7684\u9080\u8acb
p3085
sg23
V[[RED]]ALERT: [[GREEN]]You have received a party alliance invite for {0} from {1}
p3086
sg25
VCommands.Party.Alliance.Invite.0
p3087
ssS'3790752'
p3088
(dp3089
g21
V[[YELLOW]]\u8f38\u5165 [[GREEN]]/party alliance accept[[YELLOW]] \u4f86\u63a5\u53d7\u9080\u8acb
p3090
sg23
V[[YELLOW]]Type [[GREEN]]/party alliance accept[[YELLOW]] to accept the invite
p3091
sg25
VCommands.Party.Alliance.Invite.1
p3092
ssS'791857'
p3093
(dp3094
g3
V\u653b\u64ca\u602a\u7269
p3095
sg5
VAttacking Monsters
p3096
sg7
VCommands.XPGain.Axes
p3097
ssS'792141'
p3098
(dp3099
g3
V\u5de8\u5927\u7206\u7834
p3100
sg5
VBigger Bombs
p3101
sg7
VMining.Effect.6
p3102
ssS'3919486'
p3103
(dp3104
g21
V\u9396\u5b9a\u76f4\u5230\u6280\u80fd {0}+ (\u968a\u4f0d\u983b\u9053)
p3105
sg23
VLOCKED UNTIL {0}+ (PARTY CHAT)
p3106
sg25
VParty.Feature.Locked.Chat
p3107
ssS'2456030'
p3108
(dp3109
g3
V\u589e\u52a0\u5728\u91e3\u9b5a\u6642\u4e0a\u9264\u7684\u6a5f\u7387
p3110
sg5
VImproves chance of getting a bite while fishing
p3111
sg7
VFishing.Effect.9
p3112
ssS'791853'
p3113
(dp3114
g3
V\u6688\u7729(\u9650\u5b9a\u73a9\u5bb6)
p3115
sg5
VDaze (Players)
p3116
sg7
VArchery.Effect.2
p3117
ssS'791845'
p3118
(dp3119
g3
V[[GRAY]]\u53ec\u559a (\u72fc): \u6309\u4f4fshift\u540c\u6642\u4e26\u6309\u4f4f\u5de6\u9375 \u9084\u9700\u8981\u62ff {0} \u6839\u9aa8\u982d\u5728\u624b\u88e1
p3120
sg5
V[[GRAY]]COTW (Wolf): Crouch and left-click with {0} Bones in hand
p3121
sg7
VTaming.Effect.15
p3122
ssS'791844'
p3123
(dp3124
g3
V[[GRAY]]\u53ec\u559a (\u5c71\u8c93): \u6309\u4f4fshift\u540c\u6642\u4e26\u6309\u4f4f\u5de6\u9375 \u9084\u9700\u8981\u62ff {0} \u689d\u9b5a\u5728\u624b\u88e1
p3125
sg5
V[[GRAY]]COTW (Ocelot): Crouch and left-click with {0} Fish in hand
p3126
sg7
VTaming.Effect.14
p3127
ssS'792042'
p3128
(dp3129
g3
V\u96e2\u7dda\u73a9\u5bb6\u7684 [mcMMO] \u7d71\u8a08\u8a0a\u606f [[YELLOW]]{0}
p3130
sg5
VmcMMO Stats for Offline Player [[YELLOW]]{0}
p3131
sg7
VInspect.OfflineStats
p3132
ssS'791846'
p3133
(dp3134
g3
V\u5feb\u9910\u670d\u52d9
p3135
sg5
VFast Food Service
p3136
sg7
VTaming.Effect.16
p3137
ssS'792044'
p3138
(dp3139
g21
V[[GREEN]]--\u5176\u4ed6\u6307\u4ee4--
p3140
sg23
V[[GREEN]]--OTHER COMMANDS--
p3141
sg25
VCommands.Other
p3142
ssS'791840'
p3143
(dp3144
g3
V\u885d\u64ca\u683c\u64cb
p3145
sg5
VShock Proof
p3146
sg7
VTaming.Effect.10
p3147
ssS'791843'
p3148
(dp3149
g3
V\u70ba\u4f60\u81ea\u5df1\u53ec\u559a\u4e00\u96bb\u52d5\u7269
p3150
sg5
VSummon an animal to your side
p3151
sg7
VTaming.Effect.13
p3152
ssS'791842'
p3153
(dp3154
g3
V\u91ce\u6027\u547c\u558a
p3155
sg5
VCall of the Wild
p3156
sg7
VTaming.Effect.12
p3157
ssS'791962'
p3158
(dp3159
g3
V\u56de\u6536\u5f13\u7bad
p3160
sg5
VArrow Retrieval
p3161
sg7
VArchery.Effect.4
p3162
ssS'791963'
p3163
(dp3164
g3
V\u4f10\u6728\u5de5(\u6280\u80fd)
p3165
sg5
VTree Feller (ABILITY)
p3166
sg7
VWoodcutting.Effect.0
p3167
ssS'3587655'
p3168
(dp3169
g3
V[[DARK_AQUA]]\u95dc\u65bc\u8349\u85e5\u5b78:[[YELLOW]]\u8349\u85e5\u5b78\u662f\u95dc\u65bc\u63a1\u6536\u8349\u85e5\u8207\u690d\u7269\u7684\u6280\u80fd.[[DARK_AQUA]]\u7372\u53d6\u7d93\u9a57:[[YELLOW]]\u63a1\u6536\u8349\u85e5\u6216\u690d\u7269.
p3170
sg5
V[[DARK_AQUA]]About Herbalism:\u005cn[[YELLOW]]Herbalism is about collecting herbs and plants.\u005cn\u005cn\u005cn[[DARK_AQUA]]XP GAIN:\u005cn[[YELLOW]]Collect plants and herbs.
p3171
sg7
VGuides.Herbalism.Section.0
p3172
ssS'3587654'
p3173
(dp3174
g3
V[[DARK_AQUA]]\u53ef\u4f5c\u7528\u7684\u8349\u85e5/\u690d\u7269[[YELLOW]]\u5c0f\u9ea5, \u99ac\u9234\u85af, \u80e1\u863f\u8514, \u897f\u74dc, [[YELLOW]]\u5357\u74dc, \u7518\u8517, \u53ef\u53ef\u8c46, \u82b1, \u4ed9\u4eba\u638c, \u9999\u83c7,[[YELLOW]]\u5730\u7344\u7599\u7629, \u84ee\u8449, \u8207\u85e4.
p3175
sg5
V[[DARK_AQUA]]Compatible Blocks\u005cn[[YELLOW]]Wheat, Potatoes, Carrots, Melons, \u005cn[[YELLOW]]Pumpkins, Sugar Canes, Cocoa Beans, Flowers, Cacti, Mushrooms,\u005cn[[YELLOW]]Nether Wart, Lily Pads, and Vines.
p3176
sg7
VGuides.Herbalism.Section.1
p3177
ssS'791966'
p3178
(dp3179
g3
V\u6383\u9664\u8449\u5b50
p3180
sg5
VBlow Away Leaves
p3181
sg7
VWoodcutting.Effect.3
p3182
ssS'791967'
p3183
(dp3184
g3
V\u96d9\u500d\u6389\u843d
p3185
sg5
VDouble Drops
p3186
sg7
VWoodcutting.Effect.4
p3187
ssS'791964'
p3188
(dp3189
g3
V\u7206\u767c\u780d\u6a39
p3190
sg5
VMake trees explode
p3191
sg7
VWoodcutting.Effect.1
p3192
ssS'791965'
p3193
(dp3194
g3
V\u79cb\u98a8\u6383\u843d\u8449
p3195
sg5
VLeaf Blower
p3196
sg7
VWoodcutting.Effect.2
p3197
ssS'791947'
p3198
(dp3199
g3
V\u9435\u81c2\u98a8\u683c
p3200
sg5
VIron Arm Style
p3201
sg7
VUnarmed.Ability.Bonus.0
p3202
ssS'791971'
p3203
(dp3204
g3
V\u640f\u64ca
p3205
sg5
VUNARMED
p3206
sg7
VUnarmed.SkillName
p3207
ssS'791940'
p3208
(dp3209
g3
V\u7ba1\u7406\u54e1\u804a\u5929\u6a21\u5f0f [[GREEN]]\u958b\u555f
p3210
sg5
VAdmin Chat only [[GREEN]]On
p3211
sg7
VCommands.AdminChat.On
p3212
ssS'791941'
p3213
(dp3214
g3
V[[GOLD]]\u4f60\u7684\u7d93\u9a57\u503c\u73fe\u5728 [[GREEN]]\u89e3\u9664\u9396\u5b9a\u4e86[[GOLD]]!
p3215
sg5
V[[GOLD]]Your XP BAR is now [[GREEN]]UNLOCKED[[GOLD]]!
p3216
sg7
VCommands.xplock.unlocked
p3217
ssS'791942'
p3218
(dp3219
g3
V[[GREEN]]\u4f60\u7684 [[YELLOW]]\u72c2\u66b4 [[GREEN]]\u6280\u80fd\u5df2\u53ef\u4f7f\u7528!
p3220
sg5
V[[GREEN]]Your [[YELLOW]]Berserk [[GREEN]]ability is refreshed!
p3221
sg7
VUnarmed.Skills.Berserk.Refresh
p3222
ssS'2158629'
p3223
(dp3224
g3
V\u968a\u4f0d\u50b3\u9001\u8acb\u6c42\u78ba\u8a8d [[GREEN]]\u555f\u7528
p3225
sg5
VParty teleport request confirmation [[GREEN]]enabled
p3226
sg7
VCommands.ptp.AcceptAny.Enabled
p3227
ssS'2158628'
p3228
(dp3229
g3
V[[DARK_RED]]{0} \u5df2\u4e0d\u5728\u4f60\u7684\u5718\u968a
p3230
sg5
V[[DARK_RED]]{0} is not in a party
p3231
sg7
VParty.PlayerNotInParty
p3232
ssS'2158627'
p3233
(dp3234
g3
V[[DARK_GREEN]](\u958b\u555f)
p3235
sg5
V[[DARK_GREEN]](OPEN)
p3236
sg7
VParty.Status.Unlocked
p3237
ssS'2158626'
p3238
(dp3239
g3
V[[GRAY]]\u968a\u4f0d\u540d\u7a31\u5df2\u66f4\u6539\u70ba: [[WHITE]]{0}
p3240
sg5
V[[GRAY]]Party name changed to: [[WHITE]]{0}
p3241
sg7
VCommands.Party.Rename
p3242
ssS'2158625'
p3243
(dp3244
g3
V[[RED]]{0} \u5df2\u7d93\u5728\u4f60\u968a\u4f0d\u88e1\u4e86!
p3245
sg5
V[[RED]]{0} already is in your party!
p3246
sg7
VParty.Player.InSameParty
p3247
ssS'2158623'
p3248
(dp3249
g3
V[[RED]]\u968a\u4f0d\u50b3\u9001\u5df2\u6210\u529f!
p3250
sg5
V[[RED]]Party teleport request has expired!
p3251
sg7
VCommands.ptp.RequestExpired
p3252
ssS'2158622'
p3253
(dp3254
g3
V[[DARK_RED]]\u5c0d\u4f0d{0} \u5df2\u5b58\u5728!
p3255
sg5
V[[DARK_RED]]Party {0} already exists!
p3256
sg7
VCommands.Party.AlreadyExists
p3257
ssS'2158621'
p3258
(dp3259
g3
V[[GREEN]]\u968a\u4f0d\u5bc6\u78bc\u8a2d\u5b9a\u70ba {0}
p3260
sg5
V[[GREEN]]Party password set to {0}
p3261
sg7
VParty.Password.Set
p3262
ssS'2158620'
p3263
(dp3264
g3
V[[YELLOW]]{0} [[GREEN]]\u5df2\u50b3\u9001\u81f3\u4f60\u65c1\u908a.
p3265
sg5
V[[YELLOW]]{0} [[GREEN]]has requested to teleport to you.
p3266
sg7
VCommands.ptp.Request1
p3267
ssS'2190044'
p3268
(dp3269
g3
V\u66f4\u65b0\u6240\u6709McMMO\u6280\u80fd\u51b7\u537b\u6642\u9593
p3270
sg5
VRefresh all cooldowns for mcMMO
p3271
sg7
VCommands.Description.mcrefresh
p3272
ssS'792152'
p3273
(dp3274
g3
V\u8d85\u7d1a\u788e\u77f3\u6a5f (\u4e3b\u52d5\u6280\u80fd)
p3275
sg5
VSuper Breaker (ABILITY)
p3276
sg7
VMining.Effect.0
p3277
ssS'2190040'
p3278
(dp3279
g3
V\u8abf\u6574mcMMO\u7d93\u9a57\u503c\u6bd4\u4f8b\u6216\u8209\u8fa6mcMMO\u7d93\u9a57\u503c\u52a0\u500d\u6d3b\u52d5
p3280
sg5
VModify the mcMMO XP rate or start an mcMMO XP event
p3281
sg7
VCommands.Description.xprate
p3282
ssS'2158658'
p3283
(dp3284
g21
V[[RED]]- \u5df2\u767c\u9001\u968a\u4f0d\u9080\u8acb
p3285
sg23
V[[RED]]- Send party invite
p3286
sg25
VCommands.Party.Invite
p3287
ssS'2158659'
p3288
(dp3289
g3
V[[RED]]\u9435\u722a\u6a5f\u7387: [[YELLOW]]{0}
p3290
sg5
V[[RED]]Iron Grip Chance: [[YELLOW]]{0}
p3291
sg7
VUnarmed.Ability.Chance.IronGrip
p3292
ssS'792040'
p3293
(dp3294
g3
V[[GREEN]]**\u767c\u52d5\u72c2\u66b4**
p3295
sg5
V[[GREEN]]**BERSERK ACTIVATED**
p3296
sg7
VUnarmed.Skills.Berserk.On
p3297
ssS'2664182'
p3298
(dp3299
g21
V[[RED]]- \u67e5\u770b\u6280\u80fd\u7684\u8a73\u7d30\u8cc7\u8a0a
p3300
sg23
V[[RED]]- View detailed information about a skill
p3301
sg25
VCommands.SkillInfo
p3302
ssS'3785670'
p3303
(dp3304
g3
V[[RED]]mcMMO \u5f97\u5206\u699c\u4e26\u672a\u555f\u7528.
p3305
sg5
V[[RED]]The mcMMO scoreboard is not active.
p3306
sg7
VCommands.Scoreboard.NoBoard
p3307
ssS'2158652'
p3308
(dp3309
g3
V[[DARK_RED]](\u53ea\u53ef\u9080\u8acb)
p3310
sg5
V[[DARK_RED]](INVITE-ONLY)
p3311
sg7
VParty.Status.Locked
p3312
ssS'2158653'
p3313
(dp3314
g3
V{0} [[GREEN]]\u96e2\u958b\u4e86\u4f60\u7684\u968a\u4f0d
p3315
sg5
V{0} [[GREEN]]has left your party
p3316
sg7
VParty.InformedOnQuit
p3317
ssS'2158651'
p3318
(dp3319
g3
V{0} [[GREEN]]\u52a0\u5165\u4e86\u4f60\u7684\u968a\u4f0d
p3320
sg5
V{0} [[GREEN]]has joined your party
p3321
sg7
VParty.InformedOnJoin
p3322
ssS'2158657'
p3323
(dp3324
g3
V[[GREEN]]\u968a\u4f0d\u5bc6\u78bc\u5df2\u522a\u9664.
p3325
sg5
V[[GREEN]]Party password has been cleared.
p3326
sg7
VParty.Password.Removed
p3327
ssS'2158654'
p3328
(dp3329
g3
V[[GRAY]]\u5275\u5efa\u7684\u968a\u4f0d\u540d\u7a31: {0}
p3330
sg5
V[[GRAY]]Created Party: {0}
p3331
sg7
VCommands.Party.Create
p3332
ssS'2158655'
p3333
(dp3334
g3
V[[GOLD]]{0} [[GREEN]]\u5c07\u968a\u4f0d\u540d\u7a31\u8a2d\u5b9a\u70ba [[WHITE]]{1}
p3335
sg5
V[[GOLD]]{0} [[GREEN]]has set the party name to [[WHITE]]{1}
p3336
sg7
VParty.InformedOnNameChange
p3337
ssS'791786'
p3338
(dp3339
g3
V\u6bdb\u76ae\u5f37\u5316
p3340
sg5
VThick Fur
p3341
sg7
VTaming.Ability.Bonus.2
p3342
ssS'791787'
p3343
(dp3344
g3
V[[RED]]\u6b64\u73a9\u5bb6\u4e0d\u5b58\u5728
p3345
sg5
V[[RED]]That is not a valid player.
p3346
sg7
VParty.Player.Invalid
p3347
ssS'792028'
p3348
(dp3349
g3
V[[YELLOW]]\u91e3\u9b5a\u6280\u80fd\u4e0a\u5347\u4e86 {0}. \u7e3d\u7b49\u7d1a ({1})
p3350
sg5
V[[YELLOW]]Fishing skill increased by {0}. Total ({1})
p3351
sg7
VFishing.Skillup
p3352
ssS'791785'
p3353
(dp3354
g3
V[[RED]]\u4f60\u7684\u65a7\u982d\u8b8a\u6210\u4e86\u4e00\u5806\u788e\u7247\uff01
p3355
sg5
V[[RED]]YOUR AXE SPLINTERS INTO DOZENS OF PIECES!
p3356
sg7
VWoodcutting.Skills.TreeFeller.Splinter
p3357
ssS'2190048'
p3358
(dp3359
g3
V\u63a7\u5236\u5404\u7a2emcMMO\u968a\u4f0d\u8a2d\u7f6e
p3360
sg5
VControl various mcMMO party settings
p3361
sg7
VCommands.Description.party
p3362
ssS'4083020'
p3363
(dp3364
g239
V[[DARK_AQUA]]\u4ec0\u9ebc\u662f\u50ac\u5316?\u005cn[[YELLOW]]\u50ac\u5316\u52a0\u5feb\u91c0\u9020\u904e\u7a0b, \u7b49\u7d1a 1000 \u6642\u70ba 4x \u7684\u901f\u5ea6.\u005cn[[YELLOW]]\u9019\u500b\u80fd\u529b\u9810\u8a2d\u7b49\u7d1a 100 \u6642\u958b\u653e.
p3365
sg241
V[[DARK_AQUA]]How does Catalysis work?\u005cn[[YELLOW]]Catalysis speeds of the brewing process, with a\u005cn[[YELLOW]]max speed of 4x at level 1000.\u005cn[[YELLOW]]This ability is unlocked at level 100 by default.
p3366
sg243
VGuides.Alchemy.Section.1
p3367
ssS'3975696'
p3368
(dp3369
g3
V[[RED]]\u91c0\u9020\u901f\u5ea6: [[YELLOW]]{0}
p3370
sg5
V[[RED]]Brewing Speed: [[YELLOW]]{0}
p3371
sg7
VAlchemy.Catalysis.Speed
p3372
ssS'792122'
p3373
(dp3374
g3
V[[YELLOW]]\u640f\u64ca\u6280\u80fd\u4e0a\u5347\u4e86 {0}. \u7e3d\u7b49\u7d1a ({1})
p3375
sg5
V[[YELLOW]]Unarmed skill increased by {0}. Total ({1})
p3376
sg7
VUnarmed.Skillup
p3377
ssS'3790739'
p3378
(dp3379
g21
V[[GREEN]]\u63a5\u53d7\u9080\u8acb\uff0c\u4f60\u52a0\u5165\u4e86\u968a\u4f0d {0}
p3380
sg23
V[[GREEN]]Invite Accepted. You have joined party {0}
p3381
sg25
VCommands.Party.Invite.Accepted
p3382
ssS'4083024'
p3383
(dp3384
g239
V[[DARK_AQUA]]\u8abf\u914d\u7b2c 7 \u968e\u6bb5:\u005cn[[YELLOW]]\u6bd2\u99ac\u9234\u85af(Poisonous Potato)\u005cn[[DARK_AQUA]]\u8abf\u914d\u7b2c 8 \u968e\u6bb5:\u005cn[[YELLOW]]\u91d1\u860b\u679c(Golden Apple) (\u4e00\u822c)
p3385
sg241
V[[DARK_AQUA]]Concotions tier 7 ingredients:\u005cn[[YELLOW]]Poisonous Potato\u005cn\u005cn[[DARK_AQUA]]Concotions tier 8 ingredients:\u005cn[[YELLOW]]Golden Apple (regular)
p3386
sg243
VGuides.Alchemy.Section.6
p3387
ssS'4083025'
p3388
(dp3389
g239
V[[DARK_AQUA]]\u8abf\u914d\u7b2c 1 \u968e\u6bb5:\u005cn[[YELLOW]]\u70c8\u7130\u7c89(Blaze Powder), \u767c\u9175\u8718\u86db\u773c(Fermented Spider Eye), \u5e7d\u9748\u4e4b\u6dda(Ghast Tear), \u7d05\u77f3(Redstone),\u005cn[[YELLOW]]\u87a2\u77f3\u7c89(Glowstone Dust), \u7cd6(Sugar), \u9472\u91d1\u897f\u74dc(Glistering Melon), \u91d1\u80e1\u863f\u8514(Golden Carrot),\u005cn[[YELLOW]]\u7194\u5ca9\u7403(Magma Cream), \u5730\u7344\u7599\u7629(Nether Wart), \u8718\u86db\u773c(Spider Eye), \u706b\u85e5(Suplhur), \u8377\u8449(Water Lily),\u005cn[[YELLOW]]\u6cb3\u8c5a(Pufferfish)
p3390
sg241
V[[DARK_AQUA]]Concotions tier 1 ingredients:\u005cn[[YELLOW]]Blaze Powder, Fermented Spider Eye, Ghast Tear, Redstone,\u005cn[[YELLOW]]Glowstone Dust, Sugar, Glistering Melon, Golden Carrot,\u005cn[[YELLOW]]Magma Cream, Nether Wart, Spider Eye, Suplhur, Water Lily,\u005cn[[YELLOW]]Pufferfish
p3391
sg243
VGuides.Alchemy.Section.3
p3392
ssS'792012'
p3393
(dp3394
g3
V\u5c0d\u7121\u88dd\u7532\u6575\u4eba\u984d\u5916\u9020\u6210 {0} \u50b7\u5bb3
p3395
sg5
VDeal {0} Bonus DMG to unarmored foes
p3396
sg7
VAxes.Ability.Bonus.5
p3397
ssS'791789'
p3398
(dp3399
g3
V[[RED]]\u6b64\u73a9\u5bb6\u4e0d\u5b58\u5728\uff01
p3400
sg5
V[[RED]]Player does not exist in the database!
p3401
sg7
VCommands.DoesNotExist
p3402
ssS'2217090'
p3403
(dp3404
g3
V[[DARK_GRAY]]\u5171\u4eab\u7269\u54c1: [[GRAY]][[ITALIC]]{0}
p3405
sg5
V[[DARK_GRAY]]Sharing Items: [[GRAY]][[ITALIC]]{0}
p3406
sg7
VCommands.Party.ItemShareCategories
p3407
ssS'792011'
p3408
(dp3409
g3
V\u5f37\u529b\u653b\u64ca
p3410
sg5
VGreater Impact
p3411
sg7
VAxes.Ability.Bonus.4
p3412
ssS'3633769'
p3413
(dp3414
g3
V[[DARK_AQUA]]\u4ec0\u9ebc\u662f\u6416\u6643?[[YELLOW]]\u9019\u500b\u6280\u80fd\u8b93\u4f60\u53ef\u4ee5\u5f9e\u602a\u7269\u8eab\u4e0a\u626f\u4e0b\u5bf6\u7269.[[YELLOW]]\u53ea\u8981\u4f7f\u7528\u91e3\u7aff\u91e3\u602a\u7269,[[YELLOW]]\u80fd\u91e3\u51fa\u602a\u7269\u6b7b\u4ea1\u6642\u6703\u6389\u7684\u5bf6\u7269.[[YELLOW]]\u9019\u6280\u80fd\u751a\u81f3\u80fd\u91e3\u51fa\u8eab\u5b58\u6a21\u5f0f\u7121\u6cd5\u7372\u5f97\u7684[[YELLOW]]\u602a\u7269\u982d\u9871.
p3415
sg5
V[[DARK_AQUA]]How does Shake work?\u005cn[[YELLOW]]This active ability allows you to shake items loose from mobs\u005cn[[YELLOW]]by hooking them with the fishing rod. \u005cn[[YELLOW]]Mobs will drop items they would normally drop on death.\u005cn[[YELLOW]]It is also possible to acquire mob skulls, which are normally \u005cn[[YELLOW]]unobtainable in survival mode.
p3416
sg7
VGuides.Fishing.Section.4
p3417
ssS'3975695'
p3418
(dp3419
g3
V[[RED]]\u8abf\u914d\u7b49\u7d1a: [[YELLOW]]{0}
p3420
sg5
V[[RED]]Concoctions Rank: [[YELLOW]]{0}
p3421
sg7
VAlchemy.Concoctions.Rank
p3422
ssS'3633768'
p3423
(dp3424
g3
V[[DARK_AQUA]]\u91e3\u9b5a\u7684\u6ce8\u610f\u4e8b\u9805:[[YELLOW]]\u6389\u843d\u8a2d\u5b9a\u662f\u53ef\u8abf\u6574\u7684,[[YELLOW]]\u5404\u4f3a\u670d\u5668\u53ef\u80fd\u6709\u6240\u4e0d\u540c.
p3425
sg5
V[[DARK_AQUA]]Notes about Fishing:\u005cn[[YELLOW]]Fishing drops are completely customizable,\u005cn[[YELLOW]]so results vary server to server.
p3426
sg7
VGuides.Fishing.Section.6
p3427
ssS'792020'
p3428
(dp3429
g3
V\u6316\u7926
p3430
sg5
VMINING
p3431
sg7
VMining.SkillName
p3432
ssS'3975693'
p3433
(dp3434
g3
V[[YELLOW]]\u934a\u91d1\u8853\u6280\u80fd\u4e0a\u5347\u4e86 {0}. \u7e3d\u7b49\u7d1a ({1})
p3435
sg5
V[[YELLOW]]Alchemy skill increased by {0}. Total ({1})
p3436
sg7
VAlchemy.Skillup
p3437
ssS'791892'
p3438
(dp3439
g3
V[[GREEN]]**\u5b8c\u7f8e\u8457\u9678**
p3440
sg5
V[[GREEN]]**Graceful Landing**
p3441
sg7
VAcrobatics.Ability.Proc
p3442
ssS'791893'
p3443
(dp3444
g21
V[[RED]]- \u96e2\u958b\u4f60\u73fe\u5728\u7684\u968a\u4f0d
p3445
sg23
V[[RED]]- Leave your current party
p3446
sg25
VCommands.Party.Quit
p3447
ssS'792021'
p3448
(dp3449
g3
V\u99b4\u7378
p3450
sg5
VTAMING
p3451
sg7
VTaming.SkillName
p3452
ssS'791896'
p3453
(dp3454
g3
V\u7528\u8db3\u5920\u7684\u529b\u91cf\u4f86\u7a81\u7834\u88dd\u7532
p3455
sg5
VStrike with enough force to shatter armor
p3456
sg7
VAxes.Effect.7
p3457
ssS'3975690'
p3458
(dp3459
g3
V\u934a\u91d1\u8853
p3460
sg5
VALCHEMY
p3461
sg7
VAlchemy.SkillName
p3462
ssS'791895'
p3463
(dp3464
g3
V[[GREEN]]{0}[[DARK_GREEN]] \u4f7f\u7528\u4e86 [[RED]]\u66b4\u8d70\u947d\u982d!
p3465
sg5
V[[GREEN]]{0}[[DARK_GREEN]] has used [[RED]]Giga Drill Breaker!
p3466
sg7
VExcavation.Skills.GigaDrillBreaker.Other.On
p3467
ssS'791863'
p3468
(dp3469
g3
V\u7bad\u8853:
p3470
sg5
VArchery:
p3471
sg7
VArchery.Listener
p3472
ssS'791898'
p3473
(dp3474
g3
V[[GREEN]]**\u555f\u52d5\u4f10\u6728\u5de5**
p3475
sg5
V[[GREEN]]**TREE FELLER ACTIVATED**
p3476
sg7
VWoodcutting.Skills.TreeFeller.On
p3477
ssS'792014'
p3478
(dp3479
g3
V\u5c0d\u6709\u88dd\u7532\u6575\u4eba\u984d\u5916\u9020\u6210 {0} \u50b7\u5bb3
p3480
sg5
VDeal {0} Bonus DMG to armor
p3481
sg7
VAxes.Ability.Bonus.3
p3482
ssS'791867'
p3483
(dp3484
g3
V\u5272\u88c2\u65ac (\u4e3b\u52d5\u6280\u80fd)
p3485
sg5
VSerrated Strikes (ABILITY)
p3486
sg7
VSwords.Effect.2
p3487
ssS'792027'
p3488
(dp3489
g3
V[[RED]]**\u5288\u9871\u65ac\u5df2\u7d50\u675f**
p3490
sg5
V[[RED]]**Skull Splitter has worn off**
p3491
sg7
VAxes.Skills.SS.Off
p3492
ssS'792138'
p3493
(dp3494
g3
V\u9435\u81c2\u98a8\u683c
p3495
sg5
VIron Arm Style
p3496
sg7
VUnarmed.Effect.4
p3497
ssS'792139'
p3498
(dp3499
g3
V\u8b93\u5f13\u7bad\u504f\u5411
p3500
sg5
VDeflect arrows
p3501
sg7
VUnarmed.Effect.7
p3502
ssS'791719'
p3503
(dp3504
g3
V[[YELLOW]]\u96dc\u6280\u7b49\u7d1a\u4e0a\u5347\u4e86{0}. \u7e3d\u7b49\u7d1a ({1})
p3505
sg5
V[[YELLOW]]Acrobatics skill increased by {0}. Total ({1})
p3506
sg7
VAcrobatics.Skillup
p3507
ssS'792024'
p3508
(dp3509
g3
V\u653b\u64ca\u602a\u7269
p3510
sg5
VAttacking Monsters
p3511
sg7
VCommands.XPGain.Unarmed
p3512
ssS'792130'
p3513
(dp3514
g3
V[[DARK_RED]]**\u5272\u88c2\u65ac\u5df2\u7d50\u675f**
p3515
sg5
V[[RED]]**Serrated Strikes has worn off**
p3516
sg7
VSwords.Skills.SS.Off
p3517
ssS'791714'
p3518
(dp3519
g3
V\u8349\u85e5\u5b78:
p3520
sg5
VHerbalism:
p3521
sg7
VHerbalism.Listener
p3522
ssS'2456031'
p3523
(dp3524
g3
V\u5782\u91e3\u5927\u5e2b
p3525
sg5
VMaster Angler
p3526
sg7
VFishing.Effect.8
p3527
ssS'792025'
p3528
(dp3529
g3
V[[YELLOW]]mcMMO \u795e\u4e4b\u6a21\u5f0f\u958b\u555f
p3530
sg5
V[[YELLOW]]mcMMO Godmode Enabled
p3531
sg7
VCommands.GodMode.Enabled
p3532
ssS'792134'
p3533
(dp3534
g3
V\u72c2\u66b4 (\u4e3b\u52d5\u6280\u80fd)
p3535
sg5
VBerserk (ABILITY)
p3536
sg7
VUnarmed.Effect.0
p3537
ssS'792135'
p3538
(dp3539
g3
V\u4f7f\u6575\u4eba\u624b\u4e2d\u6b66\u5668\u6389\u843d
p3540
sg5
VDrops the foes item held in hand
p3541
sg7
VUnarmed.Effect.3
p3542
ssS'792136'
p3543
(dp3544
g3
V\u64ca\u843d\u6b66\u5668 (\u50c5\u9650\u65bc\u73a9\u5bb6)
p3545
sg5
VDisarm (Players)
p3546
sg7
VUnarmed.Effect.2
p3547
ssS'791712'
p3548
(dp3549
g3
V[[DARK_RED]]\u982d\u6688\u76ee\u7729...
p3550
sg5
V[[DARK_RED]]Touched Fuzzy. Felt Dizzy.
p3551
sg7
VCombat.TouchedFuzzy
p3552
ssS'4081059'
p3553
(dp3554
g3
V[[RED]]---[][[GREEN]]\u5176\u4ed6\u6307\u4ee4[[RED]][]---
p3555
sg5
V[[RED]]---[][[GREEN]]OTHER COMMANDS[[RED]][]---
p3556
sg7
VCommands.Other
p3557
ssS'4081058'
p3558
(dp3559
g3
V[[GREEN]]- \u767c\u51fa\u968a\u4f0d\u8acb\u6c42
p3560
sg5
V[[GREEN]]- Send party invite
p3561
sg7
VCommands.Party.Invite
p3562
ssS'4081057'
p3563
(dp3564
g3
V[[GREEN]]- \u67e5\u770b\u4f60\u7684 mcMMO \u72c0\u614b
p3565
sg5
V[[GREEN]]- View your mcMMO stats
p3566
sg7
VCommands.Stats
p3567
ssS'4081056'
p3568
(dp3569
g3
V[[GREEN]]- \u96e2\u958b\u4f60\u76ee\u524d\u7684\u968a\u4f0d
p3570
sg5
V[[GREEN]]- Leave your current party
p3571
sg7
VCommands.Party.Quit
p3572
ssS'4081055'
p3573
(dp3574
g3
V[[GREEN]]- \u5275\u9020\u4e00\u500b\u65b0\u7684\u968a\u4f0d
p3575
sg5
V[[GREEN]]- Create a new party
p3576
sg7
VCommands.Party1
p3577
ssS'791977'
p3578
(dp3579
g3
V[[DARK_RED]]\u4f60\u7121\u6cd5\u4fee\u7406\u758a\u52a0\u7684\u7269\u54c1
p3580
sg5
V[[DARK_RED]]You can't repair stacked items.
p3581
sg7
VRepair.Skills.StackedItems
p3582
ssS'4081053'
p3583
(dp3584
g3
V[[GREEN]]- \u5207\u63db\u4e0a\u5e1d\u6a21\u5f0f
p3585
sg5
V[[GREEN]]- Toggle GodMode
p3586
sg7
VCommands.mcgod
p3587
ssS'4081052'
p3588
(dp3589
g3
V[[GREEN]]- \u95b1\u8b80\u6a21\u7d44\u7c21\u4ecb
p3590
sg5
V[[GREEN]]- Read brief mod description
p3591
sg7
VCommands.ModDescription
p3592
ssS'4081051'
p3593
(dp3594
g3
V[[GREEN]]- \u63a5\u53d7\u968a\u4f0d\u9080\u8acb
p3595
sg5
V[[GREEN]]- Accept party invite
p3596
sg7
VCommands.Party.Accept
p3597
ssS'2127503'
p3598
(dp3599
g3
V[[RED]]{0} \u79d2\u5f8c\u51b7\u537b\u6642\u9593\u5b8c\u7562.
p3600
sg5
V[[RED]]{0}''s cooldowns have been refreshed.
p3601
sg7
VCommands.mcrefresh.Success
p3602
ssS'2115560'
p3603
(dp3604
g3
V[[BLUE]] \u5927\u91cf\u734e\u52f5
p3605
sg5
V[[BLUE]] Rain Bonus
p3606
sg7
VFishing.Chance.Raining
p3607
ssS'2115567'
p3608
(dp3609
g3
V[[DARK_RED]]\u4f60\u9700\u8981\u66f4\u591a[[GRAY]]{0}
p3610
sg5
V[[DARK_RED]]You need more [[GRAY]]{0}
p3611
sg7
VSkills.NeedMore
p3612
ssS'3975698'
p3613
(dp3614
g3
V[[RED]]\u6210\u4efd [[[YELLOW]]{0}[[RED]]]: [[YELLOW]]{1}
p3615
sg5
V[[RED]]Ingredients [[[YELLOW]]{0}[[RED]]]: [[YELLOW]]{1}
p3616
sg7
VAlchemy.Concoctions.Ingredients
p3617
ssS'791945'
p3618
(dp3619
g3
V[[RED]]\u5288\u9871\u65ac[[GREEN]] \u5373\u5c07\u7ed3\u675f [[YELLOW]]{0}
p3620
sg5
V[[RED]]Skull Splitter[[GREEN]] has worn off for [[YELLOW]]{0}
p3621
sg7
VAxes.Skills.SS.Other.Off
p3622
ssS'3601292'
p3623
(dp3624
g3
V[[RED]]\u7206\u7834\u6316\u6398: [[YELLOW]] \u6392\u540d {0}/{1} [[GRAY]]({2})
p3625
sg5
V[[RED]]Blast Mining: [[YELLOW]] Rank {0}/{1} [[GRAY]]({2})
p3626
sg7
VMining.Blast.Rank
p3627
ssS'791739'
p3628
(dp3629
g3
V\u79cb\u98a8\u6383\u843d\u8449
p3630
sg5
VLeaf Blower
p3631
sg7
VWoodcutting.Ability.0
p3632
ssS'3785648'
p3633
(dp3634
g3
V\u7ba1\u7406\u4f60\u7684 mcMMO \u5f97\u5206\u699c
p3635
sg5
VManage your mcMMO Scoreboard
p3636
sg7
VCommands.Description.mcscoreboard
p3637
ssS'3785649'
p3638
(dp3639
g3
V\u005c  [[AQUA]]{0}[[WHITE]] - [[DARK_GREEN]] \u5df2\u53ef\u4f7f\u7528!
p3640
sg5
V\u005c  [[AQUA]]{0}[[WHITE]] - [[DARK_GREEN]]Ready!
p3641
sg7
VCommands.Cooldowns.Row.Y
p3642
ssS'3785644'
p3643
(dp3644
g3
V[[DARK_AQUA]]mcMMO \u5f97\u5206\u699c\u6703\u6301\u7e8c\u986f\u793a\u76f4\u5230\u4f60\u8f38\u5165 [[GREEN]]/mcscoreboard clear[[DARK_AQUA]].
p3645
sg5
V[[DARK_AQUA]]The mcMMO scoreboard will stay up until you use [[GREEN]]/mcscoreboard clear[[DARK_AQUA]].
p3646
sg7
VCommands.Scoreboard.Keep
p3647
ssS'3785647'
p3648
(dp3649
g3
V[[YELLOW]]mcMMO \u6392\u540d
p3650
sg5
V[[YELLOW]]mcMMO Rankings
p3651
sg7
VScoreboard.Header.PlayerRank
p3652
ssS'3399050'
p3653
(dp3654
g3
V[[RED]]\u6b63\u5728\u4f7f\u7528{0}\u516c\u5f0f
p3655
sg5
V[[RED]]Already using formula type {0}
p3656
sg7
VCommands.mcconvert.Experience.Same
p3657
ssS'3399051'
p3658
(dp3659
g3
V[[RED]]\u4e0d\u660e\u7684\u516c\u5f0f\u7a2e\u985e! \u6b63\u78ba\u7684\u7a2e\u985e\u70ba: [[GREEN]]LINEAR [[RED]]\u548c [[GREEN]]EXPONENTIAL.
p3660
sg5
V[[RED]]Unknown formula type! Valid types are: [[GREEN]]LINEAR [[RED]]and [[GREEN]]EXPONENTIAL.
p3661
sg7
VCommands.mcconvert.Experience.Invalid
p3662
ssS'3399052'
p3663
(dp3664
g3
V[[GRAY]]\u516c\u5f0f\u8f49\u63db\u5b8c\u6210; \u73fe\u5728\u958b\u59cb\u4f7f\u7528{0} XP\u66f2\u7dda.
p3665
sg5
V[[GRAY]]Formula conversion complete; now using {0} XP curve.
p3666
sg7
VCommands.mcconvert.Experience.Finish
p3667
ssS'2138158'
p3668
(dp3669
g3
V[[RED]]\u4e00\u822c\u7d93\u9a57\u52a0\u4e58: [[YELLOW]]{0}x
p3670
sg5
V[[RED]]Vanilla XP Multiplier: [[YELLOW]]{0}x
p3671
sg7
VSmelting.Ability.VanillaXPBoost
p3672
ssS'792004'
p3673
(dp3674
g3
V[[YELLOW]]--mcMMO [[BLUE]]{0}[[YELLOW]] \u6392\u884c\u699c--
p3675
sg5
V[[YELLOW]]--mcMMO [[BLUE]]{0}[[YELLOW]] Leaderboard--
p3676
sg7
VCommands.Skill.Leaderboard
p3677
ssS'792005'
p3678
(dp3679
g3
V\u4fee\u7406
p3680
sg5
VRepairing
p3681
sg7
VCommands.XPGain.Repair
p3682
ssS'792007'
p3683
(dp3684
g3
V[[RED]]\u60f3\u628a\u7d93\u9a57\u503c\u7372\u5f97\u7387\u8abf\u70ba\u9810\u8a2d\u503c\u8acb\u8f38\u5165 /xprate reset
p3685
sg5
V[[RED]]Proper usage to restore the XP rate to default is /xprate reset
p3686
sg7
VCommands.xprate.proper.1
p3687
ssS'792000'
p3688
(dp3689
g3
V\u99b4\u7378\u4e4b\u80fd
p3690
sg5
VBeast Lore
p3691
sg7
VTaming.Effect.0
p3692
ssS'2124979'
p3693
(dp3694
g3
V[[GREEN]]\u4f60\u7684 {0} \u7b49\u7d1a\u88ab\u8a2d\u5b9a\u70ba {1}!
p3695
sg5
V[[GREEN]]Your level in {0} was set to {1}!
p3696
sg7
VCommands.mmoedit.Modified.1
p3697
ssS'792002'
p3698
(dp3699
g3
V\u6bdb\u76ae\u5f37\u5316
p3700
sg5
VThick Fur
p3701
sg7
VTaming.Effect.8
p3702
ssS'792003'
p3703
(dp3704
g3
V\u524a\u6e1b\u706b\u7130\u50b7\u5bb3
p3705
sg5
VDMG Reduction, Fire Resistance
p3706
sg7
VTaming.Effect.9
p3707
ssS'2124974'
p3708
(dp3709
g3
V[[GREEN]]{0} \u6210\u70ba\u65b0\u968a\u9577.
p3710
sg5
V[[GREEN]]{0} is the new party leader.
p3711
sg7
VParty.Owner.New
p3712
ssS'2124975'
p3713
(dp3714
g3
V[[RED]]\u90a3\u4e0d\u662f\u4e00\u500b\u53ef\u7528\u7684HUD\u985e\u578b.
p3715
sg5
V[[RED]]That is not a valid HUD type.
p3716
sg7
VCommands.mchud.Invalid
p3717
ssS'2124976'
p3718
(dp3719
g3
V[[GOLD]]\u5c0f\u6487\u6b65: \u6253 [[RED]]/mcrank[[GOLD]] \u53ef\u4ee5\u89c0\u770b\u4f60\u7684\u6392\u540d!
p3720
sg5
V[[GOLD]]Tip: Use [[RED]]/mcrank[[GOLD]] to view all of your personal rankings!
p3721
sg7
VCommands.mctop.Tip
p3722
ssS'2124977'
p3723
(dp3724
g3
V*\u63a7\u5236\u53f0*
p3725
sg5
V*Console*
p3726
sg7
VCommands.Chat.Console
p3727
ssS'792008'
p3728
(dp3729
g3
V[[RED]]\u8acb\u8f38\u5165 true \u6216 false \u4f86\u8868\u793a\u9019\u662f\u4e00\u500b\u7d93\u9a57\u4e8b\u4ef6
p3730
sg5
V[[RED]]Please specify true or false to indicate if this is an xp event or not
p3731
sg7
VCommands.xprate.proper.2
p3732
ssS'792009'
p3733
(dp3734
g3
V[[GREEN]][mcMMO] \u7684\u7d71\u8a08\u8a0a\u606f [[YELLOW]]{0}
p3735
sg5
V[[GREEN]]mcMMO Stats for [[YELLOW]]{0}
p3736
sg7
VInspect.Stats
p3737
ssS'2124973'
p3738
(dp3739
g3
V[[DARK_RED]]\u56e0\u9592\u7f6e\u904e\u4e45,\u968a\u9577\u81ea\u52d5\u8f49\u8b93.
p3740
sg5
V[[DARK_RED]]You are no longer the party leader.
p3741
sg7
VParty.Owner.NotLeader
p3742
ssS'791809'
p3743
(dp3744
g3
V[[GRAY]]**\u4f60\u653e\u4e0b\u4e86\u4f60\u7684\u93ac\u5b50**
p3745
sg5
V[[GRAY]]**YOU LOWER YOUR PICKAXE**
p3746
sg7
VMining.Ability.Lower
p3747
ssS'791808'
p3748
(dp3749
g3
V[[YELLOW]]\u6316\u6398\u6280\u80fd\u4e0a\u5347\u4e86 {0}. \u7e3d\u7b49\u7d1a ({1})
p3750
sg5
V[[YELLOW]]Excavation skill increased by {0}. Total ({1})
p3751
sg7
VExcavation.Skillup
p3752
ssS'791801'
p3753
(dp3754
g3
V\u6316\u6398:
p3755
sg5
VExcavation:
p3756
sg7
VExcavation.Listener
p3757
ssS'791803'
p3758
(dp3759
g3
V[[YELLOW]]\u99b4\u7378\u6280\u80fd\u4e0a\u5347\u4e86 {0}. \u7e3d\u7b49\u7d1a ({1})
p3760
sg5
V[[YELLOW]]Taming skill increased by {0}. Total ({1})
p3761
sg7
VTaming.Skillup
p3762
ssS'791802'
p3763
(dp3764
g3
V[[RED]]\u4f60\u4e0d\u80fd\u50b3\u9001\u81f3\u6b7b\u4ea1\u7684\u73a9\u5bb6\u65c1
p3765
sg5
V[[RED]]You can't teleport to a dead player.
p3766
sg7
VParty.Teleport.Dead
p3767
ssS'791805'
p3768
(dp3769
g3
V\u4f60\u904e\u5ea6\u75b2\u52de\u5fc5\u9808\u7b49\u5f85\u4e00\u6bb5\u6642\u9593\u5f8c\u624d\u53ef\u4f7f\u7528. [[YELLOW]]({0}s)
p3770
sg5
VYou were injured recently and must wait to use this. [[YELLOW]]({0}s)
p3771
sg7
VItem.Injured.Wait
p3772
ssS'791807'
p3773
(dp3774
g3
V[[RED]]\u72c2\u66b4\u6301\u7e8c\u6642\u9593: [[YELLOW]]{0}s
p3775
sg5
V[[RED]]Berserk Length: [[YELLOW]]{0}s
p3776
sg7
VUnarmed.Ability.Berserk.Length
p3777
ssS'791806'
p3778
(dp3779
g21
V[[RED]]- \u8acb\u95b1\u8b80\u63d2\u4ef6\u63cf\u8ff0
p3780
sg23
V[[RED]]- Read brief mod description
p3781
sg25
VCommands.ModDescription
p3782
ssS'2190025'
p3783
(dp3784
g3
V\u6a5f\u7387
p3785
sg5
Vrate
p3786
sg7
VCommands.Usage.Rate
p3787
ssS'2190027'
p3788
(dp3789
g3
V\u986f\u793amcMMO\u7684\u7c21\u8981\u8aaa\u660e
p3790
sg5
VShow a brief description of mcMMO
p3791
sg7
VCommands.Description.mcmmo
p3792
ssS'2190026'
p3793
(dp3794
g3
V\u5207\u63dbmcMMO\u7ba1\u7406\u54e1\u804a\u5929\u958b/\u95dc\u6216\u767c\u9001\u7d66\u7ba1\u7406\u54e1\u7684\u804a\u5929\u6d88\u606f
p3795
sg5
VToggle mcMMO admin chat on/off or send admin chat messages
p3796
sg7
VCommands.Description.adminchat
p3797
ssS'791937'
p3798
(dp3799
g3
V[[GREEN]]**\u4f60\u63e1\u7dca\u4e86\u4f60\u7684\u65a7\u982d**
p3800
sg5
V[[GREEN]]**YOU READY YOUR AXE**
p3801
sg7
VAxes.Ability.Ready
p3802
ssS'3607281'
p3803
(dp3804
g3
V[[GREEN]]\u6210\u529f!\u4f60\u7684mcMMO\u8cc7\u6599\u5df2\u8f09\u5165.
p3805
sg5
V[[GREEN]]Success! Your mcMMO data was loaded.
p3806
sg7
VRecovery.Success
p3807
ssS'3607280'
p3808
(dp3809
g3
V[[DARK_RED]][A][[RED]]mcMMO\u7121\u6cd5\u8f09\u5165\u73a9\u5bb6[[YELLOW]]{0}[[RED]]\u7684\u8cc7\u6599. [[LIGHT_PURPLE]]\u8acb\u6aa2\u67e5\u4f60\u7684\u8cc7\u6599\u5eab\u6216\u8a2d\u5b9a.
p3810
sg5
V[[DARK_RED]][A][[RED]] mcMMO was unable to load the player data for [[YELLOW]]{0}[[RED]]. [[LIGHT_PURPLE]]Please inspect your database setup.
p3811
sg7
VRecovery.AdminFailureNotice
p3812
ssS'791955'
p3813
(dp3814
g3
V[[RED]]\u56e0\u8ddd\u96e2\u592a\u9060\u7121\u6cd5\u67e5\u770b\u90a3\u4f4d\u73a9\u5bb6!
p3815
sg5
V[[RED]]You are too far away to inspect that player!
p3816
sg7
VInspect.TooFar
p3817
ssS'893568'
p3818
(dp3819
g3
V[[RED]]\u653e\u8840\u6a5f\u7387: [[YELLOW]]{0}
p3820
sg5
V[[RED]]Bleed Chance: [[YELLOW]]{0}
p3821
sg7
VSwords.Combat.Bleed.Chance
p3822
ssS'3587658'
p3823
(dp3824
g3
V[[DARK_AQUA]]\u95dc\u65bc\u96dc\u6280:[[YELLOW]]\u96dc\u6280\u53ef\u4ee5\u8b93\u4f60\u5728MMO\u88e1\u73a9\u5f97\u5f88\u512a\u96c5.[[YELLOW]]\u5b83\u53ef\u4ee5\u8b93\u4f60\u5728\u6230\u9b25\u4e2d\u53ca\u74b0\u5883\u4e2d\u53d6\u5f97\u512a\u52e2.[[DARK_AQUA]]\u7d93\u9a57\u5982\u4f55\u7372\u53d6:[[YELLOW]]\u5728\u6230\u9b25\u4e2d\u9583\u8eb2\u653b\u64ca\u6216\u5f9e\u9ad8\u8655\u589c\u843d\u5c07[[YELLOW]]\u53ef\u7372\u5f97\u7d93\u9a57.
p3825
sg5
V[[DARK_AQUA]]About Acrobatics:\u005cn[[YELLOW]]Acrobatics is the art of moving gracefully in mcMMO.\u005cn[[YELLOW]]It provides combat bonuses and environment damage bonuses.\u005cn\u005cn[[DARK_AQUA]]XP GAIN:\u005cn[[YELLOW]]To gain XP in this skill you need to perform a dodge\u005cn[[YELLOW]]in combat or survive falls from heights that damage you.
p3826
sg7
VGuides.Acrobatics.Section.0
p3827
ssS'3587636'
p3828
(dp3829
g3
V[[DARK_AQUA]]\u4ec0\u9ebc\u662f\u65a7\u982d\u7cbe\u901a?[[YELLOW]]\u65a7\u982d\u7cbe\u901a\u53ef\u4ee5\u52a0\u4e58\u65a7\u982d\u7684\u57fa\u672c\u653b\u64ca \u529b[[YELLOW]]\u9810\u8a2d\u4e2d\u6bcf50\u7b49\u589e\u52a01\u9ede\u50b7\u5bb3(\u534a\u5fc3)[[YELLOW]]200\u7b49\u9054\u5230\u6975\u96504\u9ede\u50b7\u5bb3.
p3830
sg5
V[[DARK_AQUA]]How does Axe Mastery work?\u005cn[[YELLOW]]Axe Mastery is a passive ability that will add additional damage\u005cn[[YELLOW]]to your hits when using Axes.\u005cn[[YELLOW]]By default, the bonus damage increases by 1 every 50 levels,\u005cn[[YELLOW]]up to a cap of 4 extra damage at level 200.
p3831
sg7
VGuides.Axes.Section.3
p3832
ssS'3975697'
p3833
(dp3834
g3
V[[DARK_AQUA]]\u95dc\u65bc [[YELLOW]]mcMMO[[DARK_AQUA]] \u5c08\u6848:,[[GOLD]]mcMMO \u70ba [[BLUE]]nossr50[[GOLD]] \u5f9e 2011 \u4e8c\u6708\u958b\u59cb\u6240\u64b0\u5beb\u7684[[RED]]\u958b\u653e\u539f\u59cb\u78bc[[GOLD]] RPG \u6a21\u7d44[[GOLD]]. \u65e8\u5728\u63d0\u4f9b\u4e00\u500b\u9ad8\u54c1\u8cea\u7684 RPG \u9ad4\u9a57.,[[DARK_AQUA]]\u5c0f\u6280\u5de7:,[[GOLD]] - [[GREEN]]\u8f38\u5165 [[RED]]/mcmmo help[[GREEN]] \u4f86\u67e5\u770b\u6307\u4ee4,[[GOLD]] - [[GREEN]]\u8f38\u5165 [[RED]]/\u6280\u80fd\u540d\u7a31[[GREEN]] \u4f86\u67e5\u770b\u8a73\u7d30\u6280\u80fd\u8cc7\u8a0a,[[DARK_AQUA]]\u958b\u767c\u8005:,[[GOLD]] - [[GREEN]]nossr50 [[BLUE]](\u5275\u8fa6\u4eba),[[GOLD]] - [[GREEN]]GJ [[BLUE]](\u5c08\u6848\u9818\u5c0e\u4eba),[[GOLD]] - [[GREEN]]NuclearW [[BLUE]](\u958b\u767c\u8005),[[GOLD]] - [[GREEN]]bm01 [[BLUE]](\u958b\u767c\u8005),[[GOLD]] - [[GREEN]]TfT_02 [[BLUE]](\u958b\u767c\u8005),[[GOLD]] - [[GREEN]]Glitchfinder [[BLUE]](\u958b\u767c\u8005),[[GOLD]] - [[GREEN]]t00thpick1 [[BLUE]](\u958b\u767c\u8005),[[GOLD]] - [[GREEN]]EasyMFnE [[BLUE]](\u958b\u767c\u8005),[[DARK_AQUA]]\u5be6\u7528\u9023\u7d50:,[[GOLD]] - [[GREEN]]https://github.com/mcMMO-Dev/mcMMO/issues[[GOLD]] \u56de\u5831\u81ed\u87f2,[[GOLD]] - [[GREEN]]#mcmmo @ irc.esper.net[[GOLD]] IRC \u804a\u5929\u983b\u9053,
p3835
sg5
V[[DARK_AQUA]]About the [[YELLOW]]mcMMO[[DARK_AQUA]] Project:,[[GOLD]]mcMMO is an [[RED]]open source[[GOLD]] RPG mod created in February 2011,[[GOLD]]by [[BLUE]]nossr50[[GOLD]]. The goal is to provide a quality RPG experience.,[[DARK_AQUA]]Tips:,[[GOLD]] - [[GREEN]]Use [[RED]]/mcmmo help[[GREEN]] to see commands,[[GOLD]] - [[GREEN]]Type [[RED]]/SKILLNAME[[GREEN]] to see detailed skill info,[[DARK_AQUA]]Developers:,[[GOLD]] - [[GREEN]]nossr50 [[BLUE]](Founder),[[GOLD]] - [[GREEN]]GJ [[BLUE]](Project Lead),[[GOLD]] - [[GREEN]]NuclearW [[BLUE]](Developer),[[GOLD]] - [[GREEN]]bm01 [[BLUE]](Developer),[[GOLD]] - [[GREEN]]TfT_02 [[BLUE]](Developer),[[GOLD]] - [[GREEN]]Glitchfinder [[BLUE]](Developer),[[GOLD]] - [[GREEN]]t00thpick1 [[BLUE]](Developer),[[GOLD]] - [[GREEN]]EasyMFnE [[BLUE]](Developer),[[DARK_AQUA]]Useful Links:,[[GOLD]] - [[GREEN]]https://github.com/mcMMO-Dev/mcMMO/issues[[GOLD]] Bug Reporting,[[GOLD]] - [[GREEN]]#mcmmo @ irc.esper.net[[GOLD]] IRC Chat,
p3836
sg7
VmcMMO.Description
p3837
ssS'3785663'
p3838
(dp3839
g3
V[[GREEN]]\u76ee\u524d\u7d93\u9a57\u503c
p3840
sg5
V[[GREEN]]Current XP
p3841
sg7
VScoreboard.Misc.CurrentXP
p3842
ssS'791935'
p3843
(dp3844
g3
V[mcMMO] \u968a\u4f0d\u529f\u80fd\u4e0d\u5141\u8a31\u5728\u9019\u4e16\u754c\u958b\u555f (\u8acb\u89c0\u770b\u6b0a\u9650\u8a2d\u5b9a)
p3845
sg5
V[mcMMO] Parties not permitted on this world (See Permissions)
p3846
sg7
VParty.Forbidden
p3847
ssS'791866'
p3848
(dp3849
g3
V[[GREEN]]{0}[[DARK_GREEN]] \u4f7f\u7528\u4e86 [[RED]]\u7da0\u5316!
p3850
sg5
V[[GREEN]]{0}[[DARK_GREEN]] has used [[RED]]Green Terra!
p3851
sg7
VHerbalism.Skills.GTe.Other.On
p3852
ssS'791936'
p3853
(dp3854
g3
V[[RED]]**\u8d85\u7d1a\u788e\u77f3\u6a5f\u5df2\u7ed3\u675f**
p3855
sg5
V[[RED]]**Super Breaker has worn off**
p3856
sg7
VMining.Skills.SuperBreaker.Off
p3857
ssS'2137875'
p3858
(dp3859
g3
V{0} \u50b7\u5bb3\u7bc4\u570d, \u653e\u8840\u7bc4\u570d
p3860
sg5
V{0} DMG AoE, Bleed+ AoE
p3861
sg7
VSwords.Effect.3
p3862
ssS'2137874'
p3863
(dp3864
g3
V\u8ff7\u60d1\u6575\u4eba\u4e26\u9020\u6210 {0}\u9ede\u50b7\u5bb3
p3865
sg5
VDisorients foes and deals {0} DMG
p3866
sg7
VArchery.Effect.3
p3867
ssS'2137876'
p3868
(dp3869
g3
V{0} \u6d41\u8840\u9031\u671f
p3870
sg5
V{0} Tick Bleed
p3871
sg7
VSwords.Effect.5
p3872
ssS'2137879'
p3873
(dp3874
g3
V\u7206\u70b8\u50b7\u5bb3\u6e1b\u514d\u70ba 1/{0} 
p3875
sg5
VExplosives do 1/{0} normal damage
p3876
sg7
VTaming.Ability.Bonus.5
p3877
ssS'3864601'
p3878
(dp3879
g21
V\u7d93\u9a57\u503c
p3880
sg23
VXP
p3881
sg25
VParty.ShareType.Xp
p3882
ssS'3864602'
p3883
(dp3884
g21
V[[DARK_GRAY]]\u540d\u7a31: [[WHITE]]{0} {1} [[DARK_GRAY]]\u7b49\u7d1a: [[DARK_AQUA]]{2}
p3885
sg23
V[[DARK_GRAY]]NAME: [[WHITE]]{0} {1} [[DARK_GRAY]]LEVEL: [[DARK_AQUA]]{2}
p3886
sg25
VCommands.Party.Status
p3887
ssS'3864603'
p3888
(dp3889
g21
V[[YELLOW]]\u968a\u4f0d\u7b49\u7d1a\u4e0a\u5347\u4e86 {0}. \u7e3d\u7b49\u7d1a ({1})
p3890
sg23
V[[YELLOW]]Party level increased by {0}. Total ({1})
p3891
sg25
VParty.LevelUp
p3892
ssS'791939'
p3893
(dp3894
g3
V[[GOLD]] mcMMO \u7d93\u9a57\u52a0\u500d\u6642\u6bb5\u958b\u59cb!
p3895
sg5
V[[GOLD]]XP EVENT FOR mcMMO HAS STARTED!
p3896
sg7
VCommands.xprate.started.0
p3897
ssS'3587688'
p3898
(dp3899
g3
V[[DARK_AQUA]]\u95dc\u65bc\u91e3\u9b5a:[[YELLOW]]\u6709\u4e86\u91e3\u9b5a\u6280\u80fd,\u91e3\u9b5a\u66f4\u6709\u8da3\u4e86![[YELLOW]]\u53ef\u4ee5\u6389\u5bf6\u7269,\u5f9e\u602a\u7269\u8eab\u4e0a\u76dc\u5bf6.[[DARK_AQUA]]\u7372\u53d6\u7d93\u9a57:[[YELLOW]]\u6293\u5230\u9b5a.
p3900
sg5
V[[DARK_AQUA]]About Fishing:\u005cn[[YELLOW]]With the Fishing skill, Fishing is exciting again!\u005cn[[YELLOW]]Find hidden treasures, and shake items off mobs.\u005cn\u005cn[[DARK_AQUA]]XP GAIN:\u005cn[[YELLOW]]Catch fish.
p3901
sg7
VGuides.Fishing.Section.0
p3902
ssS'3587689'
p3903
(dp3904
g3
V[[DARK_AQUA]]\u4ec0\u9ebc\u662f\u4f10\u6728\u5de5?[[YELLOW]]\u4f10\u6728\u5de5\u662f\u4e3b\u52d5\u6280\u80fd,\u6301\u6709\u65a7\u982d\u6642\u9ede\u53f3\u9375[[YELLOW]]\u53ef\u4ee5\u767c\u52d5.\u5c07\u5c0e\u81f4\u6574\u68f5\u6a39\u6728\u76f4\u63a5\u7834\u58de,[[YELLOW]]\u6240\u6709\u679d\u8449\u90fd\u5c07\u6389\u843d.
p3905
sg5
V[[DARK_AQUA]]How does Tree Feller work?\u005cn[[YELLOW]]Tree Feller is an active ability, you can right-click\u005cn[[YELLOW]]while holding an ax to activate Tree Feller. This will\u005cn[[YELLOW]]cause the entire tree to break instantly, dropping all\u005cn[[YELLOW]]of its logs at once.
p3906
sg7
VGuides.Woodcutting.Section.1
p3907
ssS'4083022'
p3908
(dp3909
g239
V[[DARK_AQUA]]\u4ec0\u9ebc\u662f\u8abf\u914d?\u005cn[[YELLOW]]\u8abf\u914d\u5141\u8a31\u4f7f\u7528\u81ea\u8a02\u914d\u65b9\u4f86\u91c0\u9020\u66f4\u591a\u7a2e\u985e\u7684\u85e5\u6c34.\u005cn[[YELLOW]]\u7279\u6b8a\u7684\u914d\u65b9\u5c07\u4f9d\u7167\u4f60\u7684\u7b49\u7d1a\u4f86\u89e3\u9396. \u005cn[[YELLOW]]\u7e3d\u5171\u6709 8 \u500b\u7b49\u7d1a\u53ef\u89e3\u9396.
p3910
sg241
V[[DARK_AQUA]]How does Concoctions work?\u005cn[[YELLOW]]Concoctions allows brewing of more potions with custom ingredients.\u005cn[[YELLOW]]Which special ingredients are unlocked is determined\u005cn[[YELLOW]]by your Rank. There are 8 ranks to unlock.
p3911
sg243
VGuides.Alchemy.Section.2
p3912
ssS'791931'
p3913
(dp3914
g21
V[[RED]]- \u67e5\u770b\u4f60\u7684mcMMO\u7d71\u8a08\u8a0a\u606f
p3915
sg23
V[[RED]]- View your mcMMO stats
p3916
sg25
VCommands.Stats
p3917
ssS'3587680'
p3918
(dp3919
g3
V[[DARK_AQUA]]\u4ec0\u9ebc\u662f\u56de\u6536?[[YELLOW]]\u5c07\u624b\u4e2d\u7684\u7269\u54c1\u5c0dmcMMO\u56de\u6536\u7827(\u9810\u8a2d\u91d1\u78da)[[YELLOW]]\u9ede\u64ca\u53f3\u9375. \u6703\u5c07\u7269\u54c1\u62c6\u89e3\u56de\u6240\u4f7f\u7528\u7684\u539f\u6599.[[YELLOW]]\u6ce8\u610f: \u4f60\u53ea\u80fd\u56de\u6536\u7121\u8017\u640d\u7684\u5de5\u5177\u6216\u88dd\u5099
p3920
sg5
V[[DARK_AQUA]]How does Salvage work?\u005cn[[YELLOW]]Place down a mcMMO Salvage Anvil and right-click to salvage\u005cn[[YELLOW]]the item you're currently holding.\u005cn[[YELLOW]]This will break the item apart en give back the used ingots.\u005cn[[YELLOW]]Note: You can only salvage fully repaired tools or armor.
p3921
sg7
VGuides.Repair.Section.5
p3922
ssS'3587681'
p3923
(dp3924
g3
V[[DARK_AQUA]]\u4ec0\u9ebc\u662f\u9435\u81c2?[[YELLOW]]\u9435\u81c2\u80fd\u589e\u52a0\u5f92\u624b\u653b\u64ca\u602a\u7269\u6216[[YELLOW]]\u73a9\u5bb6\u7684\u5a01\u529b.
p3925
sg5
V[[DARK_AQUA]]How does Iron Arm work?\u005cn[[YELLOW]]Iron Arm increases the damage dealt when hitting mobs or\u005cn[[YELLOW]]players with your fists.
p3926
sg7
VGuides.Unarmed.Section.2
p3927
ssS'3587682'
p3928
(dp3929
g3
V[[DARK_AQUA]]\u4ec0\u9ebc\u662f\u64ca\u843d\u5f13\u7bad?[[YELLOW]]\u64ca\u843d\u5f13\u7bad\u662f\u4e00\u500b\u88ab\u52d5\u6280\u80fd,\u8b93\u4f60\u6709\u6a5f\u7387[[YELLOW]]\u80fd\u64ca\u843d\u9ab7\u9acf\u7372\u73a9\u5bb6\u5c04\u5411\u4f60\u7684\u7bad.[[YELLOW]]\u7bad\u6703\u88ab\u64ca\u843d\u81f3\u5730\u9762.
p3930
sg5
V[[DARK_AQUA]]How does Arrow Deflect work?\u005cn[[YELLOW]]Arrow Deflect is a passive ability that gives you a chance\u005cn[[YELLOW]]to deflect arrows shot by Skeletons or other players.\u005cn[[YELLOW]]The arrow will fall harmlessly to the ground.
p3931
sg7
VGuides.Unarmed.Section.3
p3932
ssS'3587683'
p3933
(dp3934
g3
V[[DARK_AQUA]]\u640f\u64ca:[[YELLOW]]\u640f\u64ca\u8b93\u73a9\u5bb6\u5728\u4f7f\u7528\u62f3\u982d\u4f5c\u6230\u6642\u6709[[YELLOW]]\u5404\u7a2e\u52a0\u4e58\u6548\u679c.[[DARK_AQUA]]\u7d93\u9a57\u7372\u53d6:[[YELLOW]]\u5728\u7528\u624b\u653b\u64ca\u602a\u7269\u6216\u73a9\u5bb6\u6642\u53ef\u4ee5\u7372\u53d6\u7d93\u9a57.
p3935
sg5
V[[DARK_AQUA]]About Unarmed:\u005cn[[YELLOW]]Unarmed will give players various combat bonuses when using\u005cn[[YELLOW]]your fists as a weapon. \u005cn\u005cn[[DARK_AQUA]]XP GAIN:\u005cn[[YELLOW]]XP is gained based on the amount of damage dealt to mobs \u005cn[[YELLOW]]or other players when unarmed.
p3936
sg7
VGuides.Unarmed.Section.0
p3937
ssS'3587684'
p3938
(dp3939
g3
V[[DARK_AQUA]]\u4ec0\u9ebc\u662f\u72c2\u66b4?[[YELLOW]]\u72c2\u66b4\u662f\u4e3b\u52d5\u6280\u80fd,\u7a7a\u624b\u6642\u9ede\u64ca\u53f3\u9375\u767c\u52d5.[[YELLOW]]\u72c2\u66b4\u53ef\u4ee5\u52a0\u4e5850%\u5c0d\u65b9\u584a\u7684\u50b7\u5bb3,[[YELLOW]]\u4f7f\u4f60\u53ef\u4ee5\u8f15\u9b06\u7834\u58de\u8106\u5f31\u7269\u9ad4,[[YELLOW]]\u5982\u571f\u8207\u7802.
p3940
sg5
V[[DARK_AQUA]]How does Berserk work?\u005cn[[YELLOW]]Beserk is an active ability that is activated by\u005cn[[YELLOW]]right-clicking. While in Beserk mode, you deal 50% more\u005cn[[YELLOW]]damage and you can break weak materials instantly, such as\u005cn[[YELLOW]]Dirt and Grass.
p3941
sg7
VGuides.Unarmed.Section.1
p3942
ssS'3587685'
p3943
(dp3944
g3
V[[DARK_AQUA]]\u4ec0\u9ebc\u662f\u9435\u722a?[[YELLOW]]\u9435\u722a\u53ef\u4ee5\u6709\u6a5f\u7387\u4f7f\u64ca\u843d\u6b66\u5668\u7121\u6548\u5316.[[YELLOW]]\u6a5f\u7387\u95dc\u4fc2\u5230\u640f\u64ca\u6280\u80fd\u7b49\u7d1a.
p3945
sg5
V[[DARK_AQUA]]How does Iron Grip work?\u005cn[[YELLOW]]Iron Grip is a passive ability that counters disarm. As your\u005cn[[YELLOW]]unarmed level increases, the chance of preventing a disarm increases.
p3946
sg7
VGuides.Unarmed.Section.4
p3947
ssS'3917290'
p3948
(dp3949
g21
V[[RED]]-----[][[GREEN]]\u529f\u80fd[[RED]][]-----
p3950
sg23
V[[RED]]-----[][[GREEN]]FEATURES[[RED]][]-----
p3951
sg25
VCommands.Party.Features.Header
p3952
ssS'791899'
p3953
(dp3954
g3
V\u65a7\u982d\u7cbe\u901a
p3955
sg5
VAxe Mastery
p3956
sg7
VAxes.Effect.4
p3957
ssS'2662088'
p3958
(dp3959
g3
V[[GREEN]]\u518d\u6b21\u6309\u4e0b\u6ed1\u9f20\u53f3\u9375\u4f86\u78ba\u8a8d [[GOLD]]{0}[[GREEN]]. \u6ed1\u9f20\u5de6\u9375\u53d6\u6d88.
p3960
sg5
V[[GREEN]]Right-click again to confirm [[GOLD]]{0}[[GREEN]]. Left-click to cancel.
p3961
sg7
VSkills.ConfirmOrCancel
p3962
ssS'4083023'
p3963
(dp3964
g239
V[[DARK_AQUA]]\u8abf\u914d\u7b2c 5 \u968e\u6bb5:\u005cn[[YELLOW]]\u68d5\u8611\u83c7(Brown Mushroom), \u58a8\u56ca(Ink Sack)\u005cn[[DARK_AQUA]]\u8abf\u914d\u7b2c 6 \u968e\u6bb5:\u005cn[[YELLOW]]\u8292\u8349(Tall Grass)
p3965
sg241
V[[DARK_AQUA]]Concotions tier 5 ingredients:\u005cn[[YELLOW]]Brown Mushroom, Ink Sack\u005cn\u005cn[[DARK_AQUA]]Concotions tier 6 ingredients:\u005cn[[YELLOW]]Tall Grass
p3966
sg243
VGuides.Alchemy.Section.5
p3967
ssS'791930'
p3968
(dp3969
g3
V[[RED]]mcMMO \u7d93\u9a57\u52a0\u500d\u7ed3\u675f!!
p3970
sg5
V[[RED]]mcMMO XP Rate Event is OVER!!
p3971
sg7
VCommands.xprate.over
p3972
ssS'2190038'
p3973
(dp3974
g3
V \u6e05\u9664mcMMO\u6280\u80fd\u7b49\u7d1a\u70ba0\u6216\u8d85\u904e{0}\u500b\u6708\u672a\u767b\u5165\u7684\u7528\u6236\u8cc7\u6599.
p3975
sg5
VPurge users with no mcMMO levels and users who have not connected in over {0} months from the mcMMO database.
p3976
sg7
VCommands.Description.mcpurge
p3977
ssS'2190039'
p3978
(dp3979
g3
V\u4f7f\u7528\u53f3\u9375\u767c\u52d5mcMMO\u6280\u80fd(\u958b/\u95dc)
p3980
sg5
VToggle mcMMO abilities being readied on right-click on/off
p3981
sg7
VCommands.Description.mcability
p3982
ssS'3587633'
p3983
(dp3984
g3
V[[DARK_AQUA]]\u95dc\u65bc\u65a7\u6280:[[YELLOW]]\u6709\u4e86\u65a7\u6280, \u4f60\u5c31\u53ef\u4ee5\u4e0d\u5fc5\u53ea\u662f\u4e82\u63ee\u4e82\u780d[[YELLOW]]\u4f60\u53ef\u4ee5\u66f4\u6709\u6548\u5730\u64ca\u6bba\u53ef\u60e1\u7684\u602a\u7269\u5011![[YELLOW]]\u800c\u4e14\u53ef\u4ee5\u5728\u63ee\u64ca\u6642\u70b8\u98db\u6216\u767c\u51fa\u81f4\u547d\u7684\u66b4\u64ca[[YELLOW]]\u4ee5\u91cd\u5275 \u5c0d\u624b.[[YELLOW]]\u4f60\u7684\u65a7\u982d\u4e5f\u53ef\u4ee5\u6210\u70ba\u4e00\u53f0\u524a\u6728\u6a5f,[[YELLOW]]\u91cd\u5275\u5c0d\u624b\u7684\u88dd\u7532,\u96a8\u8457\u64cd\u65a7\u6280\u80fd\u5347\u9ad8\u800c[[YELLOW]]\u63d0\u5347\u6548\u679c.[[DARK_AQUA]]\u5982\u4f55\u7372\u53d6\u7d93\u9a57:[[YELLOW]]\u8981\u7372\u53d6\u7d93\u9a57\u4f60\u5fc5\u9808\u7528\u65a7\u982d\u653b\u64ca\u73a9\u5bb6\u6216\u602a\u7269
p3985
sg5
V[[DARK_AQUA]]About Axes:\u005cn[[YELLOW]]With the Axes skill you can use your axe for much more then\u005cn[[YELLOW]]just deforesting! You can hack and chop away at mobs\u005cn[[YELLOW]]and players to gain XP, hitting mobs with the effect of\u005cn[[YELLOW]]knockback and inflicting DEADLY criticals on mobs and players.\u005cn[[YELLOW]]Your axe also becomes a hand-held woodchipper,\u005cn[[YELLOW]]breaking down the enemy's armor with ease as your level\u005cn[[YELLOW]]increases.\u005cn[[DARK_AQUA]]XP GAIN:\u005cn[[YELLOW]]To gain XP in this skill you need hit other mobs or players\u005cn[[YELLOW]]with an Axe.
p3986
sg7
VGuides.Axes.Section.0
p3987
ssS'4091455'
p3988
(dp3989
g1002
V[[DARK_AQUA]]\u8abf\u914d\u7b2c 1 \u968e\u6bb5:\u005cn[[YELLOW]]\u70c8\u7130\u7c89(Blaze Powder), \u767c\u9175\u8718\u86db\u773c(Fermented Spider Eye), \u5e7d\u9748\u4e4b\u6dda(Ghast Tear), \u7d05\u77f3(Redstone),\u005cn[[YELLOW]]\u87a2\u77f3\u7c89(Glowstone Dust), \u7cd6(Sugar), \u9472\u91d1\u897f\u74dc(Glistering Melon), \u91d1\u80e1\u863f\u8514(Golden Carrot),\u005cn[[YELLOW]]\u7194\u5ca9\u7403(Magma Cream), \u5730\u7344\u7599\u7629(Nether Wart), \u8718\u86db\u773c(Spider Eye), \u706b\u85e5(Suplhur), \u8377\u8449(Water Lily),\u005cn[[YELLOW]]\u6cb3\u8c5a(Pufferfish)\u005cn[[YELLOW]](\u4e00\u822c\u85e5\u6c34)
p3990
sg1004
V[[DARK_AQUA]]Concotions tier 1 ingredients:\u005cn[[YELLOW]]Blaze Powder, Fermented Spider Eye, Ghast Tear, Redstone,\u005cn[[YELLOW]]Glowstone Dust, Sugar, Glistering Melon, Golden Carrot,\u005cn[[YELLOW]]Magma Cream, Nether Wart, Spider Eye, Suplhur, Water Lily,\u005cn[[YELLOW]]Pufferfish\u005cn[[YELLOW]](Vanilla Potions)
p3991
sg1006
VGuides.Alchemy.Section.3
p3992
ssS'791743'
p3993
(dp3994
g21
V[player] <skill> <newvalue> [[RED]] - \u7de8\u8f2f\u76ee\u6a19
p3995
sg23
V[player] <skill> <newvalue> [[RED]] - Modify target
p3996
sg25
VCommands.mmoedit
p3997
ssS'2158662'
p3998
(dp3999
g3
V[[DARK_RED]]{0} \u4e26\u4e0d\u5728\u7dda\u4e0a!
p4000
sg5
V[[DARK_RED]]{0} is not online!
p4001
sg7
VParty.NotOnline
p4002
ssS'2158661'
p4003
(dp4004
g3
V[[DARK_GRAY]]\u540d\u5b57: [[WHITE]]{0} {1}
p4005
sg5
V[[DARK_GRAY]]NAME: [[WHITE]]{0} {1}
p4006
sg7
VCommands.Party.Status
p4007
ssS'2158660'
p4008
(dp4009
g3
V[[GRAY]]\u52a0\u5165\u7684\u968a\u4f0d: {0}
p4010
sg5
V[[GRAY]]Joined Party: {0}
p4011
sg7
VCommands.Party.Join
p4012
ssS'2158666'
p4013
(dp4014
g3
V\u968a\u4f0d\u50b3\u9001\u8acb\u6c42\u78ba\u8a8d[[RED]]\u7981\u7528
p4015
sg5
VParty teleport request confirmation [[RED]]disabled
p4016
sg7
VCommands.ptp.AcceptAny.Disabled
p4017
ssS'2158665'
p4018
(dp4019
g3
V\u5bc6\u78bc
p4020
sg5
Vpassword
p4021
sg7
VCommands.Usage.Password
p4022
ssS'2158664'
p4023
(dp4024
g3
V[[GRAY]]\u968a\u4f0d\u5df2\u89e3\u6563
p4025
sg5
V[[GRAY]]The party has been disbanded
p4026
sg7
VParty.Disband
p4027
ssS'2138171'
p4028
(dp4029
g3
V\u6d41\u80fd\u6316\u7926
p4030
sg5
VFlux Mining
p4031
sg7
VSmelting.Effect.6
p4032
ssS'2138170'
p4033
(dp4034
g3
V[[RED]]\u71c3\u71d2\u6548\u7387\u52a0\u4e58: [[YELLOW]]{0}x
p4035
sg5
V[[RED]]Fuel Efficiency Multiplier: [[YELLOW]]{0}x
p4036
sg7
VSmelting.Ability.FuelEfficiency
p4037
ssS'791718'
p4038
(dp4039
g3
V[[GREEN]]**\u767c\u52d5\u5272\u88c2\u65ac**
p4040
sg5
V[[GREEN]]**SERRATED STRIKES ACTIVATED**
p4041
sg7
VSwords.Skills.SS.On
p4042
ssS'791751'
p4043
(dp4044
g3
V[[DARK_RED]]\u4f60\u7684\u6280\u80fd\u7b49\u7d1a\u4e0d\u8db3\u4ee5\u4fee\u7406\u77f3\u982d\u88dd\u5099!
p4045
sg5
V[[DARK_RED]]You're not skilled enough to repair Stone.
p4046
sg7
VRepair.Skills.AdeptStone
p4047
ssS'791750'
p4048
(dp4049
g3
V[[DARK_GRAY]]\u4f60\u7684\u72fc\u8fc5\u901f\u5730\u56de\u5230\u4e86\u4f60\u7684\u8eab\u908a...
p4050
sg5
V[[DARK_GRAY]]Your wolf scurries back to you...
p4051
sg7
VTaming.Listener.Wolf
p4052
ssS'791753'
p4053
(dp4054
g3
V[[GREEN]]**\u53cd\u5c04\u4e86\u6575\u4eba\u7684\u653b\u64ca**
p4055
sg5
V[[GREEN]]**COUNTER-ATTACKED**
p4056
sg7
VSwords.Combat.Countered
p4057
ssS'791752'
p4058
(dp4059
g3
V[[GREEN]]**\u99b4\u7378\u4e4b\u80fd**
p4060
sg5
V[[GREEN]]**BEAST LORE**
p4061
sg7
VCombat.BeastLore
p4062
ssS'791885'
p4063
(dp4064
g3
V[[DARK_AQUA]]{0}: [[GREEN]]{1}
p4065
sg5
V[[DARK_AQUA]]{0}: [[GREEN]]{1}
p4066
sg7
VEffects.Template
p4067
ssS'791754'
p4068
(dp4069
g3
V[[RED]]\u4f10\u6728\u5de5[[GREEN]] \u5373\u5c07\u7ed3\u675f [[YELLOW]]{0}
p4070
sg5
V[[RED]]Tree Feller[[GREEN]] has worn off for [[YELLOW]]{0}
p4071
sg7
VWoodcutting.Skills.TreeFeller.Other.Off
p4072
ssS'791757'
p4073
(dp4074
g3
V[[RED]]\u7da0\u5316[[GREEN]] \u5373\u5c07\u7ed3\u675f [[YELLOW]]{0}
p4075
sg5
V[[RED]]Green Terra[[GREEN]] has worn off for [[YELLOW]]{0}
p4076
sg7
VHerbalism.Skills.GTe.Other.Off
p4077
ssS'791756'
p4078
(dp4079
g3
V[[DARK_RED]]\u4f60\u7684\u6280\u80fd\u7b49\u7d1a\u4e0d\u8db3\u4ee5\u4fee\u7406\u947d\u77f3\u88dd\u5099!
p4080
sg5
V[[DARK_RED]]You're not skilled enough to repair Diamond.
p4081
sg7
VRepair.Skills.AdeptDiamond
p4082
ssS'791759'
p4083
(dp4084
g3
V\u4fee\u7406\u9644\u9b54\u7269\u54c1
p4085
sg5
VRepair magic items
p4086
sg7
VRepair.Effect.9
p4087
ssS'791758'
p4088
(dp4089
g3
V[[YELLOW]]\u4fee\u7406\u6280\u80fd\u4e0a\u5347\u4e86 {0}. \u7e3d\u7b49\u7d1a ({1})
p4090
sg5
V[[YELLOW]]Repair skill increased by {0}. Total ({1})
p4091
sg7
VRepair.Skillup
p4092
ssS'791740'
p4093
(dp4094
g3
V\u6383\u9664\u8449\u5b50
p4095
sg5
VBlow away leaves
p4096
sg7
VWoodcutting.Ability.1
p4097
ssS'3633744'
p4098
(dp4099
g3
V\u9396\u5b9a\u76f4\u5230\u6280\u80fd {0}+ (\u5782\u91e3\u5927\u5e2b)
p4100
sg5
VLOCKED UNTIL {0}+ SKILL (MASTER ANGLER)
p4101
sg7
VFishing.Ability.Locked.2
p4102
ssS'791715'
p4103
(dp4104
g3
V[[RED]]\u4f60\u5df2\u88ab {0} \u8e22\u51fa\u968a\u4f0d!
p4105
sg5
V[[RED]]You were kicked from party {0}!
p4106
sg7
VCommands.Party.Kick
p4107
ssS'791741'
p4108
(dp4109
g3
V[[GREEN]]**\u6575\u4eba\u6b63\u5728\u4e0d\u65b7\u6d41\u8840**
p4110
sg5
V[[GREEN]]**ENEMY BLEEDING**
p4111
sg7
VSwords.Combat.Bleeding
p4112
ssS'791958'
p4113
(dp4114
g3
V[[DARK_RED]]\u90a3\u4e0d\u662f\u4e00\u500b\u6709\u6548\u7684\u968a\u4f0d\u540d\u7a31.
p4115
sg5
V[[DARK_RED]]That is not a valid party name.
p4116
sg7
VParty.InvalidName
p4117
ssS'3587653'
p4118
(dp4119
g3
V[[DARK_AQUA]]\u4ec0\u9ebc\u662f\u6d77\u502b\u7684\u795d\u798f?[[YELLOW]]\u9019\u662f\u4e00\u500b\u4e3b\u52d5\u6280\u80fd,\u6709\u6a5f\u7387\u5728\u7528\u528d\u7834\u58de\u7279\u5b9a[[YELLOW]]\u65b9\u584a\u6642\u7372\u5f97\u7a00\u6709\u9053\u5177.
p4120
sg5
V[[DARK_AQUA]]How does Hylian Luck work?\u005cn[[YELLOW]]This passive ability gives you a chance to find rare items\u005cn[[YELLOW]]when certain blocks are broken with a sword.
p4121
sg7
VGuides.Herbalism.Section.6
p4122
ssS'3919485'
p4123
(dp4124
g21
V\u9396\u5b9a\u76f4\u5230\u6280\u80fd {0}+ (\u806f\u76df)
p4125
sg23
VLOCKED UNTIL {0}+ (ALLIANCES)
p4126
sg25
VParty.Feature.Locked.Alliance
p4127
ssS'3919484'
p4128
(dp4129
g21
V\u9396\u5b9a\u76f4\u5230\u6280\u80fd {0}+ (\u968a\u4f0d\u50b3\u9001)
p4130
sg23
VLOCKED UNTIL {0}+ (PARTY TELEPORT)
p4131
sg25
VParty.Feature.Locked.Teleport
p4132
ssS'3919487'
p4133
(dp4134
g21
V[[DARK_GRAY]]\u5df2\u89e3\u9396\u7684\u529f\u80fd: [[GRAY]][[ITALIC]]{0}
p4135
sg23
V[[DARK_GRAY]]Unlocked Features: [[GRAY]][[ITALIC]]{0}
p4136
sg25
VCommands.Party.UnlockedFeatures
p4137
ssS'791716'
p4138
(dp4139
g3
V[[GREEN]]**\u8ff4\u907f**
p4140
sg5
V[[GREEN]]**Dodged**
p4141
sg7
VAcrobatics.Combat.Proc
p4142
ssS'3785640'
p4143
(dp4144
g3
V[[DARK_AQUA]]\u7b49\u7d1a
p4145
sg5
V[[DARK_AQUA]]Level
p4146
sg7
VScoreboard.Misc.Level
p4147
ssS'791744'
p4148
(dp4149
g3
V[[RED]]\u8d85\u7d1a\u788e\u77f3\u6a5f\u6301\u7e8c\u6642\u9593: [[YELLOW]]{0}s
p4150
sg5
V[[RED]]Super Breaker Length: [[YELLOW]]{0}s
p4151
sg7
VMining.Ability.Length
p4152
ssS'3919483'
p4153
(dp4154
g21
V\u9396\u5b9a\u76f4\u5230\u6280\u80fd {0}+ (\u7d93\u9a57\u5206\u4eab)
p4155
sg23
VLOCKED UNTIL {0}+ (XP SHARING)
p4156
sg25
VParty.Feature.Locked.XpShare
p4157
ssS'791711'
p4158
(dp4159
g3
V\u99b4\u7378, \u6216\u548c\u4f60\u7684\u72fc\u4e00\u8d77\u6230\u9b25
p4160
sg5
VAnimal Taming, or combat w/ your wolves
p4161
sg7
VCommands.XPGain.Taming
p4162
ssS'791745'
p4163
(dp4164
g3
V[[YELLOW]]--mcMMO[[BLUE]] \u6230\u9b25\u529b [[YELLOW]]\u6392\u884c\u699c--
p4165
sg5
V[[YELLOW]]--mcMMO[[BLUE]] Power Level [[YELLOW]]Leaderboard--
p4166
sg7
VCommands.PowerLevel.Leaderboard
p4167
ssS'3919488'
p4168
(dp4169
g21
V\u9396\u5b9a\u76f4\u5230\u6280\u80fd {0}+ (\u7269\u54c1\u5206\u4eab)
p4170
sg23
VLOCKED UNTIL {0}+ (ITEM SHARING)
p4171
sg25
VParty.Feature.Locked.ItemShare
p4172
ssS'791968'
p4173
(dp4174
g3
V\u96d9\u500d\u6389\u843d\u7269\u54c1
p4175
sg5
VDouble the normal loot
p4176
sg7
VWoodcutting.Effect.5
p4177
ssS'791713'
p4178
(dp4179
g3
V[[DARK_GRAY]]\u7372\u5f97\u7d93\u9a57\u503c:[[WHITE]]{0}
p4180
sg5
V[[DARK_GRAY]]XP GAIN: [[WHITE]]{0}
p4181
sg7
VCommands.XPGain
p4182
ssS'3380717'
p4183
(dp4184
g3
V[[GOLD]][mcMMO] \u72c0\u614b\u907a\u5931\u7387\u8b8a\u66f4\u70ba {0}.
p4185
sg5
V[[GOLD]][mcMMO] The stat loss percentage was changed to {0}.
p4186
sg7
VHardcore.DeathStatLoss.PercentageChanged
p4187
ssS'2260265'
p4188
(dp4189
g3
V[[DARK_GRAY]]\u7b49\u7d1a: [[GREEN]]{0}
p4190
sg5
V[[DARK_GRAY]]LVL: [[GREEN]]{0}
p4191
sg7
VEffects.Child
p4192
ssS'2260264'
p4193
(dp4194
g3
V[[GOLD]]{0} -
p4195
sg5
V[[GOLD]]{0} -
p4196
sg7
VEffects.Parent
p4197
ssS'2260267'
p4198
(dp4199
g3
V\u5f9e\u524d\u7f6e\u6280\u80fd\u7372\u53d6\u7b49\u7d1a
p4200
sg5
VGains levels from Parent Skills
p4201
sg7
VCommands.XPGain.Child
p4202
ssS'2260266'
p4203
(dp4204
g3
V[[GOLD]](\u5b50\u6280\u80fd)
p4205
sg5
V[[GOLD]](CHILD SKILL)
p4206
sg7
VSkills.Child
p4207
ssS'3380654'
p4208
(dp4209
g3
V\u6b7b\u4ea1\u6280\u80fd\u61f2\u7f70
p4210
sg5
VSkill Death Penalty
p4211
sg7
VHardcore.DeathStatLoss.Name
p4212
ssS'2260263'
p4213
(dp4214
g3
V\u524d\u7f6e
p4215
sg5
VPARENTS
p4216
sg7
VSkills.Parents
p4217
ssS'3975691'
p4218
(dp4219
g3
V\u934a\u91d1\u8853:
p4220
sg5
VAlchemy:
p4221
sg7
VAlchemy.Listener
p4222
ssS'2137882'
p4223
(dp4224
g3
V[[RED]]\u8fb2\u592b\u79c1\u623f\u83dc: [[YELLOW]]\u7b49\u7d1a {0}
p4225
sg5
V[[RED]]Farmer''s Diet: [[YELLOW]]Rank {0}
p4226
sg7
VHerbalism.Ability.FD
p4227
ssS'2137884'
p4228
(dp4229
g3
V\u9632\u6b62\u4f60\u7684\u6b66\u5668\u88ab\u64ca\u843d
p4230
sg5
VPrevents you from being disarmed
p4231
sg7
VUnarmed.Effect.9
p4232
ssS'2137885'
p4233
(dp4234
g3
V\u9435\u722a
p4235
sg5
VIron Grip
p4236
sg7
VUnarmed.Effect.8
p4237
ssS'791969'
p4238
(dp4239
g3
V[[DARK_RED]]\u4f60\u5df2\u7d93\u653e\u7f6e\u4e86\u4e00\u500b\u9435\u7827,\u4f60\u53ef\u4ee5\u5728\u9435\u7827\u4e0a\u4fee\u7406\u5de5\u5177\u548c\u88dd\u7532
p4240
sg5
V[[DARK_RED]]You have placed an anvil, anvils can repair tools and armor.
p4241
sg7
VRepair.Listener.Anvil
p4242
ssS'2115582'
p4243
(dp4244
g3
V\u4e0d\u5b58\u5728\u7684\u9801\u6578
p4245
sg5
VNot a valid page number!
p4246
sg7
VGuides.Page.Invalid
p4247
ssS'2115585'
p4248
(dp4249
g3
V[[RED]]\u6416\u6643\u6a5f\u7387: [[YELLOW]]{0}
p4250
sg5
V[[RED]]Shake Chance: [[YELLOW]]{0}
p4251
sg7
VFishing.Ability.Shake
p4252
ssS'2115584'
p4253
(dp4254
g3
V[[DARK_AQUA]] \u95dc\u65bc{0}\u7684\u8aaa\u660e - \u8f38\u5165 /{1} ? [\u9801\u6578]
p4255
sg5
V[[DARK_AQUA]]Guide for {0} available - type /{1} ? [page]
p4256
sg7
VGuides.Available
p4257
ssS'2115587'
p4258
(dp4259
g3
V[[GOLD]][mcMMO] \u6b63\u904b\u4f5c\u7684\u7248\u672c [[DARK_AQUA]]{0}
p4260
sg5
V[[GOLD]][mcMMO] Running version [[DARK_AQUA]]{0}
p4261
sg7
VMOTD.Version
p4262
ssS'2115586'
p4263
(dp4264
g3
V[[WHITE]]\u6392\u884c\u699c\u5916
p4265
sg5
V[[WHITE]]Unranked
p4266
sg7
VCommands.mcrank.Unranked
p4267
ssS'2115589'
p4268
(dp4269
g3
V[[GREEN]]\u4f60\u7684\u9435\u722a\u4f7f\u4f60\u7684\u6b66\u5668\u514d\u65bc\u88ab\u64ca\u843d!
p4270
sg5
V[[GREEN]]Your iron grip kept you from being disarmed!
p4271
sg7
VUnarmed.Ability.IronGrip.Defender
p4272
ssS'2115588'
p4273
(dp4274
g3
V\u9632\u5177\u7834\u58de\u8005
p4275
sg5
VArmor Impact
p4276
sg7
VAxes.Effect.6
p4277
ssS'4081066'
p4278
(dp4279
g3
V[[GREEN]]- \u50b3\u9001\u5230\u968a\u4f0d\u6210\u54e1\u8eab\u65c1
p4280
sg5
V[[GREEN]]- Teleport to party member
p4281
sg7
VCommands.Party.Teleport
p4282
ssS'792116'
p4283
(dp4284
g3
V3x \u6389\u843d\u7387, 3x \u7d93\u9a57\u503c, +\u901f\u5ea6
p4285
sg5
V3x Drop Rate, 3x EXP, +Speed
p4286
sg7
VExcavation.Effect.1
p4287
ssS'899366'
p4288
(dp4289
g3
V[[RED]]\u4f60\u5fc5\u9808\u9054\u5230\u7b49\u7d1a [[YELLOW]]{0}[[RED]] \u624d\u53ef\u4fee\u7406[[YELLOW]]{1}
p4290
sg5
V[[RED]]You must be level [[YELLOW]]{0}[[RED]] to repair [[YELLOW]]{1}
p4291
sg7
VRepair.Skills.Adept
p4292
ssS'791980'
p4293
(dp4294
g3
V[[DARK_RED]]\u6b0a\u9650\u4e0d\u8db3
p4295
sg5
V[[DARK_RED]]Insufficient permissions.
p4296
sg7
VmcMMO.NoPermission
p4297
ssS'3608228'
p4298
(dp4299
g3
V[[GRAY]]\u767c\u73fe\u5bf6\u7269\u4e86\uff01
p4300
sg5
V[[GRAY]]Treasure found!
p4301
sg7
VFishing.Ability.TH.ItemFound
p4302
ssS'2219960'
p4303
(dp4304
g3
V+{0} \u7926\u7269\u7522\u91cf, -{1}\u5783\u573e\u7522\u91cf, {2}x \u6389\u843d\u91cf
p4305
sg5
V+{0} ore yield, -{1} debris yield, {2}x drops
p4306
sg7
VMining.Blast.Effect
p4307
ssS'3608226'
p4308
(dp4309
g3
V[[GRAY]]\u4f60\u611f\u53d7\u5230\u9b54\u529b\u7684\u6ce2\u52d5...
p4310
sg5
V[[GRAY]]You feel a touch of magic with this catch...
p4311
sg7
VFishing.Ability.TH.MagicFound
p4312
ssS'3608227'
p4313
(dp4314
g3
V[[GRAY]]\u6536\u7a6b\u6642\u9593!!!
p4315
sg5
V[[GRAY]]BOOM TIME!!!
p4316
sg7
VFishing.Ability.TH.Boom
p4317
ss.