(dp0
S'2209178'
p1
(dp2
S'translation'
p3
V\u5207\u63db\u80fd\u529b\u901a\u77e5\u70ba [[RED]]\u95dc\u9589
p4
sS'string'
p5
VAbility notifications toggled [[RED]]off
p6
sS'context'
p7
VCommands.Notifications.Off
p8
ssS'2209179'
p9
(dp10
g3
V\u5207\u63db\u80fd\u529b\u901a\u77e5\u70ba  [[GREEN]]\u958b\u555f
p11
sg5
VAbility notifications toggled [[GREEN]]on
p12
sg7
VCommands.Notifications.On
p13
ssS'2209173'
p14
(dp15
g3
V[[DARK_AQUA]]\u95dc\u65bc [[YELLOW]]mcMMO[[DARK_AQUA]] \u5c08\u6848:,[[GOLD]]mcMMO\u662f\u4e00\u500b[[RED]]\u958b\u653e\u539f\u59cb\u78bc\u7684[[GOLD]] RPG \u6a21\u7d44\u59cb\u65bc2011\u5e74\u4e8c\u6708,[[GOLD]]\u5efa\u7acb\u8005 [[BLUE]]nossr50[[GOLD]]. \u65e8\u5728\u63d0\u4f9b\u4e00\u500b\u9ad8\u54c1\u8ceaRPG\u9ad4\u9a57.,[[DARK_AQUA]]\u5c0f\u6280\u5de7:,[[GOLD]] - [[GREEN]]\u8f38\u5165 [[RED]]/mcmmo help[[GREEN]] \u4ee5\u4e86\u89e3\u6240\u6709\u6307\u4ee4,[[GOLD]] - [[GREEN]]\u8f38\u5165 [[RED]]/\u6280\u80fd\u540d\u7a31 [[GREEN]]\u4ee5\u4e86\u89e3\u6280\u80fd\u7d30\u7bc0,[[DARK_AQUA]]\u958b\u767c\u8005:,[[GOLD]] - [[GREEN]]nossr50 [[BLUE]](\u8d0a\u52a9\u8005),[[GOLD]] - [[GREEN]]GJ [[BLUE]](\u5c08\u6848\u9818\u5c0e\u4eba),[[GOLD]] - [[GREEN]]NuclearW [[BLUE]](\u958b\u767c\u8005),[[GOLD]] - [[GREEN]]bm01 [[BLUE]](\u958b\u767c\u8005),[[GOLD]] - [[GREEN]]TfT_02 [[BLUE]](\u958b\u767c\u8005),[[GOLD]] - [[GREEN]]Glitchfinder [[BLUE]](\u958b\u767c\u8005),[[GOLD]] - [[GREEN]]t00thpick1 [[BLUE]](\u958b\u767c\u8005),[[DARK_AQUA]]\u5be6\u7528\u9023\u7d50:,[[GOLD]] - [[GREEN]]https://github.com/mcMMO-Dev/mcMMO/issues[[GOLD]] \u932f\u8aa4\u56de\u5831,[[GOLD]] - [[GREEN]]#mcmmo @ irc.esper.net[[GOLD]] IRC \u983b\u9053,
p16
sg5
V[[DARK_AQUA]]About the [[YELLOW]]mcMMO[[DARK_AQUA]] Project:,[[GOLD]]mcMMO is an [[RED]]open source[[GOLD]] RPG mod created in February 2011,[[GOLD]]by [[BLUE]]nossr50[[GOLD]]. The goal is to provide a quality RPG experience.,[[DARK_AQUA]]Tips:,[[GOLD]] - [[GREEN]]Use [[RED]]/mcmmo help[[GREEN]] to see commands,[[GOLD]] - [[GREEN]]Type [[RED]]/SKILLNAME[[GREEN]] to see detailed skill info,[[DARK_AQUA]]Developers:,[[GOLD]] - [[GREEN]]nossr50 [[BLUE]](Founder),[[GOLD]] - [[GREEN]]GJ [[BLUE]](Project Lead),[[GOLD]] - [[GREEN]]NuclearW [[BLUE]](Developer),[[GOLD]] - [[GREEN]]bm01 [[BLUE]](Developer),[[GOLD]] - [[GREEN]]TfT_02 [[BLUE]](Developer),[[GOLD]] - [[GREEN]]Glitchfinder [[BLUE]](Developer),[[GOLD]] - [[GREEN]]t00thpick1 [[BLUE]](Developer),[[DARK_AQUA]]Useful Links:,[[GOLD]] - [[GREEN]]https://github.com/mcMMO-Dev/mcMMO/issues[[GOLD]] Bug Reporting,[[GOLD]] - [[GREEN]]#mcmmo @ irc.esper.net[[GOLD]] IRC Chat,
p17
sg7
VmcMMO.Description
p18
ssS'2124980'
p19
(dp20
g3
V[[RED]]{0} \u56e0\u70ba {1} \u800c\u4fee\u6539.
p21
sg5
V[[RED]]{0} has been modified for {1}.
p22
sg7
VCommands.mmoedit.Modified.2
p23
ssS'791870'
p24
(dp25
g3
V\u99b4\u7378:
p26
sg5
VTaming:
p27
sg7
VTaming.Listener
p28
ssS'791871'
p29
(dp30
g3
V[[GREEN]]{0}[[DARK_GREEN]] \u4f7f\u7528\u4e86 [[RED]]\u4f10\u6728\u5de5!
p31
sg5
V[[GREEN]]{0}[[DARK_GREEN]] has used [[RED]]Tree Feller!
p32
sg7
VWoodcutting.Skills.TreeFeller.Other.On
p33
ssS'791872'
p34
(dp35
g3
V\u7522\u751f\u653e\u8840\u7684\u6301\u7e8c\u50b7\u5bb3
p36
sg5
VApply a bleed DoT
p37
sg7
VSwords.Effect.7
p38
ssS'791873'
p39
(dp40
g3
V\u5272\u88c2\u65ac\u6d41\u8840\u50b7\u5bb3\u589e\u52a0
p41
sg5
VSerrated Strikes Bleed+
p42
sg7
VSwords.Effect.4
p43
ssS'3587648'
p44
(dp45
g3
V[[DARK_AQUA]]\u4ec0\u9ebc\u662f\u56de\u6536\u5f13\u7bad?[[YELLOW]]\u4f60\u6709\u6a5f\u7387\u5728\u6bba\u6b7b\u602a\u7269\u5f8c\u56de\u6536\u5c04\u51fa\u53bb\u7684\u7bad.[[YELLOW]]\u6a5f\u7387\u95dc\u4fc2\u5230\u4f60\u7684\u7bad\u8853\u7b49\u7d1a.[[YELLOW]]\u9810\u8a2d\u72c0\u614b\u4e0b,\u6bcf\u5347\u4e00\u7b49\u589e\u52a00.1%\u6a5f\u7387,[[YELLOW]]\u7b49\u7d1a\u5230\u90541000\u6642\u5c07\u6709100%\u56de\u6536\u7387.
p46
sg5
V[[DARK_AQUA]]How does Arrow Retrieval work?\u005cn[[YELLOW]]You have a passive chance to retrieve some of your arrows\u005cn[[YELLOW]]when you kill a mob with your bow.\u005cn[[YELLOW]]This chance increases as you level in Archery.\u005cn[[YELLOW]]By default, this ability increases by 0.1% per level, up to 100%\u005cn[[YELLOW]]at level 1000.
p47
sg7
VGuides.Archery.Section.3
p48
ssS'3587649'
p49
(dp50
g3
V[[DARK_AQUA]]\u4ec0\u9ebc\u662f\u6280\u8853\u5c04\u64ca?[[YELLOW]]\u6280\u8853\u5c04\u64ca\u5c07\u52a0\u4e58\u4f60\u7684\u5c04\u7bad\u57fa\u672c\u653b\u64ca\u529b.[[YELLOW]]\u52a0\u4e58\u7684\u7a0b\u5ea6\u95dc\u4fc2\u5230\u4f60\u7684\u7bad\u8853\u7b49\u7d1a.[[YELLOW]]\u9810\u8a2d\u72c0\u614b\u4e0b, \u6bcf\u534750\u7d1a\u52a0\u4e5810%\u653b\u64ca\u529b, [[YELLOW]]\u6700\u9ad8\u5230200%\u52a0\u4e58.
p51
sg5
V[[DARK_AQUA]]How does Skill Shot work?\u005cn[[YELLOW]]Skill Shot provides additional damage to your shots.\u005cn[[YELLOW]]The bonus damage from Skill Shot increases as you\u005cn[[YELLOW]]level in Archery.\u005cn[[YELLOW]]With the default settings, your archery damage increases 10%\u005cn[[YELLOW]]every 50 levels, to a maximum of 200% bonus damage.
p52
sg7
VGuides.Archery.Section.1
p53
ssS'791876'
p54
(dp55
g3
V[[GREEN]]**\u4f60\u8209\u9ad8\u4e86\u4f60\u7684\u92e4\u982d**
p56
sg5
V[[GREEN]]**YOU READY YOUR HOE**
p57
sg7
VHerbalism.Ability.Ready
p58
ssS'792058'
p59
(dp60
g3
V[[RED]]\u7da0\u5316\u6301\u7e8c\u6642\u9593: [[YELLOW]]{0}s
p61
sg5
V[[RED]]Green Terra Length: [[YELLOW]]{0}s
p62
sg7
VHerbalism.Ability.GTe.Length
p63
ssS'3587644'
p64
(dp65
g3
V[[DARK_AQUA]]\u4ec0\u9ebc\u662f\u8ff4\u907f?[[YELLOW]]\u8ff4\u907f\u662f\u6709\u6a5f\u7387\u6e1b \u514d\u5728\u6230\u9b25\u4e2d[[YELLOW]]\u6575\u4eba\u5c0d\u4f60\u7684\u50b7\u5bb3.[[YELLOW]]\u9019\u6a5f\u7387\u95dc\u4fc2\u5230\u4f60\u7684\u96dc\u6280\u7b49\u7d1a.
p66
sg5
V[[DARK_AQUA]]How does Dodge work?\u005cn[[YELLOW]]Dodge is a passive chance when you are\u005cn[[YELLOW]]injured in combat to halve the damage taken.\u005cn[[YELLOW]]It is tied to your skill level.
p67
sg7
VGuides.Acrobatics.Section.2
p68
ssS'791970'
p69
(dp70
g3
V[[DARK_RED]]{0} \u4f60\u4e0d\u5728\u4f60\u7684\u5718\u968a
p71
sg5
V[[DARK_RED]]{0} is not in your party
p72
sg7
VParty.NotInYourParty
p73
ssS'791973'
p74
(dp75
g3
V[[GREEN]]\u4f60\u5df2\u7d93\u50b3\u9001\u5230 {0}.
p76
sg5
V[[GREEN]]You have teleported to {0}.
p77
sg7
VParty.Teleport.Player
p78
ssS'3587647'
p79
(dp80
g3
V[[DARK_AQUA]]\u4ec0\u9ebc\u662f\u6688\u7729\u6548\u679c?[[YELLOW]]\u7576\u4f60\u64ca\u4e2d\u76ee\u6a19\u6642\u6709\u88ab\u52d5\u6a5f\u7387\u4f7f\u76ee\u6a19\u6688\u7729.[[YELLOW]]\u6688\u7dda\u89f8\u767c\u6642\u5c07\u5f37\u5236\u4f60\u7684\u76ee\u6a19\u5446\u6eef\u4e00\u5c0f\u6bb5\u6642\u9593.[[YELLOW]]\u6688\u7729\u6548\u679c\u6709\u52a0\u4e584\u9ede\u50b7\u5bb3(2\u5fc3).
p81
sg5
V[[DARK_AQUA]]How does Daze work?\u005cn[[YELLOW]]You have a passive chance to daze other players when\u005cn[[YELLOW]]you shoot them. When Daze triggers it forces your opponents\u005cn[[YELLOW]]to look straight up for a short duration.\u005cn[[YELLOW]]A Daze shot also deals an additional 4 damage (2 hearts).
p82
sg7
VGuides.Archery.Section.2
p83
ssS'3587640'
p84
(dp85
g3
V[[DARK_AQUA]]\u4ec0\u9ebc\u662f\u653e\u8840?[[YELLOW]]\u653e\u8840\u5c07\u9020\u6210\u6575\u4eba\u6bcf\u5169\u79d2\u9418\u53d7\u5230\u50b7\u5bb3. \u76ee\u6a19\u5c07\u6703\u4e0d \u505c\u7684\u6d41\u8840\u76f4\u5230\u6548\u679c[[YELLOW]]\u7d50\u675f, \u6216\u662f\u6b7b\u4ea1. \u653e\u8840\u7684\u6642\u9593\u96a8\u8457\u4f60\u7684\u528d\u8853\u7684\u63d0\u6607\u800c\u589e\u52a0.
p86
sg5
V[[DARK_AQUA]]How does Bleed work?\u005cn[[YELLOW]]Bleed causes enemies to take damage every two seconds. The \u005cn[[YELLOW]]target will bleed until the effect wears off, or death, \u005cn[[YELLOW]]whichever comes first.\u005cn[[YELLOW]]The duration of the bleed is increased by your sword skill.
p87
sg7
VGuides.Swords.Section.3
p88
ssS'3587641'
p89
(dp90
g3
V[[DARK_AQUA]]\u4ec0\u9ebc\u662f\u53cd\u64ca?[[YELLOW]]\u53cd\u64ca\u662f\u4e00\u500b\u4e3b\u52d5\u6280\u80fd. \u7576\u683c\u6a94\u602a\u7269\u6240\u9020\u6210\u7684\u50b7\u5bb3\u6642, \u4f60\u6709\u6a5f\u6703\u53cd\u5c04[[YELLOW]]50%\u6240\u53d7\u5230\u7684\u50b7\u5bb3.
p91
sg5
V[[DARK_AQUA]]How does Counter Attack work?\u005cn[[YELLOW]]Counter Attack is an active ability. When blocking and taking\u005cn[[YELLOW]]hits from mobs, you will have a chance to reflect 50% of \u005cn[[YELLOW]]the damage that was taken.
p92
sg7
VGuides.Swords.Section.2
p93
ssS'3587642'
p94
(dp95
g3
V[[DARK_AQUA]]\u4ec0\u9ebc\u662f\u5272\u88c2\u65ac?[[YELLOW]]\u5272\u88c2\u65ac\u662f\u4e00\u500b\u4e3b\u52d5\u6280\u80fd, \u4f60\u53ef\u4ee5\u5c07\u528d\u62ff\u518d\u624b\u4e0a\u4e26\u6309\u4e0b\u53f3\u9375\u555f\u52d5\u5b83.[[YELLOW]]\u9019\u500b\u6280\u80fd\u8b93\u4f60\u767c\u52d5\u7bc4\u570d\u653b\u64ca. \u9019\u500b\u7bc4\u570d\u6280\u80fd\u5c07\u9020\u621025%\u7684\u984d\u5916\u50b7\u5bb3,[[YELLOW]]\u4e26\u4e14\u9644\u5e36\u81f3\u5c115\u500bticks\u7684\u653e\u8840\u6548\u679c.
p96
sg5
V[[DARK_AQUA]]How does Serrated Strikes work?\u005cn[[YELLOW]]Serrated Strikes is an active ability, you can activate it by\u005cn[[YELLOW]]right-clicking with a sword. This ability allows you to deal \u005cn[[YELLOW]]an AoE (Area of Effect) hit. This AoE will do a bonus 25%\u005cn[[YELLOW]]damage and will inflict a bleed effect that lasts for 5 ticks.
p97
sg7
VGuides.Swords.Section.1
p98
ssS'3587643'
p99
(dp100
g3
V[[DARK_AQUA]]\u528d\u8853:[[YELLOW]]\u528d\u8853\u8b93\u73a9\u5bb6\u5728\u4f7f\u7528\u528d\u6230\u9b25\u6642\u7372\u5f97\u5404\u7a2e\u52a0\u4e58\u6548\u679c.[[DARK_AQUA]]\u5982\u4f55\u7372\u53d6\u7d93\u9a57:[[YELLOW]]\u8981\u7372\u53d6\u7d93\u9a57\u4f60\u5fc5\u9808\u7528\u528d\u653b\u64ca\u73a9\u5bb6\u6216\u602a\u7269.
p101
sg5
V[[DARK_AQUA]]About Swords:\u005cn[[YELLOW]]This skill awards combat bonuses to anyone fighting with a\u005cn[[YELLOW]]sword.\u005cn\u005cn[[DARK_AQUA]]XP GAIN:\u005cn[[YELLOW]]XP is gained based on the amount of damage dealt to mobs or \u005cn[[YELLOW]]other players when wielding a sword.
p102
sg7
VGuides.Swords.Section.0
p103
ssS'3993658'
p104
(dp105
g3
V[[RED]]\u4f60\u7684\u968a\u4f0d\u4e26\u6c92\u6709\u76df\u53cb.
p106
sg5
V[[RED]]Your does not have an ally.
p107
sg7
VCommands.Party.Alliance.None
p108
ssS'3993659'
p109
(dp110
g3
V[[GRAY]]\u4f60\u7684\u968a\u4f0d\u548c [[GREEN]]{0} [[GRAY]]\u7d50\u70ba\u806f\u76df
p111
sg5
V[[GRAY]]Your party is now allies with [[GREEN]]{0}
p112
sg7
VParty.Alliance.Formed
p113
ssS'791772'
p114
(dp115
g3
V[[GREEN]]{0} \u5df2\u7d93\u50b3\u9001\u5230\u4f60\u8eab\u908a.
p116
sg5
V[[GREEN]]{0} has teleported to you.
p117
sg7
VParty.Teleport.Target
p118
ssS'3993656'
p119
(dp120
g3
V[[GRAY]]\u4f60\u7684\u968a\u4f0d\u4e0d\u518d\u548c [[RED]]{0} [[GRAY]]\u806f\u76df
p121
sg5
V[[GRAY]]Your party is no longer allies with [[RED]]{0}
p122
sg7
VParty.Alliance.Disband
p123
ssS'3993657'
p124
(dp125
g3
V[[RED]]\u4f60\u7684\u968a\u4f0d\u5df2\u6709\u76df\u53cb.
p126
sg5
V[[RED]]Your party already has an ally.
p127
sg7
VCommands.Party.Alliance.AlreadyAllies
p128
ssS'792115'
p129
(dp130
g3
V\u66b4\u8d70\u947d\u982d (\u4e3b\u52d5\u6280\u80fd)
p131
sg5
VGiga Drill Breaker (ABILITY)
p132
sg7
VExcavation.Effect.0
p133
ssS'893595'
p134
(dp135
g3
V[[RED]]\u64ca\u843d\u6b66\u5668\u6a5f\u7387: [[YELLOW]]{0}
p136
sg5
V[[RED]]Disarm Chance: [[YELLOW]]{0}
p137
sg7
VUnarmed.Ability.Chance.Disarm
p138
ssS'893590'
p139
(dp140
g3
V\u62ff\u8457\u9aa8\u982d\u4e26\u4f7f\u7528\u6ed1\u9f20\u53f3\u9375\u4f86\u78ba\u8a8d\u72fc\u8207\u5c71\u8c93\u7684\u72c0\u6cc1
p141
sg5
VBone-whacking inspects wolves & ocelots
p142
sg7
VTaming.Effect.1
p143
ssS'893591'
p144
(dp145
g3
V[[RED]]\u7da0\u624b\u6307\u6a5f\u7387: [[YELLOW]]{0}
p146
sg5
V[[RED]]Green Thumb Chance: [[YELLOW]]{0}
p147
sg7
VHerbalism.Ability.GTh.Chance
p148
ssS'893592'
p149
(dp150
g3
V[[RED]]\u8d85\u7d1a\u4fee\u7406\u6a5f\u7387: [[YELLOW]]{0}
p151
sg5
V[[RED]]Super Repair Chance: [[YELLOW]]{0}
p152
sg7
VRepair.Skills.Super.Chance
p153
ssS'893593'
p154
(dp155
g3
V[[RED]]\u6d41\u8840\u6a5f\u7387: [[YELLOW]]{0}
p156
sg5
V[[RED]]Gore Chance: [[YELLOW]]{0}
p157
sg7
VTaming.Combat.Chance.Gore
p158
ssS'2158634'
p159
(dp160
g3
V[[YELLOW]]\u8f38\u5165 [[GREEN]]/party accept[[YELLOW]] \u4f86\u63a5\u53d7\u9080\u8acb
p161
sg5
V[[YELLOW]]Type [[GREEN]]/party accept[[YELLOW]] to accept the invite
p162
sg7
VCommands.Party.Invite.1
p163
ssS'2158635'
p164
(dp165
g3
V[[RED]]\u518d\u51b6\u7149\u6a5f\u7387: [[YELLOW]]{0}
p166
sg5
V[[RED]]Second Smelt Chance: [[YELLOW]]{0}
p167
sg7
VSmelting.Ability.SecondSmelt
p168
ssS'2158636'
p169
(dp170
g3
V[[RED]]{0} \u4e0d\u5141\u8a31\u968a\u4f0d\u50b3\u9001.
p171
sg5
V[[RED]]{0} doesn't allow party teleportation.
p172
sg7
VParty.Teleport.Disabled
p173
ssS'2158637'
p174
(dp175
g3
V\u968a\u4f0d\u50b3\u9001 [[RED]]\u4e0d\u5141\u8a31
p176
sg5
VParty teleporting [[RED]]disabled
p177
sg7
VCommands.ptp.Disabled
p178
ssS'792012'
p179
(dp180
g3
V\u5c0d\u7121\u88dd\u7532\u6575\u4eba\u984d\u5916\u9020\u6210 {0} \u50b7\u5bb3
p181
sg5
VDeal {0} Bonus DMG to unarmored foes
p182
sg7
VAxes.Ability.Bonus.5
p183
ssS'2158631'
p184
(dp185
g3
V\u968a\u4f0d\u50b3\u9001 [[GREEN]]\u5141\u8a31
p186
sg5
VParty teleporting [[GREEN]]enabled
p187
sg7
VCommands.ptp.Enabled
p188
ssS'2158632'
p189
(dp190
g3
V[[RED]]\u4f60\u73fe\u5728\u4e0d\u53ef\u4ee5\u50b3\u9001
p191
sg5
V[[RED]]You have no teleport requests at this time
p192
sg7
VCommands.ptp.NoRequests
p193
ssS'791846'
p194
(dp195
g3
V\u5feb\u9910\u670d\u52d9
p196
sg5
VFast Food Service
p197
sg7
VTaming.Effect.16
p198
ssS'792035'
p199
(dp200
g3
V[[RED]]-----[][[GREEN]]{0}[[RED]][]-----
p201
sg5
V[[RED]]-----[][[GREEN]]{0}[[RED]][]-----
p202
sg7
VSkills.Header
p203
ssS'791904'
p204
(dp205
g3
V\u5c0d\u7121\u88dd\u7532\u6575\u4eba\u9020\u6210\u66f4\u591a\u50b7\u5bb3
p206
sg5
VDeal bonus damage to unarmored foes
p207
sg7
VAxes.Effect.9
p208
ssS'791735'
p209
(dp210
g3
V[[RED]]**\u72c2\u66b4\u5df2\u7ed3\u675f**
p211
sg5
V[[RED]]**Berserk has worn off**
p212
sg7
VUnarmed.Skills.Berserk.Off
p213
ssS'792011'
p214
(dp215
g3
V\u5f37\u529b\u653b\u64ca
p216
sg5
VGreater Impact
p217
sg7
VAxes.Ability.Bonus.4
p218
ssS'792061'
p219
(dp220
g3
V**\u7ffb\u6efe**
p221
sg5
V**Rolled**
p222
sg7
VAcrobatics.Roll.Text
p223
ssS'792027'
p224
(dp225
g3
V[[RED]]**\u5288\u9871\u65ac\u5df2\u7d50\u675f**
p226
sg5
V[[RED]]**Skull Splitter has worn off**
p227
sg7
VAxes.Skills.SS.Off
p228
ssS'791840'
p229
(dp230
g3
V\u885d\u64ca\u683c\u64cb
p231
sg5
VShock Proof
p232
sg7
VTaming.Effect.10
p233
ssS'2124974'
p234
(dp235
g3
V[[GREEN]]{0} \u6210\u70ba\u65b0\u968a\u9577.
p236
sg5
V[[GREEN]]{0} is the new party leader.
p237
sg7
VParty.Owner.New
p238
ssS'792037'
p239
(dp240
g3
V\u65a7\u6280:
p241
sg5
VAxes:
p242
sg7
VAxes.Listener
p243
ssS'3633773'
p244
(dp245
g3
V[[RED]] \u6389\u843d\u6a5f\u7387: [[DARK_RED]]\u9677\u9631: [[YELLOW]]{0} [[GRAY]]\u666e\u901a: [[YELLOW]]{1} [[GREEN]]\u7f55\u898b: [[YELLOW]]{2} [[BLUE]]\u7a00\u6709: [[YELLOW]]{3} [[LIGHT_PURPLE]]\u53f2\u8a69: [[YELLOW]]{4} [[GOLD]]\u50b3\u8aaa: [[YELLOW]]{5} [[AQUA]]\u524d\u6240\u672a\u6709: [[YELLOW]]{6}
p246
sg5
V[[RED]] Drop Rate: [[DARK_RED]]Trap: [[YELLOW]]{0} [[GRAY]]Common: [[YELLOW]]{1} [[GREEN]]Uncommon: [[YELLOW]]{2}\u005cn[[BLUE]]Rare: [[YELLOW]]{3} [[LIGHT_PURPLE]]Epic: [[YELLOW]]{4} [[GOLD]]Legendary: [[YELLOW]]{5} [[AQUA]]Record: [[YELLOW]]{6}
p247
sg7
VFishing.Ability.TH.DropRate
p248
ssS'791986'
p249
(dp250
g3
V\u72fc\u6703\u907f\u958b\u5371\u96aa
p251
sg5
VWolves avoid danger
p252
sg7
VTaming.Ability.Bonus.1
p253
ssS'792036'
p254
(dp255
g3
V[[GREEN]]**\u6d41\u8840**
p256
sg5
V[[GREEN]]**GORED**
p257
sg7
VCombat.Gore
p258
ssS'2649404'
p259
(dp260
g3
V[[RED]]\u51b0\u91e3: \u5728\u51b0\u4e0a\u91e3\u9b5a
p261
sg5
V[[RED]]Ice Fishing: Go fishing in ice
p262
sg7
VFishing.Ability.IceFishing
p263
ssS'2093978'
p264
(dp265
g3
V[[RED]]\u7da0\u624b\u6307\u968e\u6bb5: [[YELLOW]]\u4f5c\u7269\u6210\u9577\u81f3\u968e\u6bb5 {0}
p266
sg5
V[[RED]]Green Thumb Stage: [[YELLOW]] Crops grow in stage {0}
p267
sg7
VHerbalism.Ability.GTh.Stage
p268
ssS'2649406'
p269
(dp270
g3
V\u5141\u8a31\u4f60\u5728\u51b0\u5929\u96ea\u5730\u88e1\u91e3\u9b5a
p271
sg5
VAllows you to fish in icy biomes
p272
sg7
VFishing.Effect.11
p273
ssS'2649407'
p274
(dp275
g3
V\u51b0\u91e3
p276
sg5
VIce Fishing
p277
sg7
VFishing.Effect.10
p278
ssS'2649400'
p279
(dp280
g3
V[[RED]]\u4f7f\u7528 [[DARK_AQUA]]{0} [[RED]]\u4f86\u555f\u7528\u548c\u968a\u54e1\u5206\u4eab\u7d93\u9a57
p281
sg5
V[[RED]]Use [[DARK_AQUA]]{0} [[RED]]to enable XP sharing with party members
p282
sg7
VParty.Help.10
p283
ssS'2649401'
p284
(dp285
g3
V\u56de\u6536
p286
sg5
VSalvage
p287
sg7
VSalvage.Pretty.Name
p288
ssS'2649402'
p289
(dp290
g3
V[[RED]]{0} \u53d6\u6d88!
p291
sg5
V[[RED]]{0} cancelled!
p292
sg7
VSkills.Cancelled
p293
ssS'2649403'
p294
(dp295
g3
V[[DARK_RED]]\u53d6\u6d88\u50b3\u9001!
p296
sg5
V[[DARK_RED]]Teleportation canceled!
p297
sg7
VTeleport.Cancelled
p298
ssS'2093971'
p299
(dp300
g3
V[[DARK_RED]]\u4f60\u7121\u6cd5\u56de\u6536\u5df2\u53d7\u640d\u7684\u7269\u54c1
p301
sg5
V[[DARK_RED]]You can't salvage damaged items.
p302
sg7
VRepair.Skills.NotFullDurability
p303
ssS'2649408'
p304
(dp305
g3
V\u96dc\u9805
p306
sg5
VMisc
p307
sg7
VParty.ItemShare.Category.Misc
p308
ssS'2649409'
p309
(dp310
g3
V\u8349\u85e5\u5b78
p311
sg5
VHerbalism
p312
sg7
VParty.ItemShare.Category.Herbalism
p313
ssS'2093976'
p314
(dp315
g3
V[[DARK_RED]]\u56e0\u70ba\u719f\u7df4\u5ea6\u4e0d\u5920\u6240\u4ee5\u4f60\u4e0d\u80fd\u56de\u6536\u5b83\u5011
p316
sg5
V[[DARK_RED]]You're not skilled enough to Salvage items.
p317
sg7
VRepair.Skills.AdeptSalvage
p318
ssS'792127'
p319
(dp320
g3
V<player> [[RED]]- \u50b3\u9001\u5230\u968a\u4f0d\u6210\u54e1\u65c1
p321
sg5
V<player> [[RED]]- Teleport to party member
p322
sg7
VCommands.Party.Teleport
p323
ssS'791880'
p324
(dp325
g3
V\u968a\u4f0d\u804a\u5929\u6a21\u5f0f[[RED]]\u53d6\u6d88
p326
sg5
VParty Chat only [[RED]]Off
p327
sg7
VCommands.Party.Chat.Off
p328
ssS'791883'
p329
(dp330
g3
V[[GRAY]]**\u4f60\u653e\u4e0b\u4e86\u4f60\u7684\u65a7\u982d**
p331
sg5
V[[GRAY]]**YOU LOWER YOUR AXE**
p332
sg7
VAxes.Ability.Lower
p333
ssS'792124'
p334
(dp335
g3
V<skill> <page> [[RED]]- \u6392\u884c\u699c
p336
sg5
V<skill> <page> [[RED]]- Leaderboards
p337
sg7
VCommands.Leaderboards
p338
ssS'792123'
p339
(dp340
g3
V[[DARK_GRAY]]\u7b49\u7d1a: [[GREEN]]{0} [[DARK_AQUA]]\u7d93\u9a57\u503c[[YELLOW]]([[GOLD]]{1}[[YELLOW]]/[[GOLD]]{2}[[YELLOW]])
p341
sg5
V[[DARK_GRAY]]LVL: [[GREEN]]{0} [[DARK_AQUA]]XP[[YELLOW]]([[GOLD]]{1}[[YELLOW]]/[[GOLD]]{2}[[YELLOW]])
p342
sg7
VEffects.Level
p343
ssS'792089'
p344
(dp345
g3
V\u91e3\u9b5a:
p346
sg5
VFishing:
p347
sg7
VFishing.Listener
p348
ssS'792121'
p349
(dp350
g3
V[[RED]]\u9019\u500b\u968a\u4f0d\u5df2\u7d93\u9396\u5b9a\u4e86!
p351
sg5
V[[RED]]This party is already locked!
p352
sg7
VParty.IsLocked
p353
ssS'791978'
p354
(dp355
g3
V[[RED]]\u4f60\u4e0d\u80fd\u53ec\u63db\u72fc\u56e0\u70ba\u4f60\u5df2\u7d93\u53ec\u559a\u592a\u591a\u4e86.
p356
sg5
V[[RED]]You have too many wolves nearby to summon any more.
p357
sg7
VTaming.Summon.Fail.Wolf
p358
ssS'791889'
p359
(dp360
g3
V[[GREEN]]\u4f60\u7684 [[YELLOW]]\u66b4\u8d70\u947d\u982d [[GREEN]]\u6280\u80fd\u5df2\u7d93\u53ef\u4ee5\u4f7f\u7528\u4e86!
p361
sg5
V[[GREEN]]Your [[YELLOW]]Giga Drill Breaker [[GREEN]]ability is refreshed!
p362
sg7
VExcavation.Skills.GigaDrillBreaker.Refresh
p363
ssS'792085'
p364
(dp365
g3
V[[RED]]**\u7da0\u624b\u6307\u5931\u6557**
p366
sg5
V[[RED]]**GREEN THUMB FAIL**
p367
sg7
VHerbalism.Ability.GTh.Fail
p368
ssS'792087'
p369
(dp370
g3
V<player> [[RED]]-\u67e5\u770b\u73a9\u5bb6\u8a73\u7d30\u8a0a\u606f
p371
sg5
V<player> [[RED]]- View detailed player info
p372
sg7
VCommands.Inspect
p373
ssS'791728'
p374
(dp375
g3
V[[RED]]**\u88ab\u5f37\u529b\u653b\u64ca\u64ca\u4e2d**
p376
sg5
V[[RED]]**HIT BY GREATER IMPACT**
p377
sg7
VAxes.Combat.GI.Struck
p378
ssS'2456029'
p379
(dp380
g3
V[[RED]]\u4e0a\u9264\u6a5f\u7387: [[YELLOW]]{0}
p381
sg5
V[[RED]]Bite Chance: [[YELLOW]]{0}
p382
sg7
VFishing.Ability.Chance
p383
ssS'2195749'
p384
(dp385
g3
V[[RED]]\u8981\u5f9e\u968a\u4f0d\u4e2d\u8e22\u6389\u6210\u54e1\uff0c\u4f7f\u7528[[DARK_AQUA]] {0} <player>
p386
sg5
V[[RED]]To kick a player from your party, use [[DARK_AQUA]]{0} <player>
p387
sg7
VParty.Help.6
p388
ssS'2195748'
p389
(dp390
g3
V\u540d\u7a31
p391
sg5
Vname
p392
sg7
VCommands.Usage.PartyName
p393
ssS'791720'
p394
(dp395
g3
V\u6536\u7a6b\u8fb2\u4f5c\u7269
p396
sg5
VHarvesting Herbs
p397
sg7
VCommands.XPGain.Herbalism
p398
ssS'791721'
p399
(dp400
g3
V\u6316\u6398
p401
sg5
VEXCAVATION
p402
sg7
VExcavation.SkillName
p403
ssS'791724'
p404
(dp405
g3
V[[GREEN]]\u4f60\u7684 [[YELLOW]]\u6316\u7926\u7206\u767c [[GREEN]]\u51b7\u537b\u6642\u9593\u5df2\u7d50\u675f!
p406
sg5
V[[GREEN]]Your [[YELLOW]]Blast Mining [[GREEN]]ability is refreshed!
p407
sg7
VMining.Blast.Refresh
p408
ssS'791966'
p409
(dp410
g3
V\u6383\u9664\u8449\u5b50
p411
sg5
VBlow Away Leaves
p412
sg7
VWoodcutting.Effect.3
p413
ssS'791726'
p414
(dp415
g3
V\u6316\u5230\u5bf6\u7269
p416
sg5
VDigging and finding treasures
p417
sg7
VCommands.XPGain.Excavation
p418
ssS'791875'
p419
(dp420
g3
V[[DARK_GRAY]]\u5982\u679c\u4f60\u7121\u6cd5\u4f7f\u7528\u90a3\u4e9b\u6280\u80fd\u5c31\u4e0d\u6703\u51fa\u73fe\u5728\u9019\u88e1
p421
sg5
V[[DARK_GRAY]]If you don't have access to a skill it will not be shown here.
p422
sg7
VmcMMO.NoSkillNote
p423
ssS'792059'
p424
(dp425
g3
V\u91e3\u9b5a
p426
sg5
VFISHING
p427
sg7
VFishing.SkillName
p428
ssS'2127530'
p429
(dp430
g3
V\u4f7f\u4f60\u64c1\u6709\u5fae\u5c0f\u6a5f\u7387\u767c\u73fe\u7a00\u6709\u7269\u54c1
p431
sg5
VGives a small chance of finding rare items
p432
sg7
VHerbalism.Effect.11
p433
ssS'2124964'
p434
(dp435
g3
V\u9801\u6578
p436
sg5
Vpage
p437
sg7
VCommands.Usage.Page
p438
ssS'2115570'
p439
(dp440
g3
V[[RED]]\u4f60\u7684\u5c0d\u624b\u6709\u9435\u722a!
p441
sg5
V[[RED]]Your opponent has an iron grip!
p442
sg7
VUnarmed.Ability.IronGrip.Attacker
p443
ssS'791878'
p444
(dp445
g3
V[[RED]]**\u7da0\u5316\u5df2\u7ed3\u675f**
p446
sg5
V[[RED]]**Green Terra has worn off**
p447
sg7
VHerbalism.Skills.GTe.Off
p448
ssS'792056'
p449
(dp450
g3
V[[RED]]\u653e\u8840\u6301\u7e8c\u6642\u9593: [[YELLOW]]{0} \u9031\u671f
p451
sg5
V[[RED]]Bleed Length: [[YELLOW]]{0} ticks
p452
sg7
VSwords.Combat.Bleed.Length
p453
ssS'792000'
p454
(dp455
g3
V\u99b4\u7378\u4e4b\u80fd
p456
sg5
VBeast Lore
p457
sg7
VTaming.Effect.0
p458
ssS'791967'
p459
(dp460
g3
V\u96d9\u500d\u6389\u843d
p461
sg5
VDouble Drops
p462
sg7
VWoodcutting.Effect.4
p463
ssS'792055'
p464
(dp465
g3
V\u7ffb\u6efe
p466
sg5
VRoll
p467
sg7
VAcrobatics.Effect.0
p468
ssS'2124979'
p469
(dp470
g3
V[[GREEN]]\u4f60\u7684 {0} \u7b49\u7d1a\u88ab\u8a2d\u5b9a\u70ba {1}!
p471
sg5
V[[GREEN]]Your level in {0} was set to {1}!
p472
sg7
VCommands.mmoedit.Modified.1
p473
ssS'792014'
p474
(dp475
g3
V\u5c0d\u6709\u88dd\u7532\u6575\u4eba\u984d\u5916\u9020\u6210 {0} \u50b7\u5bb3
p476
sg5
VDeal {0} Bonus DMG to armor
p477
sg7
VAxes.Ability.Bonus.3
p478
ssS'2190046'
p479
(dp480
g3
V\u7d66\u4e88\u73a9\u5bb6McMMO\u7b49\u7d1a
p481
sg5
VAdd mcMMO levels to a user
p482
sg7
VCommands.Description.addlevels
p483
ssS'2190045'
p484
(dp485
g3
V[RED]]\u9019\u500b\u6307\u4ee4\u4e26\u4e0d\u9069\u7528\u65bc\u96e2\u7dda\u73a9\u5bb6.
p486
sg5
V[[RED]]This command does not work for offline players.
p487
sg7
VCommands.Offline
p488
ssS'791972'
p489
(dp490
g3
V\u968a\u4f0d\u804a\u5929\u6a21\u5f0f [[GREEN]]\u958b\u555f
p491
sg5
VParty Chat only [[GREEN]]On
p492
sg7
VCommands.Party.Chat.On
p493
ssS'2190043'
p494
(dp495
g3
V\u91cd\u7f6e\u73a9\u5bb6McMMO\u7b49\u7d1a
p496
sg5
VReset mcMMO levels for a user
p497
sg7
VCommands.Description.skillreset
p498
ssS'792002'
p499
(dp500
g3
V\u6bdb\u76ae\u5f37\u5316
p501
sg5
VThick Fur
p502
sg7
VTaming.Effect.8
p503
ssS'2190041'
p504
(dp505
g3
V[[RED]]\u9019\u500b\u968a\u4f0d\u6709\u5bc6\u78bc\u4fdd\u8b77. \u8acb\u63d0\u4f9b\u5bc6\u78bc\u4f86\u52a0\u5165.
p506
sg5
V[[RED]]This party is password protected. Please provide a password to join.
p507
sg7
VParty.Password.None
p508
ssS'3823880'
p509
(dp510
g3
V[[GOLD]][mcMMO] \u786c\u6d3e\u6a21\u5f0f {0} \u95dc\u9589. {1}
p511
sg5
V[[GOLD]][mcMMO] Hardcore mode {0} disabled for {1}.
p512
sg7
VHardcore.Mode.Disabled
p513
ssS'3785671'
p514
(dp515
g3
V[[GOLD]]\u5c0f\u6280\u5de7: \u7576\u5f97\u5206\u699c\u51fa\u73fe\u6642\u8f38\u5165 [[RED]]/mcscoreboard keep[[GOLD]] \u4f86\u907f\u514d\u5b83\u6d88\u5931.
p516
sg5
V[[GOLD]]Tip: Use [[RED]]/mcscoreboard keep[[GOLD]] while the scoreboard is shown to keep it from going away.
p517
sg7
VCommands.Scoreboard.Tip.Keep
p518
ssS'791975'
p519
(dp520
g3
V[[GRAY]]\u4f60\u7684\u88dd\u5099\u8010\u4e45\u5ea6\u5df2\u6eff!
p521
sg5
V[[GRAY]]That is at full durability.
p522
sg7
VRepair.Skills.FullDurability
p523
ssS'792003'
p524
(dp525
g3
V\u524a\u6e1b\u706b\u7130\u50b7\u5bb3
p526
sg5
VDMG Reduction, Fire Resistance
p527
sg7
VTaming.Effect.9
p528
ssS'2190049'
p529
(dp530
g3
V\u9396\u4f4f\u4f60\u4e00\u500b\u7279\u5b9amcMMO\u6280\u80fd\u7684\u7d93\u9a57\u6b04
p531
sg5
VLock your mcMMO XP bar to a specific mcMMO skill
p532
sg7
VCommands.Description.xplock
p533
ssS'791974'
p534
(dp535
g3
V[[RED]]\u4f10\u6728\u5de5\u6301\u7e8c\u6642\u9593: [[YELLOW]]{0}s
p536
sg5
V[[RED]]Tree Feller Length: [[YELLOW]]{0}s
p537
sg7
VWoodcutting.Ability.Length
p538
ssS'2124949'
p539
(dp540
g3
V[[DARK_RED]]\u4f60\u4e26\u975e\u968a\u9577.
p541
sg5
V[[DARK_RED]]You are not the party leader.
p542
sg7
VParty.NotOwner
p543
ssS'791835'
p544
(dp545
g3
V[[GREEN]]**\u66b4\u8d70\u947d\u982d\u6280\u80fd\u4f7f\u7528**
p546
sg5
V[[GREEN]]**GIGA DRILL BREAKER ACTIVATED**
p547
sg7
VExcavation.Skills.GigaDrillBreaker.On
p548
ssS'791836'
p549
(dp550
g3
V[[RED]]- \u5207\u63db\u70ba\u795e\u4e4b\u6a21\u5f0f
p551
sg5
V[[RED]]- Toggle GodMode
p552
sg7
VCommands.mcgod
p553
ssS'792010'
p554
(dp555
g3
V[[GRAY]]**\u78b0!**
p556
sg5
V[[GRAY]]**BOOM**
p557
sg7
VMining.Blast.Boom
p558
ssS'791830'
p559
(dp560
g3
V[[RED]]\u8d85\u7d1a\u788e\u77f3\u6a5f[[GREEN]] \u5373\u5c07\u7ed3\u675f [[YELLOW]]{0}
p561
sg5
V[[RED]]Super Breaker[[GREEN]] has worn off for [[YELLOW]]{0}
p562
sg7
VMining.Skills.SuperBreaker.Other.Off
p563
ssS'791831'
p564
(dp565
g3
V[[GOLD]]-=\u96dc\u985e\u6280\u80fd=-
p566
sg5
V[[GOLD]]-=MISC SKILLS=-
p567
sg7
VStats.Header.Misc
p568
ssS'791832'
p569
(dp570
g3
V[[GRAY]]\u9644\u9b54\u964d\u7d1a\u6a5f\u7387: [[YELLOW]]{0}%
p571
sg5
V[[GRAY]]AF Downgrade Chance: [[YELLOW]]{0}%
p572
sg7
VRepair.Arcane.Chance.Downgrade
p573
ssS'791833'
p574
(dp575
g3
V[[RED]]\u60f3\u4fee\u6539\u7d93\u9a57\u503c\u7372\u5f97\u7387\u8acb\u8f38\u5165 /xprate <integer> <true/false>
p576
sg5
V[[RED]]Proper usage to change the XP rate is /xprate <integer> <true/false>
p577
sg7
VCommands.xprate.proper.0
p578
ssS'2124943'
p579
(dp580
g3
V[[DARK_AQUA]]\u8d0a\u52a9\u8cc7\u8a0a:
p581
sg5
V[[DARK_AQUA]]Donation Info:
p582
sg7
VMOTD.Donate
p583
ssS'792018'
p584
(dp585
g3
V\u9019\u500b\u6307\u4ee4\u4e0d\u53ef\u4f7f\u7528
p586
sg5
VThis command does not support console usage.
p587
sg7
VCommands.NoConsole
p588
ssS'2124945'
p589
(dp590
g3
V[[RED]]\u8acb\u8f38\u5165 /{0} {1} {2}
p591
sg5
V[[RED]]Proper usage is /{0} {1} {2}
p592
sg7
VCommands.Usage.2
p593
ssS'2124944'
p594
(dp595
g3
V[[RED]]\u8acb\u8f38\u5165 /{0} {1} {2} {3}
p596
sg5
V[[RED]]Proper usage is /{0} {1} {2} {3}
p597
sg7
VCommands.Usage.3
p598
ssS'2124947'
p599
(dp600
g3
V[[GOLD]]-=\u500b\u4eba\u6392\u884c=-
p601
sg5
V[[GOLD]]-=PERSONAL RANKINGS=-
p602
sg7
VCommands.mcrank.Heading
p603
ssS'2124946'
p604
(dp605
g3
V\u7d93\u9a57\u503c
p606
sg5
Vxp
p607
sg7
VCommands.Usage.XP
p608
ssS'3655329'
p609
(dp610
g3
V[mcMMO] \u4f60\u7684\u8840\u689d\u986f\u793a\u6a21\u5f0f\u5df2\u66f4\u6539\u70ba [[YELLOW]]\u65b9\u584a[[WHITE]].
p611
sg5
V[mcMMO] Your healthbar display type was changed to [[YELLOW]]Boxes[[WHITE]].
p612
sg7
VCommands.Healthbars.Changed.BAR
p613
ssS'3655328'
p614
(dp615
g3
V\u6280\u80fd\u4f7f\u7528\u5df2\u88ab\u5207\u63db\u70ba [[YELLOW]]{0}
p616
sg5
VAbility use has been toggled for [[YELLOW]]{0}
p617
sg7
VCommands.Ability.Toggle
p618
ssS'792008'
p619
(dp620
g3
V[[RED]]\u8acb\u8f38\u5165 true \u6216 false \u4f86\u8868\u793a\u9019\u662f\u4e00\u500b\u7d93\u9a57\u4e8b\u4ef6
p621
sg5
V[[RED]]Please specify true or false to indicate if this is an xp event or not
p622
sg7
VCommands.xprate.proper.2
p623
ssS'3655327'
p624
(dp625
g3
V\u795e\u4e4b\u6a21\u5f0f\u5df2\u88ab\u5207\u63db\u70ba [[YELLOW]]{0}
p626
sg5
VGod mode has been toggled for [[YELLOW]]{0}
p627
sg7
VCommands.GodMode.Toggle
p628
ssS'3655326'
p629
(dp630
g3
V[mcMMO] \u4f60\u7684\u602a\u7269\u8840\u689d\u5df2 [[GRAY]]\u505c\u7528[[WHITE]].
p631
sg5
V[mcMMO] Your mob healthbars have been [[GRAY]]disabled[[WHITE]].
p632
sg7
VCommands.Healthbars.Changed.DISABLED
p633
ssS'792009'
p634
(dp635
g3
V[[GREEN]][mcMMO] \u7684\u7d71\u8a08\u8a0a\u606f [[YELLOW]]{0}
p636
sg5
V[[GREEN]]mcMMO Stats for [[YELLOW]]{0}
p637
sg7
VInspect.Stats
p638
ssS'2190032'
p639
(dp640
g3
V\u986f\u793a\u8a73\u7d30\u7684{0}mcMMO\u6280\u80fd\u8cc7\u8a0a
p641
sg5
VDisplay detailed mcMMO skill info for {0}
p642
sg7
VCommands.Description.Skill
p643
ssS'2190033'
p644
(dp645
g3
V\u986f\u793a\u4f60\u7684MMO\u7b49\u7d1a\u8207\u7d93\u9a57
p646
sg5
VShow your mcMMO levels and XP
p647
sg7
VCommands.Description.mcstats
p648
ssS'2190030'
p649
(dp650
g3
V[[RED]]\u4f60\u5fc5\u9808\u6307\u5b9a\u4e00\u500b\u968a\u4f0d.
p651
sg5
V[[RED]]You must specify a party.
p652
sg7
VParty.Specify
p653
ssS'2190031'
p654
(dp655
g3
V\u5f9emcMMO\u8cc7\u6599\u5eab\u4e2d\u522a\u9664\u4f7f\u7528\u8005
p656
sg5
VRemove a user from the mcMMO database
p657
sg7
VCommands.Description.mcremove
p658
ssS'2190036'
p659
(dp660
g3
V\u5207\u63dbmcMMo\u795e\u4e4b\u6a21\u5f0f(\u958b/\u95dc)
p661
sg5
VToggle mcMMO god-mode on/off
p662
sg7
VCommands.Description.mcgod
p663
ssS'2190037'
p664
(dp665
g3
V\u7d66\u4e88\u73a9\u5bb6mcMMO\u7d93\u9a57\u503c
p666
sg5
VAdd mcMMO XP to a user
p667
sg7
VCommands.Description.addxp
p668
ssS'2190035'
p669
(dp670
g3
V\u986f\u793amcMMO\u6392\u884c\u699c
p671
sg5
VShow mcMMO leader boards
p672
sg7
VCommands.Description.mctop
p673
ssS'4068746'
p674
(dp675
g3
V[[RED]]\u968a\u4f0d\u50b3\u9001\u5c1a\u672a\u89e3\u9396.
p676
sg5
V[[RED]]Party teleport is not unlocked yet.
p677
sg7
VParty.Feature.Disabled.2
p678
ssS'4068744'
p679
(dp680
g3
V[[RED]]\u968a\u4f0d\u7269\u54c1\u5206\u4eab\u5c1a\u672a\u89e3\u9396.
p681
sg5
V[[RED]]Party item sharing is not unlocked yet.
p682
sg7
VParty.Feature.Disabled.4
p683
ssS'4068745'
p684
(dp685
g3
V\u806f\u76df
p686
sg5
VAlliances
p687
sg7
VParty.Feature.Alliance
p688
ssS'4068742'
p689
(dp690
g3
V\u968a\u4f0d\u50b3\u9001
p691
sg5
VParty Teleport
p692
sg7
VParty.Feature.Teleport
p693
ssS'4068743'
p694
(dp695
g3
V[[RED]]\u968a\u4f0d\u804a\u5929\u5c1a\u672a\u89e3\u9396.
p696
sg5
V[[RED]]Party chat is not unlocked yet.
p697
sg7
VParty.Feature.Disabled.1
p698
ssS'4068740'
p699
(dp700
g3
V[[RED]]\u968a\u4f0d\u806f\u76df\u5c1a\u672a\u89e3\u9396.
p701
sg5
V[[RED]]Party alliances are not unlocked yet.
p702
sg7
VParty.Feature.Disabled.3
p703
ssS'4068741'
p704
(dp705
g3
V\u7269\u54c1\u5206\u4eab
p706
sg5
VItem Sharing
p707
sg7
VParty.Feature.ItemShare
p708
ssS'797003'
p709
(dp710
g3
V[[RED]]\u6f02\u4eae\u7ffb\u6efe\u6a5f\u7387: [[YELLOW]]{0}
p711
sg5
V[[RED]]Graceful Roll Chance: [[YELLOW]]{0}
p712
sg7
VAcrobatics.Roll.GraceChance
p713
ssS'797002'
p714
(dp715
g3
V[[RED]]\u7ffb\u6efe\u6a5f\u7387: [[YELLOW]]{0}
p716
sg5
V[[RED]]Roll Chance: [[YELLOW]]{0}
p717
sg7
VAcrobatics.Roll.Chance
p718
ssS'797001'
p719
(dp720
g3
V[[RED]]\u6688\u7729\u6a5f\u7387: [[YELLOW]]{0}
p721
sg5
V[[RED]]Chance to Daze: [[YELLOW]]{0}
p722
sg7
VArchery.Combat.DazeChance
p723
ssS'3380530'
p724
(dp725
g3
V[[GOLD]][mcMMO] \u72c0\u614b\u5438\u6536\u7387\u8b8a\u66f4\u70ba {0}.
p726
sg5
V[[GOLD]][mcMMO] The stat leech percentage was changed to {0}.
p727
sg7
VHardcore.Vampirism.PercentageChanged
p728
ssS'2094874'
p729
(dp730
g3
V\u780d\u6a39
p731
sg5
VChopping down trees
p732
sg7
VCommands.XPGain.Woodcutting
p733
ssS'3380520'
p734
(dp735
g3
V[[GOLD]][mcMMO] [[YELLOW]]{0}[[DARK_RED]]\u5f9e\u4f60\u9019\u5077\u53d6\u4e86[[BLUE]]{1}[[DARK_RED]]\u500b\u7b49\u7d1a!
p736
sg5
V[[GOLD]][mcMMO] [[YELLOW]]{0}[[DARK_RED]] has stolen [[BLUE]]{1}[[DARK_RED]] levels from you!
p737
sg7
VHardcore.Vampirism.Victim.Success
p738
ssS'3607278'
p739
(dp740
g3
V[[RED]]mcMMO\u7121\u6cd5\u8f09\u5165\u4f60\u7684\u8cc7\u6599,\u4f60\u53ef\u80fd\u9700\u8981\u806f\u7e6b[[AQUA]]\u904a\u6232\u7ba1\u7406\u54e1\u005cn[[YELLOW]]\u4f60\u53ef\u4ee5\u7e7c\u7e8c\u904a\u6232,\u4f46\u4f60[[BOLD]]\u7121\u6cd5\u5f97\u5230mcMMO\u7b49\u7d1a[[YELLOW]]\u548c\u4efb\u4f55\u7d93\u9a57[[BOLD]]\u6240\u6709\u8cc7\u6599\u4e0d\u6703\u88ab\u5132\u5b58[[YELLOW]].
p741
sg5
V[[RED]]mcMMO still cannot load your data. You may want to [[AQUA]]contact the server owner.\u005cn[[YELLOW]]You can still play on the server, but you will have [[BOLD]]no mcMMO levels[[YELLOW]] and any XP you get [[BOLD]]will not be saved[[YELLOW]].
p742
sg7
VRecovery.Failure
p743
ssS'3607279'
p744
(dp745
g3
V[[RED]]\u6ce8\u610f: mcMMO[[DARK_RED]]\u7121\u6cd5\u8f09\u5165\u4f60\u7684\u8cc7\u6599.[[RED]] \u91cd\u8a665\u6b21...
p746
sg5
V[[RED]]Notice: mcMMO was [[DARK_RED]]unable to load your data.[[RED]] Retrying 5 times...
p747
sg7
VRecovery.Notice
p748
ssS'791900'
p749
(dp750
g3
V[[RED]]\u4f60\u4e0d\u80fd\u53ec\u63db\u5c71\u8c93\u56e0\u70ba\u4f60\u5df2\u7d93\u53ec\u559a\u592a\u591a\u4e86.
p751
sg5
V[[RED]]You have too many ocelots nearby to summon any more.
p752
sg7
VTaming.Summon.Fail.Ocelot
p753
ssS'791901'
p754
(dp755
g3
V\u6703\u5fc3\u4e00\u64ca
p756
sg5
VCritical Strikes
p757
sg7
VAxes.Effect.2
p758
ssS'791902'
p759
(dp760
g3
V\u9020\u6210\u7bc4\u570d\u50b7\u5bb3
p761
sg5
VDeal AoE Damage
p762
sg7
VAxes.Effect.1
p763
ssS'791903'
p764
(dp765
g3
V\u5288\u9871\u65ac (\u4e3b\u52d5\u6280\u80fd)
p766
sg5
VSkull Splitter (Ability)
p767
sg7
VAxes.Effect.0
p768
ssS'3613482'
p769
(dp770
g3
V[[GRAY]]\u4ec0\u9ebc\u6771\u897f,\u805e\u8d77\u4f86\u597d\u81ed\u554a...
p771
sg5
V[[GRAY]]Something doesn't smell quite right...
p772
sg7
VFishing.Ability.TH.Poison
p773
ssS'791905'
p774
(dp775
g3
V\u5f37\u529b\u653b\u64ca
p776
sg5
VGreater Impact
p777
sg7
VAxes.Effect.8
p778
ssS'792060'
p779
(dp780
g3
V[[RED]]**\u66b4\u8d70\u947d\u982d\u5df2\u7ed3\u675f**
p781
sg5
V[[RED]]**Giga Drill Breaker has worn off**
p782
sg7
VExcavation.Skills.GigaDrillBreaker.Off
p783
ssS'791907'
p784
(dp785
g3
V\u4f10\u6728:
p786
sg5
VWoodcutting:
p787
sg7
VWoodcutting.Listener
p788
ssS'3219351'
p789
(dp790
g3
V\u7da0\u624b\u6307 (\u5927\u91cf)
p791
sg5
VGreen Thumb (Blocks)
p792
sg7
VHerbalism.Effect.4
p793
ssS'893594'
p794
(dp795
g3
V[[RED]]\u53cd\u64ca\u6a5f\u7387: [[YELLOW]]{0}
p796
sg5
V[[RED]]Counter Attack Chance: [[YELLOW]]{0}
p797
sg7
VSwords.Combat.Counter.Chance
p798
ssS'791729'
p799
(dp800
g3
V\u7ba1\u7406\u54e1\u804a\u5929\u6a21\u5f0f [[RED]]\u95dc\u9589
p801
sg5
VAdmin Chat only [[RED]]Off
p802
sg7
VCommands.AdminChat.Off
p803
ssS'796998'
p804
(dp805
g3
V[[RED]]\u6280\u8853\u5c04\u64ca\u734e\u52f5\u50b7\u5bb3: [[YELLOW]]{0}
p806
sg5
V[[RED]]Skill Shot Bonus Damage: [[YELLOW]]{0}
p807
sg7
VArchery.Combat.SkillshotBonus
p808
ssS'796999'
p809
(dp810
g3
V[[RED]]\u8ff4\u907f\u6a5f\u7387: [[YELLOW]]{0}
p811
sg5
V[[RED]]Dodge Chance: [[YELLOW]]{0}
p812
sg7
VAcrobatics.DodgeChance
p813
ssS'3398944'
p814
(dp815
g3
V\u8f49\u63db\u8cc7\u6599\u5eab\u7684\u7a2e\u985e\u6216\u7d93\u9a57\u503c\u516c\u5f0f\u7684\u7a2e\u985e
p816
sg5
VConverts database types or experience formula types
p817
sg7
VCommands.Description.mcconvert
p818
ssS'796997'
p819
(dp820
g3
V[[RED]]\u56de\u6536\u7bad\u77e2\u7684\u6a5f\u7387: [[YELLOW]]{0}
p821
sg5
V[[RED]]Chance to Retrieve Arrows: [[YELLOW]]{0}
p822
sg7
VArchery.Combat.RetrieveChance
p823
ssS'2138166'
p824
(dp825
g3
V\u6316\u539f\u7926\u6642\u6709\u6a5f\u7387\u76f4\u63a5\u6389\u51fa\u51b6\u7149\u597d\u7684\u7926\u7269
p826
sg5
VChance for ores to be instantly smelted while mining
p827
sg7
VSmelting.Effect.7
p828
ssS'2138167'
p829
(dp830
g3
V\u589e\u52a0\u51b6\u7149\u6642\u7684\u4e00\u822c\u7d93\u9a57
p831
sg5
VIncrease vanilla XP gained while smelting
p832
sg7
VSmelting.Effect.5
p833
ssS'2138164'
p834
(dp835
g3
V\u589e\u52a0\u71c3\u6599\u5728\u7194\u7210\u88e1\u71c3\u71d2\u7684\u6642\u9593
p836
sg5
VIncrease the burn time of fuel used in furnaces when smelting
p837
sg7
VSmelting.Effect.1
p838
ssS'2138165'
p839
(dp840
g3
V\u71c3\u6599\u6548\u7387
p841
sg5
VFuel Efficiency
p842
sg7
VSmelting.Effect.0
p843
ssS'2138162'
p844
(dp845
g3
V\u51b6\u7149\u7926\u7269\u52a0\u500d
p846
sg5
VDouble the resources gained from smelting
p847
sg7
VSmelting.Effect.3
p848
ssS'2138163'
p849
(dp850
g3
V\u518d\u51b6\u7149
p851
sg5
VSecond Smelt
p852
sg7
VSmelting.Effect.2
p853
ssS'2138161'
p854
(dp855
g3
V\u4e00\u822c\u7d93\u9a57\u52a0\u4e58
p856
sg5
VVanilla XP Boost
p857
sg7
VSmelting.Effect.4
p858
ssS'2160044'
p859
(dp860
g3
V[[GRAY]]\u7d93\u9a57\u503c [[DARK_AQUA]]({0})
p861
sg5
V[[GRAY]]EXP [[DARK_AQUA]]({0})
p862
sg7
VCommands.Party.ExpShare
p863
ssS'2138168'
p864
(dp865
g3
V\u51b6\u7149
p866
sg5
VSMELTING
p867
sg7
VSmelting.SkillName
p868
ssS'791768'
p869
(dp870
g3
V\u653b\u64ca\u602a\u7269
p871
sg5
VAttacking Monsters
p872
sg7
VCommands.XPGain.Swords
p873
ssS'791769'
p874
(dp875
g3
V[[RED]]\u6ce8\u610f: [[GREEN]]\u4f60\u6536\u5230\u4e86\u4f86\u81ea {1} \u7684\u968a\u4f0d\u9080\u8acb {0} 
p876
sg5
V[[RED]]ALERT: [[GREEN]]You have received a party invite for {0} from {1}
p877
sg7
VCommands.Party.Invite.0
p878
ssS'791764'
p879
(dp880
g3
V\u4fee\u7406
p881
sg5
VREPAIR
p882
sg7
VRepair.SkillName
p883
ssS'791765'
p884
(dp885
g3
V[[GREEN]]**\u5288\u9871\u65ac\u5df2\u4f7f\u7528**
p886
sg5
V[[GREEN]]**Skull Splitter ACTIVATED**
p887
sg7
VAxes.Skills.SS.On
p888
ssS'791766'
p889
(dp890
g3
V[[GRAY]]{0}
p891
sg5
V[[GRAY]]{0}
p892
sg7
VAbility.Generic.Template.Lock
p893
ssS'792160'
p894
(dp895
g3
V\u6e1b\u5c11\u4f86\u81eaTNT\u7684\u50b7\u5bb3
p896
sg5
VDecreases damage from TNT explosions
p897
sg7
VMining.Effect.9
p898
ssS'791762'
p899
(dp900
g3
V\u4fee\u7406\uff1a
p901
sg5
VRepair:
p902
sg7
VRepair.Listener
p903
ssS'791983'
p904
(dp905
g3
V\u5feb\u9910\u670d\u52d9
p906
sg5
VFast Food Service
p907
sg7
VTaming.Ability.Bonus.8
p908
ssS'3436694'
p909
(dp910
g3
V[[GOLD]][mcMMO] [[DARK_AQUA]]\u786c\u6d3e\u6a21\u5f0f\u5df2\u555f\u7528: [[DARK_RED]]{0}
p911
sg5
V[[GOLD]][mcMMO] [[DARK_AQUA]]Hardcore Mode enabled: [[DARK_RED]]{0}
p912
sg7
VMOTD.Hardcore.Enabled
p913
ssS'3436692'
p914
(dp915
g3
V[[GOLD]][mcMMO] [[DARK_AQUA]]\u6b7b\u4ea1\u6280\u80fd\u61f2\u7f70: [[DARK_RED]]{0}%
p916
sg5
V[[GOLD]][mcMMO] [[DARK_AQUA]]Skill Death Penalty: [[DARK_RED]]{0}%
p917
sg7
VMOTD.Hardcore.DeathStatLoss.Stats
p918
ssS'3436693'
p919
(dp920
g3
V[[GOLD]][mcMMO] [[DARK_AQUA]]\u5438\u8840\u7372\u5f97\u72c0\u614b: [[DARK_RED]]{0}%
p921
sg5
V[[GOLD]][mcMMO] [[DARK_AQUA]]Vampirism Stat Leech: [[DARK_RED]]{0}%
p922
sg7
VMOTD.Hardcore.Vampirism.Stats
p923
ssS'2737045'
p924
(dp925
g3
V\u5f9e\u820a\u7684 mcMMO \u8cc7\u6599\u5eab\u9077\u79fb\u5230\u76ee\u524d\u4f7f\u7528\u7684\u8cc7\u6599\u5eab
p926
sg5
VMigrate mcMMO database from an old database into the current one
p927
sg7
VCommands.Description.mmoupdate
p928
ssS'2737042'
p929
(dp930
g3
V\u985e\u5225\u540d\u7a31
p931
sg5
Vclassname
p932
sg7
VCommands.Usage.FullClassName
p933
ssS'2737043'
p934
(dp935
g3
V[[YELLOW]]\u76ee\u524d\u4f7f\u7528\u7684\u8cc7\u6599\u5eab\u662f [[GREEN]]{0}
p936
sg5
V[[YELLOW]]The currently used database is [[GREEN]]{0}
p937
sg7
VCommands.mmoshowdb
p938
ssS'3607281'
p939
(dp940
g3
V[[GREEN]]\u6210\u529f!\u4f60\u7684mcMMO\u8cc7\u6599\u5df2\u8f09\u5165.
p941
sg5
V[[GREEN]]Success! Your mcMMO data was loaded.
p942
sg7
VRecovery.Success
p943
ssS'2737048'
p944
(dp945
g3
V\u986f\u793a\u76ee\u524d\u7684\u8cc7\u6599\u5eab\u985e\u5225 (\u70ba\u4e86\u4e4b\u5f8c\u5728 /mmoupdate \u4e2d\u4f7f\u7528)
p946
sg5
VShow the name of the current database type (for later use with /mmoupdate)
p947
sg7
VCommands.Description.mmoshowdb
p948
ssS'3607280'
p949
(dp950
g3
V[[DARK_RED]][A][[RED]]mcMMO\u7121\u6cd5\u8f09\u5165\u73a9\u5bb6[[YELLOW]]{0}[[RED]]\u7684\u8cc7\u6599. [[LIGHT_PURPLE]]\u8acb\u6aa2\u67e5\u4f60\u7684\u8cc7\u6599\u5eab\u6216\u8a2d\u5b9a.
p951
sg5
V[[DARK_RED]][A][[RED]] mcMMO was unable to load the player data for [[YELLOW]]{0}[[RED]]. [[LIGHT_PURPLE]]Please inspect your database setup.
p952
sg7
VRecovery.AdminFailureNotice
p953
ssS'3380466'
p954
(dp955
g3
V[[GOLD]][mcMMO] [[DARK_AQUA]]\u4f60\u5f9e[[YELLOW]]{1}[[DARK_AQUA]]\u90a3\u5077\u53d6\u4e86[[BLUE]]{0}[[DARK_AQUA]]\u500b\u7b49\u7d1a .
p956
sg5
V[[GOLD]][mcMMO] [[DARK_AQUA]]You have stolen [[BLUE]]{0}[[DARK_AQUA]] levels from [[YELLOW]]{1}.
p957
sg7
VHardcore.Vampirism.Killer.Success
p958
ssS'3380462'
p959
(dp960
g3
V\u5438\u8840\u6a21\u5f0f
p961
sg5
VVampirism
p962
sg7
VHardcore.Vampirism.Name
p963
ssS'2215960'
p964
(dp965
g3
V\u6563\u64ad\u83cc\u7d72\u9ad4\u81f3\u571f\u548c\u8349
p966
sg5
VSpread mycelium to dirt & grass
p967
sg7
VHerbalism.Effect.13
p968
ssS'2115614'
p969
(dp970
g3
V[[YELLOW]]\u6574\u9ad4[[GREEN]] - [[GOLD]]\u6392\u884c [[WHITE]]#[[GREEN]]{0}
p971
sg5
V[[YELLOW]]Overall[[GREEN]] - [[GOLD]]Rank [[WHITE]]#[[GREEN]]{0}
p972
sg7
VCommands.mcrank.Overall
p973
ssS'791736'
p974
(dp975
g3
V[[DARK_RED]]\u4f60\u7684\u6280\u80fd\u7b49\u7d1a\u4e0d\u8db3\u4ee5\u4fee\u7406\u9ec4\u91d1\u88dd\u5099!
p976
sg5
V[[DARK_RED]]You're not skilled enough to repair Gold.
p977
sg7
VRepair.Skills.AdeptGold
p978
ssS'792150'
p979
(dp980
g3
V\u7da0\u624b\u6307 (\u5c0f\u9ea5)
p981
sg5
VGreen Thumb (Wheat)
p982
sg7
VHerbalism.Effect.2
p983
ssS'792041'
p984
(dp985
g3
V[[RED]]\u9019\u500b\u968a\u4f0d\u4e26\u6c92\u6709\u9396\u5b9a!
p986
sg5
V[[RED]]This party is not locked!
p987
sg7
VParty.IsntLocked
p988
ssS'791734'
p989
(dp990
g3
V[[DARK_RED]]\u6230\u9b25\u529b: [[GREEN]]{0}
p991
sg5
V[[DARK_RED]]POWER LEVEL: [[GREEN]]{0}
p992
sg7
VCommands.PowerLevel
p993
ssS'792118'
p994
(dp995
g3
V[[GREEN]]\u4f60\u6210\u529f\u5730\u4fdd\u7559\u4e86\u9019\u4ef6\u7269\u54c1\u7684\u9644\u9b54.
p996
sg5
V[[GREEN]]You have sustained the arcane energies in this item.
p997
sg7
VRepair.Arcane.Perfect
p998
ssS'2115596'
p999
(dp1000
g3
V[[RED]]\u66b4\u64ca\u6a5f\u7387: [[YELLOW]]{0}%
p1001
sg5
V[[RED]]Chance to critically strike: [[YELLOW]]{0}
p1002
sg7
VAxes.Combat.CritChance
p1003
ssS'792117'
p1004
(dp1005
g3
V[[RED]]\u9019\u500b\u968a\u4f0d\u5df2\u9396\u5b9a!\u53ea\u6709\u968a\u9577\u53ef\u4ee5\u9080\u8acb!
p1006
sg5
V[[RED]]Party is locked, only party leader may invite.
p1007
sg7
VParty.Locked
p1008
ssS'792114'
p1009
(dp1010
g3
V\u6316\u51fa\u5bf6\u85cf\u7684\u80fd\u529b
p1011
sg5
VAbility to dig for treasure
p1012
sg7
VExcavation.Effect.3
p1013
ssS'2115595'
p1014
(dp1015
g3
V\u9632\u5177\u7834\u58de\u8005
p1016
sg5
VArmor Impact
p1017
sg7
VAxes.Ability.Bonus.2
p1018
ssS'2115592'
p1019
(dp1020
g3
V[[GOLD]][mcMMO] [[GREEN]]{0}[[YELLOW]] - mcMMO \u9996\u9801
p1021
sg5
V[[GOLD]][mcMMO] [[GREEN]]{0}[[YELLOW]] - mcMMO Website
p1022
sg7
VMOTD.Website
p1023
ssS'2115593'
p1024
(dp1025
g3
V{0} \u4e00\u5b9a\u6a5f\u7387\u5728\u653b\u64ca\u6642\u6062\u5fa9\u8840\u91cf
p1026
sg5
V{0} Chance for heal on attack
p1027
sg7
VTaming.Ability.Bonus.9
p1028
ssS'792111'
p1029
(dp1030
g3
V[[GREEN]]\u9080\u8acb\u8a0a\u606f\u767c\u9001\u6210\u529f
p1031
sg5
V[[GREEN]]Invite sent successfully.
p1032
sg7
VCommands.Invite.Success
p1033
ssS'791705'
p1034
(dp1035
g3
V[[GREEN]]**\u4f60\u63e1\u7dca\u8457\u4f60\u7684\u93ac\u5b50**
p1036
sg5
V[[GREEN]]**YOU READY YOUR PICKAXE**
p1037
sg7
VMining.Ability.Ready
p1038
ssS'791730'
p1039
(dp1040
g3
V[[GOLD]]mcMMO\u73fe\u6b63\u8655\u65bc\u7d93\u9a57\u503c\u52a0\u500d\u968e\u6bb5!\u7d93\u9a57\u503c\u6bd4\u4f8b\u70ba{0}!
p1041
sg5
V[[GOLD]]mcMMO is currently in an XP rate event! XP rate is {0}x!
p1042
sg7
VXPRate.Event
p1043
ssS'791703'
p1044
(dp1045
g3
V[[YELLOW]]\u6316\u7926\u6280\u80fd\u4e0a\u5347\u4e86 {0}. \u7e3d\u7b49\u7d1a  ({1})
p1046
sg5
V[[YELLOW]]Mining skill increased by {0}. Total ({1})
p1047
sg7
VMining.Skillup
p1048
ssS'3595881'
p1049
(dp1050
g3
V\u6709\u65b0\u7684\u7248\u672cBukkitDev\u3002
p1051
sg5
VThere is a new version available on BukkitDev.
p1052
sg7
VUpdateChecker.NewAvailable
p1053
ssS'3595880'
p1054
(dp1055
g3
V\u8010\u529b
p1056
sg5
VEndurance
p1057
sg7
VPerks.ActivationTime.Name
p1058
ssS'3889104'
p1059
(dp1060
g3
V[[DARK_AQUA]]mcMMO \u5f97\u5206\u699c\u5f9e\u73fe\u5728\u958b\u59cb\u5c07\u6703\u6e05\u9664 [[GOLD]]{0}[[DARK_AQUA]] \u79d2.
p1061
sg5
V[[DARK_AQUA]]The mcMMO scoreboard will clear [[GOLD]]{0}[[DARK_AQUA]] seconds from now.
p1062
sg7
VCommands.Scoreboard.Timer
p1063
ssS'3595882'
p1064
(dp1065
g3
V\u5feb\u901f\u56de\u5fa9
p1066
sg5
VFast Recovery
p1067
sg7
VPerks.Cooldowns.Name
p1068
ssS'3633768'
p1069
(dp1070
g3
V[[DARK_AQUA]]\u91e3\u9b5a\u7684\u6ce8\u610f\u4e8b\u9805:[[YELLOW]]\u6389\u843d\u8a2d\u5b9a\u662f\u53ef\u8abf\u6574\u7684,[[YELLOW]]\u5404\u4f3a\u670d\u5668\u53ef\u80fd\u6709\u6240\u4e0d\u540c.
p1071
sg5
V[[DARK_AQUA]]Notes about Fishing:\u005cn[[YELLOW]]Fishing drops are completely customizable,\u005cn[[YELLOW]]so results vary server to server.
p1072
sg7
VGuides.Fishing.Section.6
p1073
ssS'3588435'
p1074
(dp1075
g3
V[[RED]]\u518d\u6b21\u4f7f\u7528\u6b64\u547d\u4ee4\u4e4b\u524d,\u4f60\u5fc5\u9808\u7b49\u4e0a1\u79d2.
p1076
sg5
V[[RED]]You must wait 1 second before using this command again.
p1077
sg7
VCommands.Database.Cooldown
p1078
ssS'792091'
p1079
(dp1080
g3
V\u653e\u8840
p1081
sg5
VBleed
p1082
sg7
VSwords.Effect.6
p1083
ssS'792022'
p1084
(dp1085
g3
V[[RED]]\u9019\u4e0d\u662f\u4e00\u500b\u6709\u6548\u7684\u6280\u80fd\u540d\u5b57!
p1086
sg5
V[[RED]]That is not a valid skillname!
p1087
sg7
VCommands.Skill.Invalid
p1088
ssS'2649390'
p1089
(dp1090
g3
V\u5947\u7f8e\u62c9\u4e4b\u7ffc
p1091
sg5
VChimaera Wing
p1092
sg7
VItem.ChimaeraWing.Name
p1093
ssS'2649391'
p1094
(dp1095
g3
V\u9396\u5b9a\u76f4\u5230\u6280\u80fd {0}+ (\u51b0\u91e3)
p1096
sg5
VLOCKED UNTIL {0}+ SKILL (ICE FISHING)
p1097
sg7
VFishing.Ability.Locked.1
p1098
ssS'2649392'
p1099
(dp1100
g3
V\u4f10\u6728
p1101
sg5
VWoodcutting
p1102
sg7
VParty.ItemShare.Category.Woodcutting
p1103
ssS'2649393'
p1104
(dp1105
g3
V\u4fee\u7406
p1106
sg5
VRepair
p1107
sg7
VRepair.Pretty.Name
p1108
ssS'2649394'
p1109
(dp1110
g3
V[[GRAY]]\u5373\u5c07\u5728 [[GOLD]]({0}) [[GRAY]]\u79d2\u5f8c\u50b3\u9001, \u8acb\u4e0d\u8981\u4e82\u52d5...
p1111
sg5
V[[GRAY]]Commencing teleport in [[GOLD]]({0}) [[GRAY]]seconds, please stand still...
p1112
sg7
VTeleport.Commencing
p1113
ssS'2649395'
p1114
(dp1115
g3
V\u62fe\u53d6
p1116
sg5
VLoot
p1117
sg7
VParty.ItemShare.Category.Loot
p1118
ssS'2649396'
p1119
(dp1120
g3
V[[GRAY]]\u50b3\u9001\u4f60\u5230\u4f60\u7684\u5e8a\u908a.
p1121
sg5
V[[GRAY]]Teleports you to your bed.
p1122
sg7
VItem.ChimaeraWing.Lore
p1123
ssS'2649397'
p1124
(dp1125
g3
V[[RED]]\u4f7f\u7528 [[DARK_AQUA]]{0} [[RED]]\u4f86\u548c\u968a\u54e1\u5206\u4eab\u7269\u54c1
p1126
sg5
V[[RED]]Use [[DARK_AQUA]]{0} [[RED]]to share items with party members
p1127
sg7
VParty.Help.9
p1128
ssS'2649398'
p1129
(dp1130
g3
V\u6316\u7926
p1131
sg5
VMining
p1132
sg7
VParty.ItemShare.Category.Mining
p1133
ssS'2649399'
p1134
(dp1135
g3
V[[RED]]\u4f60\u5fc5\u9808\u7b49\u5f85\u76f4\u5230\u53ef\u4ee5\u518d\u6b21\u4f7f\u7528! [[YELLOW]]({0}s)
p1136
sg5
V[[RED]]You need to wait before you can use this again! [[YELLOW]]({0}s)
p1137
sg7
VItem.Generic.Wait
p1138
ssS'791738'
p1139
(dp1140
g3
V[[GREEN]]\u4f60\u7684[[YELLOW]] \u8d85\u7d1a\u788e\u77f3\u6a5f [[GREEN]]\u80fd\u529b\u5df2\u53ef\u518d\u6b21\u4f7f\u7528\uff01
p1141
sg5
V[[GREEN]]Your [[YELLOW]]Super Breaker [[GREEN]]ability is refreshed!
p1142
sg7
VMining.Skills.SuperBreaker.Refresh
p1143
ssS'791948'
p1144
(dp1145
g3
V\u589e\u52a0{0}\u50b7\u5bb3
p1146
sg5
V+{0} DMG Upgrade
p1147
sg7
VUnarmed.Ability.Bonus.1
p1148
ssS'3587679'
p1149
(dp1150
g3
V[[DARK_AQUA]]\u4ec0\u9ebc\u662f\u79d8\u6cd5\u935b\u9020?[[YELLOW]]\u79d8\u6cd5\u935b\u9020\u8b93\u4f60\u6709\u6a5f\u7387\u7559\u4f4f\u5de5\u5177\u7684\u9644\u9b54.[[YELLOW]]\u9644\u9b54\u53ef\u80fd\u5728\u4fee\u5fa9\u6642\u964d\u7d1a\u6216\u6d88\u5931.
p1151
sg5
V[[DARK_AQUA]]How does Arcane Forging work?\u005cn[[YELLOW]]This passive ability allows you to repair items with a certain\u005cn[[YELLOW]]chance of maintaining its enchantments. The enchants may be\u005cn[[YELLOW]]kept at their existing levels, downgraded to a lower level,\u005cn[[YELLOW]]or lost entirely.
p1152
sg7
VGuides.Repair.Section.4
p1153
ssS'3587678'
p1154
(dp1155
g3
V[[DARK_AQUA]]\u4fee\u5fa9:[[YELLOW]]\u4fee\u5fa9\u6280\u80fd\u8b93\u4f60\u53ef\u4ee5\u4f7f\u7528\u9435\u78da(MMO\u9435\u7827)[[YELLOW]]\u4fee\u5fa9\u5de5\u5177,\u6216\u4f7f\u7528\u91d1\u78da\u56de\u6536\u5de5\u5177.[[DARK_AQUA]]\u7d93\u9a57\u7372\u53d6:[[YELLOW]]\u7528MMO\u9435\u7827\u4fee\u5fa9\u5de5\u5177.[[YELLOW]]\u9810\u8a2d\u662f\u9435\u78da,\u4e0d\u8981\u548c\u4e00\u822c\u7684\u9435\u7827\u641e\u6df7.
p1156
sg5
V[[DARK_AQUA]]About Repair:\u005cn[[YELLOW]]Repair allows you to use an iron block to repair armor and\u005cn[[YELLOW]]tools, or a gold block to salvage armor and tools.\u005cn\u005cn[[DARK_AQUA]]XP GAIN:\u005cn[[YELLOW]]Repair tools or armor using the mcMMO Anvil. This is an\u005cn[[YELLOW]]iron block by default and should not be confused with\u005cn[[YELLOW]]the Vanilla Minecraft Anvil.
p1157
sg7
VGuides.Repair.Section.0
p1158
ssS'791784'
p1159
(dp1160
g3
V[[GREEN]]\u4f60\u7684 [[YELLOW]]\u7da0\u5316 [[GREEN]]\u80fd\u529b\u5df2\u53ef\u4f7f\u7528!
p1161
sg5
V[[GREEN]]Your [[YELLOW]]Green Terra [[GREEN]]ability is refreshed!
p1162
sg7
VHerbalism.Skills.GTe.Refresh
p1163
ssS'792029'
p1164
(dp1165
g3
V[[WHITE]]**\u64ca\u843d\u5f13\u7bad**
p1166
sg5
V[[WHITE]]**ARROW DEFLECT**
p1167
sg7
VCombat.ArrowDeflect
p1168
ssS'791783'
p1169
(dp1170
g3
V[[GREEN]]**\u4f60\u63e1\u7dca\u8457\u4f60\u7684\u528d**
p1171
sg5
V[[GREEN]]**YOU READY YOUR SWORD**
p1172
sg7
VSwords.Ability.Ready
p1173
ssS'3633767'
p1174
(dp1175
g3
V[[DARK_AQUA]]\u4ec0\u9ebc\u662f\u5bf6\u7269\u7375\u4eba?[[YELLOW]]\u9019\u500b\u6280\u80fd\u8b93\u4f60\u5728\u91e3\u9b5a\u6642\u91e3\u5230\u5bf6\u7269[[YELLOW]]\u6709\u5c0f\u6a5f\u7387\u91e3\u5230\u9644\u9b54\u9053\u5177.[[YELLOW]]\u6bcf\u7a2e\u5bf6\u7269\u7684\u51fa\u73fe\u95dc\u4fc2\u5230[[YELLOW]]\u4f60\u7684\u91e3\u9b5a\u7b49\u7d1a. \u91e3\u9b5a\u7b49\u7d1a\u6108\u9ad8,[[YELLOW]]\u5c31\u80fd\u91e3\u5230\u6108\u591a\u6108\u597d\u7684\u5bf6\u7269.
p1176
sg5
V[[DARK_AQUA]]How does Treasure Hunter work?\u005cn[[YELLOW]]This ability allows you to find treasure from fishing \u005cn[[YELLOW]]with a small chance of the items being enchanted.\u005cn[[YELLOW]]Every possible treasure for Fishing has a chance\u005cn[[YELLOW]]to drop on any level. It depends however\u005cn[[YELLOW]]what the rarity of the item is how often it will drop.\u005cn[[YELLOW]]The higher your Fishing skill is, the better\u005cn[[YELLOW]]your chances are to find better treasures.
p1177
sg7
VGuides.Fishing.Section.1
p1178
ssS'791781'
p1179
(dp1180
g3
V[[RED]]\u72c2\u66b4[[GREEN]] \u5373\u5c07\u7ed3\u675f [[YELLOW]]{0}
p1181
sg5
V[[RED]]Berserk[[GREEN]] has worn off for [[YELLOW]]{0}
p1182
sg7
VUnarmed.Skills.Berserk.Other.Off
p1183
ssS'791867'
p1184
(dp1185
g3
V\u5272\u88c2\u65ac (\u4e3b\u52d5\u6280\u80fd)
p1186
sg5
VSerrated Strikes (ABILITY)
p1187
sg7
VSwords.Effect.2
p1188
ssS'3587670'
p1189
(dp1190
g3
V[[DARK_AQUA]]\u4ec0\u9ebc\u662f\u66b4\u8d70\u947d\u982d?[[YELLOW]]\u66b4\u8d70\u947d\u982d\u662f\u4e3b\u52d5\u6280\u80fd,\u6301\u7e8c\u6642\u9593\u95dc\u4fc2\u5230[[YELLOW]]\u6316\u6398\u6280\u80fd\u7b49\u7d1a,\u5b83\u53ef \u4ee5\u8b93\u4f60\u6709\u6a5f\u7387\u7372\u5f97\u5bf6\u7269[[YELLOW]]\u9084\u6709\u76f4\u63a5\u6467\u6bc0\u6307\u5b9a\u65b9\u584a.
p1191
sg5
V[[DARK_AQUA]]What is Giga Drill Breaker?\u005cn[[YELLOW]]Giga Drill Breaker is an ability with a cooldown\u005cn[[YELLOW]]tied to Excavation skill. It triples your chance\u005cn[[YELLOW]]of finding treasures and enables instant break\u005cn[[YELLOW]]on Excavation materials.
p1192
sg7
VGuides.Excavation.Section.3
p1193
ssS'3587673'
p1194
(dp1195
g3
V[[DARK_AQUA]]\u95dc\u65bc\u6316\u6398:[[YELLOW]]\u6316\u6398\u662f\u4e00\u500b\u95dc\u65bc\u6316\u571f\u8207\u6316\u5bf6\u7684\u6280\u80fd.[[YELLOW]]\u6316\u6398\u5730\u9762\u53ef\u4ee5\u627e\u5230\u5bf6\u7269.[[YELLOW]]\u6316\u6108\u591a\u5bf6\u7269\u6108\u591a.[[DARK_AQUA]]\u7372\u53d6\u7d93\u9a57:[[YELLOW]]\u8981\u7372\u53d6\u7d93\u9a57\u5fc5\u9808\u6301\u6709\u93df\u5b50.[[YELLOW]]\u53ea\u6709\u7279\u5b9a\u7269\u8cea\u624d\u80fd\u6316\u5230\u5bf6\u7269\u6216\u7d93\u9a57.
p1196
sg5
V[[DARK_AQUA]]About Excavation:\u005cn[[YELLOW]]Excavation is the act of digging up dirt to find treasures.\u005cn[[YELLOW]]By excavating the land you will find treasures.\u005cn[[YELLOW]]The more you do this the more treasures you can find.\u005cn\u005cn[[DARK_AQUA]]XP GAIN:\u005cn[[YELLOW]]To gain XP in this skill you must dig with a shovel in hand.\u005cn[[YELLOW]]Only certain materials can be dug up for treasures and XP.
p1197
sg7
VGuides.Excavation.Section.0
p1198
ssS'791864'
p1199
(dp1200
g3
V\u65a7\u6280
p1201
sg5
VAXES
p1202
sg7
VAxes.SkillName
p1203
ssS'791863'
p1204
(dp1205
g3
V\u7bad\u8853:
p1206
sg5
VArchery:
p1207
sg7
VArchery.Listener
p1208
ssS'791862'
p1209
(dp1210
g3
V\u65a7\u982d\u7cbe\u901a
p1211
sg5
VAxe Mastery
p1212
sg7
VAxes.Ability.Bonus.0
p1213
ssS'791861'
p1214
(dp1215
g3
V\u528d\u8853
p1216
sg5
VSWORDS
p1217
sg7
VSwords.SkillName
p1218
ssS'791860'
p1219
(dp1220
g3
V[[RED]]- \u7528\u6ed1\u9f20\u53f3\u9375\u5207\u63db\u6280\u80fd\u4f7f\u7528\u6a21\u5f0f
p1221
sg5
V[[RED]]- Toggle ability activation with right click
p1222
sg7
VCommands.ToggleAbility
p1223
ssS'3785638'
p1224
(dp1225
g3
V[[GOLD]]--= [[GREEN]]mcMMO \u80fd\u529b\u51b7\u537b\u6642\u9593[[GOLD]] =--
p1226
sg5
V[[GOLD]]--= [[GREEN]]mcMMO Ability Cooldowns[[GOLD]] =--
p1227
sg7
VCommands.Cooldowns.Header
p1228
ssS'3785637'
p1229
(dp1230
g3
V[[YELLOW]]mcMMO \u51b7\u537b\u6642\u9593
p1231
sg5
V[[YELLOW]]mcMMO Cooldowns
p1232
sg7
VScoreboard.Header.PlayerCooldowns
p1233
ssS'893583'
p1234
(dp1235
g3
V[[RED]]\u4fee\u7406\u7cbe\u901a: [[YELLOW]]\u984d\u5916\u56de\u5fa9 {0}% \u8010\u4e45\u5ea6
p1236
sg5
V[[RED]]Repair Mastery: [[YELLOW]]Extra {0} durability restored
p1237
sg7
VRepair.Skills.Mastery
p1238
ssS'893582'
p1239
(dp1240
g3
V\u4fee\u7406\u77f3\u982d ({0}+ SKILL)
p1241
sg5
VStone Repair ({0}+ SKILL)
p1242
sg7
VRepair.Effect.14
p1243
ssS'893581'
p1244
(dp1245
g3
V\u4fee\u7406\u77f3\u88fd\u5de5\u5177
p1246
sg5
VRepair Stone Tools
p1247
sg7
VRepair.Effect.15
p1248
ssS'893580'
p1249
(dp1250
g3
V\u4fee\u7406\u9435 ({0}+ SKILL)
p1251
sg5
VIron Repair ({0}+ SKILL)
p1252
sg7
VRepair.Effect.12
p1253
ssS'893587'
p1254
(dp1255
g3
V\u4f7f\u7528\u7a2e\u5b50\u8b93\u9d5d\u5375\u77f3\u8b8a\u9752\u82d4\u77f3,\u6216\u8b93\u6ce5\u571f\u8b8a\u8349\u5730
p1256
sg5
VMake bricks mossy, or make grass grow
p1257
sg7
VHerbalism.Effect.5
p1258
ssS'893585'
p1259
(dp1260
g3
V[[RED]]\u96d9\u500d\u6389\u843d\u6a5f\u7387: [[YELLOW]]{0}
p1261
sg5
V[[RED]]Double Drop Chance: [[YELLOW]]{0}
p1262
sg7
VMining.Effect.DropChance
p1263
ssS'893584'
p1264
(dp1265
g3
V[[RED]]\u96d9\u500d\u6389\u843d\u6a5f\u7387: [[YELLOW]]{0}
p1266
sg5
V[[RED]]Double Drop Chance: [[YELLOW]]{0}
p1267
sg7
VHerbalism.Ability.DoubleDropChance
p1268
ssS'2190052'
p1269
(dp1270
g3
V\u986f\u793a\u6240\u6709mcMMO\u7684\u6392\u540d
p1271
sg5
VShow mcMMO ranking for a player
p1272
sg7
VCommands.Description.mcrank
p1273
ssS'893588'
p1274
(dp1275
g3
V[[RED]]\u4f60\u6c92\u6709\u67e5\u8a62\u96e2\u7dda\u73a9\u5bb6\u8a0a\u606f\u7684\u6b0a\u9650!
p1276
sg5
V[[RED]]You do not have permission to inspect offline players!
p1277
sg7
VInspect.Offline
p1278
ssS'791799'
p1279
(dp1280
g3
V[[YELLOW]]\u65a7\u6280\u4e0a\u5347\u4e86 {0}. \u7e3d\u7b49\u7d1a ({1})
p1281
sg5
V[[YELLOW]]Axes skill increased by {0}. Total ({1})
p1282
sg7
VAxes.Skillup
p1283
ssS'791919'
p1284
(dp1285
g3
V\u4f60\u7684\u8a0a\u606f
p1286
sg5
VYOUR STATS
p1287
sg7
VCommands.Stats.Self
p1288
ssS'792021'
p1289
(dp1290
g3
V\u99b4\u7378
p1291
sg5
VTAMING
p1292
sg7
VTaming.SkillName
p1293
ssS'792042'
p1294
(dp1295
g3
V\u96e2\u7dda\u73a9\u5bb6\u7684 [mcMMO] \u7d71\u8a08\u8a0a\u606f [[YELLOW]]{0}
p1296
sg5
VmcMMO Stats for Offline Player [[YELLOW]]{0}
p1297
sg7
VInspect.OfflineStats
p1298
ssS'791798'
p1299
(dp1300
g3
V[[DARK_RED]]\u88ab\u5272\u88c2\u65ac\u653b\u64ca\uff01
p1301
sg5
V[[DARK_RED]]Struck by SERRATED STRIKES!
p1302
sg7
VSwords.Combat.SS.Struck
p1303
ssS'791918'
p1304
(dp1305
g3
V[[GREEN]]{0}[[DARK_GREEN]] \u4f7f\u7528\u4e86 [[RED]]\u6316\u7926\u7206\u767c!
p1306
sg5
V[[GREEN]]{0}[[DARK_GREEN]] has used [[RED]]Blast Mining!
p1307
sg7
VMining.Blast.Other.On
p1308
ssS'2127529'
p1309
(dp1310
g3
V\u6d77\u502b\u7684\u795d\u798f
p1311
sg5
VHylian Luck
p1312
sg7
VHerbalism.Effect.10
p1313
ssS'2124969'
p1314
(dp1315
g3
V[[RED]]\u4f60\u7121\u6cd5\u50b3\u9001\u5230\u4f60\u81ea\u5df1\u8eab\u65c1!
p1316
sg5
V[[RED]]You can't teleport to yourself!
p1317
sg7
VParty.Teleport.Self
p1318
ssS'792026'
p1319
(dp1320
g3
V\u7bad\u8853
p1321
sg5
VARCHERY
p1322
sg7
VArchery.SkillName
p1323
ssS'2239117'
p1324
(dp1325
g3
V[[RED]]\u4f60\u5728{0}\u79d2\u524d\u88ab\u653b\u64ca\u6240\u4ee5\u7121\u6cd5\u50b3\u9001.
p1326
sg5
V[[RED]]You have been hurt in the last {0} seconds and cannot teleport.
p1327
sg7
VParty.Teleport.Hurt
p1328
ssS'2093998'
p1329
(dp1330
g3
V\u6f01\u4eba\u4fbf\u7576
p1331
sg5
VFisherman's Diet
p1332
sg7
VFishing.Effect.6
p1333
ssS'2215959'
p1334
(dp1335
g3
V\u8611\u83c7\u624b
p1336
sg5
VShroom Thumb
p1337
sg7
VHerbalism.Effect.12
p1338
ssS'2215958'
p1339
(dp1340
g3
V[[RED]]\u8611\u83c7\u624b\u89f8\u767c\u6a5f\u7387: [[YELLOW]]{0}
p1341
sg5
V[[RED]]Shroom Thumb Chance: [[YELLOW]]{0}
p1342
sg7
VHerbalism.Ability.ShroomThumb.Chance
p1343
ssS'2215957'
p1344
(dp1345
g3
V[[RED]]**\u78e8\u83c7\u624b\u4f7f\u7528\u5931\u6557**
p1346
sg5
V[[RED]]**SHROOM THUMB FAIL**
p1347
sg7
VHerbalism.Ability.ShroomThumb.Fail
p1348
ssS'2093992'
p1349
(dp1350
g3
V\u9396\u5b9a\u76f4\u5230\u6280\u80fd {0}+  (\u6bdb\u76ae\u5f37\u5316)
p1351
sg5
VLOCKED UNTIL {0}+ SKILL (THICK FUR)
p1352
sg7
VTaming.Ability.Locked.1
p1353
ssS'2093991'
p1354
(dp1355
g3
V\u9396\u5b9a\u76f4\u5230\u6280\u80fd {0}+  (\u885d\u64ca\u683c\u64cb)
p1356
sg5
VLOCKED UNTIL {0}+ SKILL (SHOCK PROOF)
p1357
sg7
VTaming.Ability.Locked.2
p1358
ssS'2093990'
p1359
(dp1360
g3
V\u9396\u5b9a\u76f4\u5230\u6280\u80fd {0}+  (\u5229\u722a)
p1361
sg5
VLOCKED UNTIL {0}+ SKILL (SHARPENED CLAWS)
p1362
sg7
VTaming.Ability.Locked.3
p1363
ssS'2093997'
p1364
(dp1365
g3
V\u98df\u7528\u9b5a\u98df\u54c1\u6642\u984d\u5916\u6062\u5fa9\u98fd\u98df\u5ea6
p1366
sg5
VImproves hunger restored from fished foods
p1367
sg7
VFishing.Effect.7
p1368
ssS'2093996'
p1369
(dp1370
g3
V[[DARK_RED]]\u6230\u9b25\u529b: [[GREEN]]{0} [[DARK_RED]]\u6700\u9ad8\u7b49\u7d1a: [[YELLOW]]{1}
p1371
sg5
V[[DARK_RED]]POWER LEVEL: [[GREEN]]{0} [[DARK_RED]]MAX LEVEL: [[YELLOW]]{1}
p1372
sg7
VCommands.PowerLevel.Capped
p1373
ssS'2093995'
p1374
(dp1375
g3
V[[RED]]\u8a2d\u5b9a\u6280\u80fd\u7b49\u7d1a\u70ba0
p1376
sg5
V[[RED]]Reset a skill's level to 0
p1377
sg7
VCommands.Reset
p1378
ssS'2093994'
p1379
(dp1380
g3
V\u9396\u5b9a\u76f4\u5230\u6280\u80fd {0}+  (\u5feb\u9910\u670d\u52d9)
p1381
sg5
VLOCKED UNTIL {0}+ SKILL (FAST FOOD SERVICE)
p1382
sg7
VTaming.Ability.Locked.4
p1383
ssS'3595870'
p1384
(dp1385
g3
V\u6e1b\u5c11\u51b7\u537b\u6642\u9593 {0}
p1386
sg5
VCuts cooldown duration by {0}.
p1387
sg7
VPerks.Cooldowns.Desc
p1388
ssS'3595871'
p1389
(dp1390
g3
V\u67d0\u6a23\u6280\u80fd\u7372\u5f97\u5927\u91cf\u7d93\u9a57\u503c.
p1391
sg5
VReceive boosted XP in certain skills.
p1392
sg7
VPerks.XP.Desc
p1393
ssS'3595872'
p1394
(dp1395
g3
V\u7d66\u4e88 {0} \u6280\u80fd\u9ad8\u65bc33.3%\u4ee5\u4e0a\u7684\u6a5f\u7387\u89f8\u767c
p1396
sg5
VGives {0} skills and abilities a 33.3% better chance to activate.
p1397
sg7
VPerks.Lucky.Desc
p1398
ssS'3595873'
p1399
(dp1400
g3
V\u63d0\u9ad8\u80fd\u529b \u6301\u7e8c\u6642\u9593: {0} \u79d2
p1401
sg5
VIncreases ability activation time by {0} seconds.
p1402
sg7
VPerks.ActivationTime.Desc
p1403
ssS'3595874'
p1404
(dp1405
g3
V\u7d93\u9a57\u503c
p1406
sg5
VExperience
p1407
sg7
VPerks.XP.Name
p1408
ssS'3595875'
p1409
(dp1410
g3
V[[GOLD]] ({0}\u5f88\u8d70\u904b)
p1411
sg5
V[[GOLD]] ({0} with Lucky Perk)
p1412
sg7
VPerks.Lucky.Bonus
p1413
ssS'3595876'
p1414
(dp1415
g3
V\u60a8\u4f7f\u7528\u7684\u662f\u904e\u6642\u7684\u7248\u672cmcMMO\uff01
p1416
sg5
VYou are using an outdated version of mcMMO!
p1417
sg7
VUpdateChecker.Outdated
p1418
ssS'3595877'
p1419
(dp1420
g3
V\u7d66\u4e88\u6280\u80fd\u9ad8\u65bc33.3%\u4ee5\u4e0a\u7684\u6a5f\u7387\u89f8\u767c
p1421
sg5
VGives certain skills and abilities a 33.3% better chance to activate.
p1422
sg7
VPerks.Lucky.Desc.Login
p1423
ssS'3595878'
p1424
(dp1425
g3
V\u5e78\u904b
p1426
sg5
VLuck
p1427
sg7
VPerks.Lucky.Name
p1428
ssS'3595879'
p1429
(dp1430
g3
V[[GOLD]] ({0}\u8010\u4e45\u52a0\u4e58)
p1431
sg5
V[[GOLD]] ({0}s with Endurance Perk)
p1432
sg7
VPerks.ActivationTime.Bonus
p1433
ssS'791763'
p1434
(dp1435
g3
V[[GREEN]]{0}[[DARK_GREEN]] \u4f7f\u7528\u4e86 [[RED]]\u5272\u88c2\u65ac!
p1436
sg5
V[[GREEN]]{0}[[DARK_GREEN]] has used [[RED]]Serrated Strikes!
p1437
sg7
VSwords.Skills.SS.Other.On
p1438
ssS'791930'
p1439
(dp1440
g3
V[[RED]]mcMMO \u7d93\u9a57\u52a0\u500d\u7ed3\u675f!!
p1441
sg5
V[[RED]]mcMMO XP Rate Event is OVER!!
p1442
sg7
VCommands.xprate.over
p1443
ssS'2093967'
p1444
(dp1445
g3
V[[GREEN]]\u4f60\u5168\u90e8\u7684\u6280\u80fd\u7b49\u7d1a\u4ee5\u91cd\u7f6e\u6210\u529f.
p1446
sg5
V[[GREEN]]All of your skill levels have been reset successfully.
p1447
sg7
VCommands.Reset.All
p1448
ssS'2093964'
p1449
(dp1450
g3
V[[YELLOW]]\u528d\u8853\u6280\u80fd\u4e0a\u5347\u4e86 {0}. \u7e3d\u7b49\u7d1a ({1})
p1451
sg5
V[[YELLOW]]Swords skill increased by {0}. Total ({1})
p1452
sg7
VSwords.Skillup
p1453
ssS'2093965'
p1454
(dp1455
g3
V\u9396\u5b9a\u76f4\u5230\u6280\u80fd {0}+ \uff08\u6416\u6643\uff09
p1456
sg5
VLOCKED UNTIL {0}+ SKILL (SHAKE)
p1457
sg7
VFishing.Ability.Locked.0
p1458
ssS'2093962'
p1459
(dp1460
g3
V[[DARK_RED]]\u4f60\u653e\u7f6e\u4e86\u4e00\u500b\u56de\u6536\u53f0,\u4f7f\u7528\u5b83\u4f86\u56de\u6536\u5de5\u5177\u548c\u88dd\u7532
p1461
sg5
V[[DARK_RED]]You have placed a Salvage anvil, use this to Salvage tools and armor.
p1462
sg7
VRepair.Listener.Anvil2
p1463
ssS'2093963'
p1464
(dp1465
g3
V[[GREEN]]\u4f60\u7684 {0} \u6280\u80fd\u7b49\u7d1a\u4ee5\u91cd\u7f6e\u6210\u529f.
p1466
sg5
V[[GREEN]]Your {0} skill level has been reset successfully.
p1467
sg7
VCommands.Reset.Single
p1468
ssS'2093969'
p1469
(dp1470
g3
V\u9396\u5b9a\u76f4\u5230\u6280\u80fd {0}+ (\u79cb\u98a8\u6383\u843d\u8449)
p1471
sg5
VLOCKED UNTIL {0}+ SKILL (LEAF BLOWER)
p1472
sg7
VWoodcutting.Ability.Locked.0
p1473
ssS'791725'
p1474
(dp1475
g3
V\u4f10\u6728
p1476
sg5
VWOODCUTTING
p1477
sg7
VWoodcutting.SkillName
p1478
ssS'3380428'
p1479
(dp1480
g3
V[[GOLD]][mcMMO] [[YELLOW]]{0}[[GRAY]]\u592a\u4e0d\u7d14\u719f\u4ee5\u81f3\u65bc\u7121\u6cd5\u8b93\u4f60\u7372\u5f97\u4efb\u4f55\u7684\u77e5\u8b58.
p1481
sg5
V[[GOLD]][mcMMO] [[YELLOW]]{0}[[GRAY]] was too unskilled to grant you any knowledge.
p1482
sg7
VHardcore.Vampirism.Killer.Failure
p1483
ssS'2138159'
p1484
(dp1485
g3
V[[RED]]\u6d41\u80fd\u6316\u7926\u6a5f\u7387: [[YELLOW]]{0}
p1486
sg5
V[[RED]]Flux Mining Chance: [[YELLOW]]{0}
p1487
sg7
VSmelting.Ability.FluxMining
p1488
ssS'3864601'
p1489
(dp1490
g3
V\u7d93\u9a57\u503c
p1491
sg5
VXP
p1492
sg7
VParty.ShareType.Xp
p1493
ssS'2138157'
p1494
(dp1495
g3
V[[GREEN]]\u7926\u7269\u81ea\u52d5\u51b6\u7149!
p1496
sg5
V[[GREEN]]That ore smelted itself!
p1497
sg7
VSmelting.FluxMining.Success
p1498
ssS'2138156'
p1499
(dp1500
g3
V\u51b6\u7149:
p1501
sg5
VSmelting:
p1502
sg7
VSmelting.Listener
p1503
ssS'2138155'
p1504
(dp1505
g3
V\u9396\u5b9a\u76f4\u5230\u6280\u80fd {0}+ (\u6d41\u80fd\u6316\u7926)
p1506
sg5
VLOCKED UNTIL {0}+ SKILL (FLUX MINING)
p1507
sg7
VSmelting.Ability.Locked.1
p1508
ssS'2138154'
p1509
(dp1510
g3
V\u9396\u5b9a\u76f4\u5230\u6280\u80fd {0}+ (\u4e00\u822c\u7d93\u9a57\u52a0\u6210)
p1511
sg5
VLOCKED UNTIL {0}+ SKILL (VANILLA XP BOOST)
p1512
sg7
VSmelting.Ability.Locked.0
p1513
ssS'792024'
p1514
(dp1515
g3
V\u653b\u64ca\u602a\u7269
p1516
sg5
VAttacking Monsters
p1517
sg7
VCommands.XPGain.Unarmed
p1518
ssS'791737'
p1519
(dp1520
g3
V[[GOLD]]-=\u63a1\u96c6\u6280\u80fd=-
p1521
sg5
V[[GOLD]]-=GATHERING SKILLS=-
p1522
sg7
VStats.Header.Gathering
p1523
ssS'792153'
p1524
(dp1525
g3
V\u901f\u5ea6+, 3\u500d\u6389\u843d\u7387
p1526
sg5
VSpeed+, Triple Drop Chance
p1527
sg7
VMining.Effect.1
p1528
ssS'792099'
p1529
(dp1530
g3
V\u627e\u5230\u9644\u9b54\u7269\u54c1
p1531
sg5
VFind Enchanted Items
p1532
sg7
VFishing.Effect.3
p1533
ssS'792098'
p1534
(dp1535
g3
V\u5bf6\u7269\u7375\u4eba (\u88ab\u52d5\u6280\u80fd)
p1536
sg5
VTreasure Hunter (Passive)
p1537
sg7
VFishing.Effect.0
p1538
ssS'792156'
p1539
(dp1540
g3
V\u6316\u7926\u7206\u767c
p1541
sg5
VBlast Mining
p1542
sg7
VMining.Effect.4
p1543
ssS'792157'
p1544
(dp1545
g3
V\u4f7f\u7528TNT\u6316\u7926\u6703\u7372\u5f97\u984d\u5916\u734e\u52f5
p1546
sg5
VBonuses to mining with TNT
p1547
sg7
VMining.Effect.5
p1548
ssS'792154'
p1549
(dp1550
g3
V\u96d9\u500d\u6389\u843d
p1551
sg5
VDouble Drops
p1552
sg7
VMining.Effect.2
p1553
ssS'792155'
p1554
(dp1555
g3
V\u96d9\u500d\u6389\u843d\u7269\u54c1
p1556
sg5
VDouble the normal loot
p1557
sg7
VMining.Effect.3
p1558
ssS'792093'
p1559
(dp1560
g3
V[[RED]]\u9019\u4ef6\u7269\u54c1\u7684\u9644\u9b54\u7b49\u7d1a\u5df2\u4e0b\u964d
p1561
sg5
V[[RED]]Arcane power has decreased for this item.
p1562
sg7
VRepair.Arcane.Downgrade
p1563
ssS'792092'
p1564
(dp1565
g3
V[[GOLD]]mcMMO \u7d93\u9a57\u503c\u73fe\u5728\u52a0\u500d {0}x!
p1566
sg5
V[[GOLD]]mcMMO XP RATE IS NOW {0}x!
p1567
sg7
VCommands.xprate.started.1
p1568
ssS'792158'
p1569
(dp1570
g3
V\u589e\u52a0TNT\u7206\u70b8\u7bc4\u570d
p1571
sg5
VIncreases TNT explosion radius
p1572
sg7
VMining.Effect.7
p1573
ssS'792159'
p1574
(dp1575
g3
V\u7206\u7834\u5c08\u5bb6
p1576
sg5
VDemolitions Expertise
p1577
sg7
VMining.Effect.8
p1578
ssS'792097'
p1579
(dp1580
g3
V\u6389\u5230\u96dc\u7269
p1581
sg5
VFish up misc. objects
p1582
sg7
VFishing.Effect.1
p1583
ssS'792096'
p1584
(dp1585
g3
V\u6416\u6643 (\u5c0d\u602a\u7269\u4f7f\u7528)
p1586
sg5
VShake (vs. Entities)
p1587
sg7
VFishing.Effect.4
p1588
ssS'792095'
p1589
(dp1590
g3
V\u7528\u91e3\u7aff\u628a\u602a\u7269\u7684\u7269\u54c1\u53d6\u4e0b\u4f86
p1591
sg5
VShake items off of mobs w/ fishing pole
p1592
sg7
VFishing.Effect.5
p1593
ssS'792094'
p1594
(dp1595
g3
V[mcMMO] \u795e\u4e4b\u6a21\u5f0f\u4e0d\u5141\u8a31\u5728\u9019\u4e16\u754c\u958b\u555f (\u8acb\u89c0\u770b\u6b0a\u9650\u8a2d\u5b9a)
p1596
sg5
V[mcMMO] God Mode not permitted on this world (See Permissions)
p1597
sg7
VCommands.GodMode.Forbidden
p1598
ssS'2127526'
p1599
(dp1600
g3
V[[GREEN]]\u8c50\u6536\u5973\u795e\u4eca\u65e5\u8207\u4f60\u540c\u5728!
p1601
sg5
V[[GREEN]]The luck of Hyrule is with you today!
p1602
sg7
VHerbalism.HylianLuck
p1603
ssS'2127527'
p1604
(dp1605
g3
V[[RED]]\u6d77\u502b\u7684\u795d\u798f\u6a5f\u7387: [[YELLOW]]{0}
p1606
sg5
V[[RED]]Hylian Luck Chance: [[YELLOW]]{0}
p1607
sg7
VHerbalism.Ability.HylianLuck
p1608
ssS'2195758'
p1609
(dp1610
g3
V[[RED]]\u8981\u5275\u5efa\u4e00\u500b\u968a\u4f0d\uff0c\u8acb\u4f7f\u7528[[DARK_AQUA]] {0} <name> [password].
p1611
sg5
V[[RED]]To create a party, use [[DARK_AQUA]]{0} <name> [password].
p1612
sg7
VParty.Help.1
p1613
ssS'2195759'
p1614
(dp1615
g3
V[[RED]]\u4f7f\u7528 [[DARK_AQUA]]{0} <player> [password] [[RED]]\u4f86\u52a0\u5165\u6216\u4f7f\u7528 [[DARK_AQUA]]{1} [[RED]]\u4f86\u96e2\u958b
p1616
sg5
V[[RED]]Use [[DARK_AQUA]]{0} <player> [password] [[RED]]to join or [[DARK_AQUA]]{1} [[RED]]to quit
p1617
sg7
VParty.Help.3
p1618
ssS'792025'
p1619
(dp1620
g3
V[[YELLOW]]mcMMO \u795e\u4e4b\u6a21\u5f0f\u958b\u555f
p1621
sg5
V[[YELLOW]]mcMMO Godmode Enabled
p1622
sg7
VCommands.GodMode.Enabled
p1623
ssS'2195750'
p1624
(dp1625
g3
V\u8abf\u6574mcMMO\u786c\u6d3e\u6bd4\u4f8b\u6216\u5207\u63db\u786c\u6d3e\u6a21\u5f0f (\u958b/\u95dc)
p1626
sg5
VModify the mcMMO hardcore percentage or toggle hardcore mode on/off
p1627
sg7
VCommands.Description.hardcore
p1628
ssS'2195753'
p1629
(dp1630
g3
V[[RED]]\u6b63\u78ba\u7528\u6cd5\u70ba[[DARK_AQUA]]{0} <player> [password].
p1631
sg5
V[[RED]]Proper usage is [[DARK_AQUA]]{0} <player> [password].
p1632
sg7
VParty.Help.0
p1633
ssS'3823879'
p1634
(dp1635
g3
V[[GOLD]][mcMMO] \u786c\u6d3e\u6a21\u5f0f {0} \u958b\u555f. {1}
p1636
sg5
V[[GOLD]][mcMMO] Hardcore mode {0} enabled for {1}.
p1637
sg7
VHardcore.Mode.Enabled
p1638
ssS'3785659'
p1639
(dp1640
g3
V[[DARK_AQUA]]/mcscoreboard[[AQUA]] \u6642\u9593 [n] [[WHITE]] - \u5728 [[LIGHT_PURPLE]]n[[WHITE]] \u79d2\u4e4b\u5f8c\u6e05\u9664 McMMO \u5f97\u5206\u699c
p1641
sg5
V[[DARK_AQUA]]/mcscoreboard[[AQUA]] time [n] [[WHITE]] - clear the McMMO scoreboard after [[LIGHT_PURPLE]]n[[WHITE]] seconds
p1642
sg7
VCommands.Scoreboard.Help.3
p1643
ssS'3785658'
p1644
(dp1645
g3
V[[GOLD]] == [[RED]]/mcscoreboard [[GREEN]]\u8aaa\u660e [[GOLD]]==
p1646
sg5
V[[GOLD]] == [[GREEN]]Help for [[RED]]/mcscoreboard[[GOLD]] ==
p1647
sg7
VCommands.Scoreboard.Help.0
p1648
ssS'3785657'
p1649
(dp1650
g3
V[[DARK_AQUA]]/mcscoreboard[[AQUA]] clear [[WHITE]] - \u6e05\u9664 McMMO \u5f97\u5206\u699c
p1651
sg5
V[[DARK_AQUA]]/mcscoreboard[[AQUA]] clear [[WHITE]] - clear the McMMO scoreboard
p1652
sg7
VCommands.Scoreboard.Help.1
p1653
ssS'3785656'
p1654
(dp1655
g3
V[[YELLOW]]\u5269\u9918\u7d93\u9a57\u503c
p1656
sg5
V[[YELLOW]]Remaining XP
p1657
sg7
VScoreboard.Misc.RemainingXP
p1658
ssS'792043'
p1659
(dp1660
g3
V[[GREEN]]**\u8d85\u7d1a\u788e\u77f3\u6a5f\u5df2\u4f7f\u7528**
p1661
sg5
V[[GREEN]]**SUPER BREAKER ACTIVATED**
p1662
sg7
VMining.Skills.SuperBreaker.On
p1663
ssS'3785655'
p1664
(dp1665
g3
V[[GOLD]]\u5c0f\u6280\u5de7: \u8f38\u5165 [[RED]]/mcscoreboard clear[[GOLD]] \u4f86\u6e05\u9664\u5f97\u5206\u699c.
p1666
sg5
V[[GOLD]]Tip: Use [[RED]]/mcscoreboard clear[[GOLD]] to get rid of the scoreboard.
p1667
sg7
VCommands.Scoreboard.Tip.Clear
p1668
ssS'2124957'
p1669
(dp1670
g3
V\u7b49\u7d1a
p1671
sg5
Vlevel
p1672
sg7
VCommands.Usage.Level
p1673
ssS'2124954'
p1674
(dp1675
g3
V\u8a0a\u606f
p1676
sg5
Vmessage
p1677
sg7
VCommands.Usage.Message
p1678
ssS'2124955'
p1679
(dp1680
g3
V[[RED]]\u76ee\u6a19: [[WHITE]]{0}
p1681
sg5
V[[RED]]TARGET: [[WHITE]]{0}
p1682
sg7
VCommands.mcrank.Player
p1683
ssS'2190050'
p1684
(dp1685
g3
V\u66f4\u63db\u4f60\u7684McMMO HUD\u98a8\u683c
p1686
sg5
VChange your mcMMO HUD style
p1687
sg7
VCommands.Description.mchud
p1688
ssS'2124953'
p1689
(dp1690
g3
V[[RED]]\u4f60\u9700\u8981\u66f4\u591a\u7a2e\u5b50\u624d\u53ef\u7da0\u5316.
p1691
sg5
V[[RED]]You need more seeds to spread Green Terra.
p1692
sg7
VHerbalism.Ability.GTe.NeedMore
p1693
ssS'2124950'
p1694
(dp1695
g3
V[[RED]]\u968a\u4f0d\u5bc6\u78bc\u932f\u8aa4.
p1696
sg5
V[[RED]]Party password is incorrect.
p1697
sg7
VParty.Password.Incorrect
p1698
ssS'2124951'
p1699
(dp1700
g3
V[[GREEN]]\u4f60\u6210\u70ba\u4e86\u968a\u9577.
p1701
sg5
V[[GREEN]]You are now the party leader.
p1702
sg7
VParty.Owner.Player
p1703
ssS'3633769'
p1704
(dp1705
g3
V[[DARK_AQUA]]\u4ec0\u9ebc\u662f\u6416\u6643?[[YELLOW]]\u9019\u500b\u6280\u80fd\u8b93\u4f60\u53ef\u4ee5\u5f9e\u602a\u7269\u8eab\u4e0a\u626f\u4e0b\u5bf6\u7269.[[YELLOW]]\u53ea\u8981\u4f7f\u7528\u91e3\u7aff\u91e3\u602a\u7269,[[YELLOW]]\u80fd\u91e3\u51fa\u602a\u7269\u6b7b\u4ea1\u6642\u6703\u6389\u7684\u5bf6\u7269.[[YELLOW]]\u9019\u6280\u80fd\u751a\u81f3\u80fd\u91e3\u51fa\u8eab\u5b58\u6a21\u5f0f\u7121\u6cd5\u7372\u5f97\u7684[[YELLOW]]\u602a\u7269\u982d\u9871.
p1706
sg5
V[[DARK_AQUA]]How does Shake work?\u005cn[[YELLOW]]This active ability allows you to shake items loose from mobs\u005cn[[YELLOW]]by hooking them with the fishing rod. \u005cn[[YELLOW]]Mobs will drop items they would normally drop on death.\u005cn[[YELLOW]]It is also possible to acquire mob skulls, which are normally \u005cn[[YELLOW]]unobtainable in survival mode.
p1707
sg7
VGuides.Fishing.Section.4
p1708
ssS'791968'
p1709
(dp1710
g3
V\u96d9\u500d\u6389\u843d\u7269\u54c1
p1711
sg5
VDouble the normal loot
p1712
sg7
VWoodcutting.Effect.5
p1713
ssS'2124958'
p1714
(dp1715
g3
V[[GREEN]]\u6578\u64da\u5df2\u91cd\u7f6e!
p1716
sg5
V[[GREEN]]The database was successfully purged!
p1717
sg7
VCommands.mcpurge.Success
p1718
ssS'2124959'
p1719
(dp1720
g3
V[[GREEN]]{1}\u6280\u80fd\u5df2\u589e\u52a0{0}\u7b49!
p1721
sg5
V[[GREEN]]You were awarded {0} levels in {1}!
p1722
sg7
VCommands.addlevels.AwardSkill.1
p1723
ssS'791823'
p1724
(dp1725
g3
V\u5df2\u589e\u52a0\u4fee\u7406\u6578\u91cf
p1726
sg5
VIncreased repair amount
p1727
sg7
VRepair.Effect.3
p1728
ssS'791822'
p1729
(dp1730
g3
V\u4fee\u7406
p1731
sg5
VRepair
p1732
sg7
VRepair.Effect.0
p1733
ssS'791820'
p1734
(dp1735
g3
V\u947d\u77f3\u4fee\u7406 ({0}+ SKILL)
p1736
sg5
VDiamond Repair ({0}+ SKILL)
p1737
sg7
VRepair.Effect.6
p1738
ssS'791827'
p1739
(dp1740
g3
V[[RED]]\u4f60\u7684\u6280\u80fd\u7b49\u7d1a\u4e0d\u8db3\u4ee5\u4fdd\u7559\u9644\u9b54\u5c6c\u6027.
p1741
sg5
V[[RED]]You were not skilled enough to keep any enchantments.
p1742
sg7
VRepair.Arcane.Lost
p1743
ssS'3587638'
p1744
(dp1745
g3
V[[DARK_AQUA]]\u4ec0\u9ebc\u662f\u91ce\u6027\u547c\u558a?[[YELLOW]]\u91ce\u6027\u547c\u558a\u662f\u4e00\u500b\u4e3b\u52d5\u6280\u80fd\u8b93\u4f60[[YELLOW]]\u53ef\u4ee5\u53ec\u559a\u4e00\u96bb\u72fc\u6216\u8c79\u8c93,[[YELLOW]]\u53ea\u8981\u624b\u630110\u8ddf\u9aa8\u982d\u6216\u751f\u9b5a,\u9ede\u5de6\u9375.
p1746
sg5
V[[DARK_AQUA]]How does Call of the Wild work?\u005cn[[YELLOW]]Call of the Wild is an active ability that will allow you to summon\u005cn[[YELLOW]]a wolf or an ocelot by your side. You can do this by\u005cn[[YELLOW]]left-clicking while holding bones or fish.
p1747
sg7
VGuides.Taming.Section.1
p1748
ssS'791825'
p1749
(dp1750
g3
V\u528d\u8853:
p1751
sg5
VSwords:
p1752
sg7
VSwords.Listener
p1753
ssS'791824'
p1754
(dp1755
g3
V\u4fee\u7406\u7cbe\u901a
p1756
sg5
VRepair Mastery
p1757
sg7
VRepair.Effect.2
p1758
ssS'3587635'
p1759
(dp1760
g3
V[[DARK_AQUA]]\u4ec0\u9ebc\u662f\u6703\u5fc3\u4e00\u64ca?[[YELLOW]]\u6703\u5fc3\u4e00\u64ca\u662f\u4e00\u500b\u53ef\u4ee5\u9020\u6210\u52a0\u4e58\u50b7\u5bb3\u7684\u88ab\u52d5\u6280\u80fd.[[YELLOW]]\u9810\u8a2d\u65a7\u6280\u6bcf\u5347\u5169\u7b49,\u53ef\u589e\u52a00.1%\u66b4\u64ca\u7387[[YELLOW]]\u5c0d\u602a\u7269\u67092\u500d\u653b\u64ca\u529b\u5c0d\u73a9\u5bb6\u67091.5\u500d.
p1761
sg5
V[[DARK_AQUA]]How does Critical Strikes work?\u005cn[[YELLOW]]Critical Strikes is a passive ability which gives players a\u005cn[[YELLOW]]chance to deal additional damage.\u005cn[[YELLOW]]With the default settings, every 2 skill levels in Axes awards a\u005cn[[YELLOW]]0.1% chance to deal a Critical Strike, causing 2.0 times damage\u005cn[[YELLOW]]to mobs or 1.5 times damage against other players.
p1762
sg7
VGuides.Axes.Section.2
p1763
ssS'3587634'
p1764
(dp1765
g3
V[[DARK_AQUA]]\u4ec0\u9ebc\u662f\u5288\u9871\u65ac?[[YELLOW]]\u9019\u662f\u4e00\u500b\u4e3b\u52d5\u6280\u80fd(\u7bc4\u570d\u6280).[[YELLOW]]\u9031\u906d\u88ab\u6ce2\u53ca\u7684\u50b7\u5bb3\u70ba\u4e3b\u8981\u76ee\u6a19\u7684\u4e00\u534a[[YELLOW]]\u662f\u7528\u4f86\u6e05\u9664\u4e00\u5768\u602a\u7269\u7684\u5fc5\u5099\u7d55\u62db.
p1766
sg5
V[[DARK_AQUA]]How does Skull Splitter work?\u005cn[[YELLOW]]This ability allows you to deal an AoE (Area of Effect) hit.\u005cn[[YELLOW]]This AoE hit will deal half as much damage as you did to the\u005cn[[YELLOW]]main target, so it's great for clearing out large piles of mobs.
p1767
sg7
VGuides.Axes.Section.1
p1768
ssS'3587637'
p1769
(dp1770
g3
V[[DARK_AQUA]]\u5982\u4f55\u4fee\u5fa9?[[YELLOW]]\u624b\u6301\u8981\u4fee\u5fa9\u7684\u5de5\u5177\u5c0d\u9435\u78da\u9ede\u64ca\u53f3\u9375[[YELLOW]]\u6703\u6d88\u80171\u500b\u4e3b\u539f\u6599.
p1771
sg5
V[[DARK_AQUA]]How can I use Repair?\u005cn[[YELLOW]]Place down a mcMMO Anvil and right-click to repair the item \u005cn[[YELLOW]]you're currently holding. This consumes 1 item on every use.
p1772
sg7
VGuides.Repair.Section.1
p1773
ssS'3587636'
p1774
(dp1775
g3
V[[DARK_AQUA]]\u4ec0\u9ebc\u662f\u65a7\u982d\u7cbe\u901a?[[YELLOW]]\u65a7\u982d\u7cbe\u901a\u53ef\u4ee5\u52a0\u4e58\u65a7\u982d\u7684\u57fa\u672c\u653b\u64ca \u529b[[YELLOW]]\u9810\u8a2d\u4e2d\u6bcf50\u7b49\u589e\u52a01\u9ede\u50b7\u5bb3(\u534a\u5fc3)[[YELLOW]]200\u7b49\u9054\u5230\u6975\u96504\u9ede\u50b7\u5bb3.
p1776
sg5
V[[DARK_AQUA]]How does Axe Mastery work?\u005cn[[YELLOW]]Axe Mastery is a passive ability that will add additional damage\u005cn[[YELLOW]]to your hits when using Axes.\u005cn[[YELLOW]]By default, the bonus damage increases by 1 every 50 levels,\u005cn[[YELLOW]]up to a cap of 4 extra damage at level 200.
p1777
sg7
VGuides.Axes.Section.3
p1778
ssS'3587631'
p1779
(dp1780
g3
V[[DARK_AQUA]]\u4ec0\u9ebc\u662f\u8d85\u7d1a\u4fee\u7406?[[YELLOW]]\u8d85\u7d1a\u4fee\u7406\u662f\u88ab\u52d5\u6280\u80fd. \u7576\u4fee\u7406\u4e00\u500b\u7269\u54c1\u6642,[[YELLOW]]\u73a9\u5bb6\u6709\u6a5f\u7387\u4fee\u5fa9\u5169\u500d\u8010\u4e45\u5ea6.
p1781
sg5
V[[DARK_AQUA]]How does Super Repair work?\u005cn[[YELLOW]]Super Repair is a passive ability. When repairing an item,\u005cn[[YELLOW]]it grants players a chance to repair an item with\u005cn[[YELLOW]]double effectiveness.
p1782
sg7
VGuides.Repair.Section.3
p1783
ssS'2211651'
p1784
(dp1785
g3
V\u795e\u72ac
p1786
sg5
VHoly Hound
p1787
sg7
VTaming.Ability.Bonus.10
p1788
ssS'3587633'
p1789
(dp1790
g3
V[[DARK_AQUA]]\u95dc\u65bc\u65a7\u6280:[[YELLOW]]\u6709\u4e86\u65a7\u6280, \u4f60\u5c31\u53ef\u4ee5\u4e0d\u5fc5\u53ea\u662f\u4e82\u63ee\u4e82\u780d[[YELLOW]]\u4f60\u53ef\u4ee5\u66f4\u6709\u6548\u5730\u64ca\u6bba\u53ef\u60e1\u7684\u602a\u7269\u5011![[YELLOW]]\u800c\u4e14\u53ef\u4ee5\u5728\u63ee\u64ca\u6642\u70b8\u98db\u6216\u767c\u51fa\u81f4\u547d\u7684\u66b4\u64ca[[YELLOW]]\u4ee5\u91cd\u5275 \u5c0d\u624b.[[YELLOW]]\u4f60\u7684\u65a7\u982d\u4e5f\u53ef\u4ee5\u6210\u70ba\u4e00\u53f0\u524a\u6728\u6a5f,[[YELLOW]]\u91cd\u5275\u5c0d\u624b\u7684\u88dd\u7532,\u96a8\u8457\u64cd\u65a7\u6280\u80fd\u5347\u9ad8\u800c[[YELLOW]]\u63d0\u5347\u6548\u679c.[[DARK_AQUA]]\u5982\u4f55\u7372\u53d6\u7d93\u9a57:[[YELLOW]]\u8981\u7372\u53d6\u7d93\u9a57\u4f60\u5fc5\u9808\u7528\u65a7\u982d\u653b\u64ca\u73a9\u5bb6\u6216\u602a\u7269
p1791
sg5
V[[DARK_AQUA]]About Axes:\u005cn[[YELLOW]]With the Axes skill you can use your axe for much more then\u005cn[[YELLOW]]just deforesting! You can hack and chop away at mobs\u005cn[[YELLOW]]and players to gain XP, hitting mobs with the effect of\u005cn[[YELLOW]]knockback and inflicting DEADLY criticals on mobs and players.\u005cn[[YELLOW]]Your axe also becomes a hand-held woodchipper,\u005cn[[YELLOW]]breaking down the enemy's armor with ease as your level\u005cn[[YELLOW]]increases.\u005cn[[DARK_AQUA]]XP GAIN:\u005cn[[YELLOW]]To gain XP in this skill you need hit other mobs or players\u005cn[[YELLOW]]with an Axe.
p1792
sg7
VGuides.Axes.Section.0
p1793
ssS'2211653'
p1794
(dp1795
g3
V\u6cd5\u8853&\u4e2d\u6bd2\u5c07\u6703\u89f8\u767c\u6cbb\u7642.
p1796
sg5
VHealed by Magic & Poison
p1797
sg7
VTaming.Effect.19
p1798
ssS'791953'
p1799
(dp1800
g3
V[[RED]]\u9b54\u6cd5\u7375\u4eba: [[GRAY]] ** \u96a8\u8457\u5bf6\u85cf\u7375\u4eba\u7b49\u7d1a\u63d0\u9ad8 **
p1801
sg5
V[[RED]]Magic Hunter: [[GRAY]] **Improves With Treasure Hunter Rank**
p1802
sg7
VFishing.Ability.Info
p1803
ssS'791843'
p1804
(dp1805
g3
V\u70ba\u4f60\u81ea\u5df1\u53ec\u559a\u4e00\u96bb\u52d5\u7269
p1806
sg5
VSummon an animal to your side
p1807
sg7
VTaming.Effect.13
p1808
ssS'3587667'
p1809
(dp1810
g3
V[[DARK_AQUA]]\u4ec0\u9ebc\u662f\u7da0\u624b\u6307(\u5375\u77f3/\u77f3\u78da/\u571f)?[[YELLOW]]\u9019\u662f\u4e00\u500b\u4e3b\u52d5\u6280\u80fd,\u8b93\u4f60\u5728\u624b\u62ff\u8457\u7a2e\u5b50\u6642,[[YELLOW]]\u5c0d\u5375\u77f3/\u77f3\u78da/\u571f,\u9ede\u64ca\u53f3\u9375,\u53ef\u4f7f\u5b83\u5011\u8b8a\u6210[[YELLOW]]\u690d\u7269\u5f62\u614b,\u6703\u6d88\u8017\u4e00\u9846\u7a2e\u5b50.
p1811
sg5
V[[DARK_AQUA]]How does Green Thumb (Cobble/Stone Brick/Dirt) work?\u005cn[[YELLOW]]This active ability allows you to turn blocks into their\u005cn[[YELLOW]]"plant-related" counterparts. You can do this by right-clicking\u005cn[[YELLOW]]a block, while holding seeds. This will consume 1 seed.
p1812
sg7
VGuides.Herbalism.Section.4
p1813
ssS'3655332'
p1814
(dp1815
g3
V\u4e0d\u6b63\u78ba\u7684\u8840\u689d\u985e\u578b!
p1816
sg5
VInvalid healthbar type!
p1817
sg7
VCommands.Healthbars.Invalid
p1818
ssS'3655330'
p1819
(dp1820
g3
V[mcMMO] \u4f60\u7684\u8840\u689d\u986f\u793a\u6a21\u5f0f\u5df2\u66f4\u6539\u70ba  [[RED]]\u611b\u5fc3[[WHITE]].
p1821
sg5
V[mcMMO] Your healthbar display type was changed to [[RED]]Hearts[[WHITE]].
p1822
sg7
VCommands.Healthbars.Changed.HEARTS
p1823
ssS'791842'
p1824
(dp1825
g3
V\u91ce\u6027\u547c\u558a
p1826
sg5
VCall of the Wild
p1827
sg7
VTaming.Effect.12
p1828
ssS'791951'
p1829
(dp1830
g3
V\u653b\u64ca\u602a\u7269
p1831
sg5
VAttacking Monsters
p1832
sg7
VCommands.XPGain.Archery
p1833
ssS'791962'
p1834
(dp1835
g3
V\u56de\u6536\u5f13\u7bad
p1836
sg5
VArrow Retrieval
p1837
sg7
VArchery.Effect.4
p1838
ssS'4068739'
p1839
(dp1840
g3
V[[RED]]\u968a\u4f0d\u7d93\u9a57\u5206\u4eab\u5c1a\u672a\u89e3\u9396.
p1841
sg5
V[[RED]]Party XP sharing is not unlocked yet.
p1842
sg7
VParty.Feature.Disabled.5
p1843
ssS'4068738'
p1844
(dp1845
g3
V[[RED]] \u5982\u6b32\u806f\u76df\u8acb\u8f38\u5165 [[DARK_AQUA]]/party alliance invite <player>[[RED]].
p1846
sg5
V[[RED]] to an alliance with [[DARK_AQUA]]/party alliance invite <player>[[RED]].
p1847
sg7
VCommands.Party.Alliance.Help.1
p1848
ssS'2209328'
p1849
(dp1850
g3
V[[RED]] [mcMMO]\u60a8\u6c92\u6709\u6b0a\u9650\u50b3\u9001\u5230\u4e16\u754c{0}.
p1851
sg5
V[[RED]][mcMMO] You do not have permission to teleport to the world {0}.
p1852
sg7
VCommands.ptp.NoWorldPermissions
p1853
ssS'791963'
p1854
(dp1855
g3
V\u4f10\u6728\u5de5(\u6280\u80fd)
p1856
sg5
VTree Feller (ABILITY)
p1857
sg7
VWoodcutting.Effect.0
p1858
ssS'791957'
p1859
(dp1860
g3
V**\u5947\u7f8e\u62c9\u4e4b\u7ffc\u4f7f\u7528\u5931\u6557\u4e86!**
p1861
sg5
V**CHIMAERA WING FAILED!**
p1862
sg7
VItem.ChimaeraWing.Fail
p1863
ssS'4068737'
p1864
(dp1865
g3
V[[RED]]\u9019\u500b\u968a\u4f0d\u4e26\u4e0d\u5c6c\u65bc\u4efb\u4f55\u806f\u76df. \u9080\u8acb\u4e00\u500b\u968a\u9577
p1866
sg5
V[[RED]]This party hasn't formed an alliance. Invite a party leader
p1867
sg7
VCommands.Party.Alliance.Help.0
p1868
ssS'4068736'
p1869
(dp1870
g3
V\u968a\u4f0d\u804a\u5929
p1871
sg5
VParty Chat
p1872
sg7
VParty.Feature.Chat
p1873
ssS'4068735'
p1874
(dp1875
g3
V\u7d93\u9a57\u5206\u4eab
p1876
sg5
VXP Sharing
p1877
sg7
VParty.Feature.XpShare
p1878
ssS'791956'
p1879
(dp1880
g3
V[[RED]]\u66b4\u8d70\u947d\u982d[[GREEN]] \u5373\u5c07\u7ed3\u675f [[YELLOW]]{0}
p1881
sg5
V[[RED]]Giga Drill Breaker[[GREEN]] has worn off for [[YELLOW]]{0}
p1882
sg7
VExcavation.Skills.GigaDrillBreaker.Other.Off
p1883
ssS'3790746'
p1884
(dp1885
g3
V[[WHITE]]{0} [[DARK_GRAY]] \u8207 [[WHITE]]{1} [[DARK_GRAY]]\u7d50\u76df
p1886
sg5
V[[WHITE]]{0} [[DARK_GRAY]]IS ALLIED WITH: [[WHITE]]{1}
p1887
sg7
VCommands.Party.Alliance.Ally
p1888
ssS'3790744'
p1889
(dp1890
g3
V[[GREEN]]\u5df2\u63a5\u53d7\u806f\u76df\u9080\u8acb.
p1891
sg5
V[[GREEN]]Alliance invite Accepted.
p1892
sg7
VCommands.Party.Alliance.Invite.Accepted
p1893
ssS'3790743'
p1894
(dp1895
g3
V[[RED]]-----[][[GREEN]]\u806f\u76df\u6210\u54e1[[RED]][]-----
p1896
sg5
V[[RED]]-----[][[GREEN]]ALLIANCE MEMBERS[[RED]][]-----
p1897
sg7
VCommands.Party.Alliance.Members.Header
p1898
ssS'945278'
p1899
(dp1900
g3
V[[DARK_RED]] \u4f60\u6b63\u5728\u6d41\u8840!
p1901
sg5
V[[DARK_RED]] You're bleeding!
p1902
sg7
VSwords.Combat.Bleeding.Started
p1903
ssS'791849'
p1904
(dp1905
g3
V[[GREEN]]\u4f60\u7684 [[YELLOW]]\u5272\u88c2\u65ac [[GREEN]]\u6280\u80fd\u5df2\u53ef\u4f7f\u7528!
p1906
sg5
V[[GREEN]]Your [[YELLOW]]Serrated Strikes [[GREEN]]ability is refreshed!
p1907
sg7
VSwords.Skills.SS.Refresh
p1908
ssS'2124968'
p1909
(dp1910
g3
V\u6280\u80fd
p1911
sg5
Vskill
p1912
sg7
VCommands.Usage.Skill
p1913
ssS'3790749'
p1914
(dp1915
g3
V[[DARK_RED]]{0} \u4e0d\u662f\u968a\u9577.
p1916
sg5
V[[DARK_RED]]{0} is not the party leader.
p1917
sg7
VParty.Target.NotOwner
p1918
ssS'3790748'
p1919
(dp1920
g3
V[[DARK_GRAY]]\u806f\u76df: [[WHITE]]{0}
p1921
sg5
V[[DARK_GRAY]]ALLY: [[WHITE]]{0}
p1922
sg7
VCommands.Party.Status.Alliance
p1923
ssS'2124967'
p1924
(dp1925
g3
V[[GREEN]]\u4f60\u5728 {1} \u4e2d\u88ab\u734e\u52f5\u4e86 {0} \u7d93\u9a57\u503c!
p1926
sg5
V[[GREEN]]You were awarded {0} experience in {1}!
p1927
sg7
VCommands.addxp.AwardSkill
p1928
ssS'791964'
p1929
(dp1930
g3
V\u7206\u767c\u780d\u6a39
p1931
sg5
VMake trees explode
p1932
sg7
VWoodcutting.Effect.1
p1933
ssS'2124966'
p1934
(dp1935
g3
V[[RED]]\u6240\u6709\u6280\u80fd\u7b49\u7d1a\u5df2\u88ab\u8a2d\u5b9a\u70ba {0}.
p1936
sg5
V[[RED]]All skills have been modified for {0}.
p1937
sg7
VCommands.addlevels.AwardAll.2
p1938
ssS'791786'
p1939
(dp1940
g3
V\u6bdb\u76ae\u5f37\u5316
p1941
sg5
VThick Fur
p1942
sg7
VTaming.Ability.Bonus.2
p1943
ssS'791965'
p1944
(dp1945
g3
V\u79cb\u98a8\u6383\u843d\u8449
p1946
sg5
VLeaf Blower
p1947
sg7
VWoodcutting.Effect.2
p1948
ssS'2124965'
p1949
(dp1950
g3
V[[GREEN]]\u5728\u5168\u90e8\u7684\u6280\u80fd\u88e1\u4f60\u9084\u5dee {0} \u7b49\u7d1a!
p1951
sg5
V[[GREEN]]You were awarded {0} levels in all skills!
p1952
sg7
VCommands.addlevels.AwardAll.1
p1953
ssS'2190051'
p1954
(dp1955
g3
V\u89c0\u770b\u5176\u5b83\u4f7f\u7528\u8005\u7684\u8a73\u7d30mcMMO\u8cc7\u8a0a
p1956
sg5
VView detailed mcMMO info on another player
p1957
sg7
VCommands.Description.inspect
p1958
ssS'792074'
p1959
(dp1960
g3
V\u76ee\u6a19\u5df2\u88ab [[DARK_RED]] \u64ca\u6688
p1961
sg5
VTarget was [[DARK_RED]]Dazed
p1962
sg7
VCombat.TargetDazed
p1963
ssS'791854'
p1964
(dp1965
g3
V\u6709\u6a5f\u7387\u5f9e\u5c4d\u9ad4\u4e0a\u53d6\u5f97\u7bad\u77e2
p1966
sg5
VChance to retrieve arrows from corpses
p1967
sg7
VArchery.Effect.5
p1968
ssS'791855'
p1969
(dp1970
g3
V[[DARK_RED]]\u4f60\u6253\u51fa\u4e86\u6703\u5fc3\u4e00\u64ca!
p1971
sg5
V[[DARK_RED]]You were CRITICALLY hit!
p1972
sg7
VAxes.Combat.CritStruck
p1973
ssS'791853'
p1974
(dp1975
g3
V\u6688\u7729(\u9650\u5b9a\u73a9\u5bb6)
p1976
sg5
VDaze (Players)
p1977
sg7
VArchery.Effect.2
p1978
ssS'791850'
p1979
(dp1980
g3
V\u589e\u52a0\u5f13\u7bad\u50b7\u5bb3
p1981
sg5
VIncreases damage done with bows
p1982
sg7
VArchery.Effect.1
p1983
ssS'791851'
p1984
(dp1985
g3
V\u6280\u8853\u5c04\u64ca
p1986
sg5
VSkill Shot
p1987
sg7
VArchery.Effect.0
p1988
ssS'791917'
p1989
(dp1990
g3
V[[RED]]\u5272\u88c2\u65ac\u6301\u7e8c\u6642\u9593: [[YELLOW]]{0}s
p1991
sg5
V[[RED]]Serrated Strikes Length: [[YELLOW]]{0}s
p1992
sg7
VSwords.SS.Length
p1993
ssS'791916'
p1994
(dp1995
g3
V[[DARK_AQUA]]\u64c1\u6709\u8005 ([[RED]]{0}[[DARK_AQUA]])
p1996
sg5
V[[DARK_AQUA]]Owner ([[RED]]{0}[[DARK_AQUA]])
p1997
sg7
VCombat.BeastLoreOwner
p1998
ssS'791915'
p1999
(dp2000
g3
V[[GRAY]]**\u4f60\u653e\u4e0b\u4e86\u4f60\u7684\u93df\u5b50**
p2001
sg5
V[[GRAY]]**YOU LOWER YOUR SHOVEL**
p2002
sg7
VExcavation.Ability.Lower
p2003
ssS'791914'
p2004
(dp2005
g3
V[[GREEN]]\u53ec\u63db\u5b8c\u7562
p2006
sg5
V[[GREEN]]Summoning complete
p2007
sg7
VTaming.Summon.Complete
p2008
ssS'791913'
p2009
(dp2010
g3
V[[GREEN]]**\u6280\u80fd\u51b7\u537b\u5b8c\u7562!**
p2011
sg5
V[[GREEN]]**ABILITIES REFRESHED!**
p2012
sg7
VAbility.Generic.Refresh
p2013
ssS'791858'
p2014
(dp2015
g3
V[[YELLOW]]\u4f10\u6728\u6280\u80fd\u4e0a\u5347\u4e86 {0}. \u7e3d\u7b49\u7d1a ({1})
p2016
sg5
V[[YELLOW]]Woodcutting skill increased by {0}. Total ({1})
p2017
sg7
VWoodcutting.Skillup
p2018
ssS'791859'
p2019
(dp2020
g3
V[[DARK_RED]]\u4f60\u53cd\u64ca\u4e86\u5c0d\u624b!
p2021
sg5
V[[DARK_RED]]Hit with a counter-attack!
p2022
sg7
VSwords.Combat.Counter.Hit
p2023
ssS'3785666'
p2024
(dp2025
g3
V[[GOLD]]\u6230\u9b25\u529b
p2026
sg5
V[[GOLD]]Power Level
p2027
sg7
VScoreboard.Misc.PowerLevel
p2028
ssS'3785667'
p2029
(dp2030
g3
V[[DARK_AQUA]]\u5df2\u6e05\u9664 mcMMO \u5f97\u5206\u699c.
p2031
sg5
V[[DARK_AQUA]]mcMMO scoreboard cleared.
p2032
sg7
VCommands.Scoreboard.Clear
p2033
ssS'3785664'
p2034
(dp2035
g3
V\u005c  [[RED]]{0}[[WHITE]] - [[GOLD]]\u5c1a\u9918 {1} \u79d2
p2036
sg5
V\u005c  [[RED]]{0}[[WHITE]] - [[GOLD]]{1} seconds left
p2037
sg7
VCommands.Cooldowns.Row.N
p2038
ssS'3785665'
p2039
(dp2040
g3
V[[YELLOW]]mcMMO \u72c0\u614b: {0}
p2041
sg5
V[[YELLOW]]mcMMO Stats: {0}
p2042
sg7
VScoreboard.Header.PlayerInspect
p2043
ssS'3785662'
p2044
(dp2045
g3
V\u67e5\u770b\u6240\u6709 mcMMO \u80fd\u529b\u7684\u51b7\u537b\u6642\u9593
p2046
sg5
VView all of the mcMMO ability cooldowns
p2047
sg7
VCommands.Description.mccooldown
p2048
ssS'2124961'
p2049
(dp2050
g3
V[[RED]]\u8acb\u8f38\u5165 /{0} {1}
p2051
sg5
V[[RED]]Proper usage is /{0} {1}
p2052
sg7
VCommands.Usage.1
p2053
ssS'3785660'
p2054
(dp2055
g3
V[[DARK_AQUA]]/mcscoreboard[[AQUA]] keep [[WHITE]] - \u6301\u7e8c\u986f\u793a mcMMO \u5f97\u5206\u699c
p2056
sg5
V[[DARK_AQUA]]/mcscoreboard[[AQUA]] keep [[WHITE]] - keep the mcMMO scoreboard up
p2057
sg7
VCommands.Scoreboard.Help.2
p2058
ssS'2209180'
p2059
(dp2060
g3
V\u5207\u63dbmcMMO\u7684\u804a\u5929\u986f\u793a\u901a\u77e5 (\u958b/\u95dc)
p2061
sg5
VToggle mcMMO abilities chat display notifications on/off
p2062
sg7
VCommands.Description.mcnotify
p2063
ssS'3790738'
p2064
(dp2065
g3
V[[RED]]- \u52a0\u5165\u73a9\u5bb6\u7684\u968a\u4f0d\u88e1
p2066
sg5
V[[RED]]- Join a players party
p2067
sg7
VCommands.Party.2
p2068
ssS'3587669'
p2069
(dp2070
g3
V[[DARK_AQUA]]\u4ec0\u9ebc\u662f\u5bf6\u7269\u7375\u4eba?[[YELLOW]]\u6240\u6709\u5bf6\u7269\u90fd\u6709\u81ea\u5df1\u7684\u6700\u4f4e\u6389\u843d\u7b49\u7d1a[[YELLOW]]\u6240\u4ee5\u5bf6\u7269\u5c0d\u4f60\u4e0d\u898b\u5f97\u6709\u7528.[[YELLOW]]\u53ea\u9700\u8981 \u8a18\u5f97\u6108\u6316\u6398\u7b49\u7d1a\u6108\u9ad8,[[YELLOW]]\u5c31\u80fd\u6316\u9053\u6108\u591a\u5bf6.[[YELLOW]]\u9084\u6709\u6bcf\u4e00\u7a2e\u4e0d\u540c\u7684\u6750\u8cea,[[YELLOW]]\u53ef\u80fd\u6389\u51fa\u4f86\u7684\u5bf6\u7269\u90fd\u4e0d\u540c.[[YELLOW]]\u63db\u53e5\u8a71\u8aaa\u4f60\u80fd\u5f9e\u571f\u88e1\u6316\u51fa\u6bd4\u792b\u77f3[[YELLOW]]\u66f4\u591a\u7a2e\u985e\u7684\u5bf6\u7269.
p2071
sg5
V[[DARK_AQUA]]How does Treasure Hunter work?\u005cn[[YELLOW]]Every possible treasure for Excavation has its own\u005cn[[YELLOW]]skill level requirement for it to drop, as a result it's\u005cn[[YELLOW]]difficult to say how much it is helping you.\u005cn[[YELLOW]]Just keep in mind that the higher your Excavation skill\u005cn[[YELLOW]]is, the more treasures that can be found.\u005cn[[YELLOW]]And also keep in mind that each type of Excavation\u005cn[[YELLOW]]compatible material has its own unique list of treasures.\u005cn[[YELLOW]]In other words you will find different treasures in Dirt\u005cn[[YELLOW]]than you would in Gravel.
p2072
sg7
VGuides.Excavation.Section.4
p2073
ssS'791795'
p2074
(dp2075
g3
V**\u5947\u7f8e\u62c9\u4e4b\u7ffc**
p2076
sg5
V**CHIMAERA WING**
p2077
sg7
VItem.ChimaeraWing.Pass
p2078
ssS'2124960'
p2079
(dp2080
g3
V[[RED]]{0} \u56e0\u70ba {1} \u800c\u4fee\u6539.
p2081
sg5
V[[RED]]{0} has been modified for {1}.
p2082
sg7
VCommands.addlevels.AwardSkill.2
p2083
ssS'791797'
p2084
(dp2085
g3
V\u6316\u7926:
p2086
sg5
VMining:
p2087
sg7
VMining.Listener
p2088
ssS'791796'
p2089
(dp2090
g3
V[[GREEN]][mcMMO] \u72c0\u614b
p2091
sg5
V[[GREEN]][mcMMO] Stats
p2092
sg7
VStats.Own.Stats
p2093
ssS'2260266'
p2094
(dp2095
g3
V[[GOLD]](\u5b50\u6280\u80fd)
p2096
sg5
V[[GOLD]](CHILD SKILL)
p2097
sg7
VSkills.Child
p2098
ssS'791989'
p2099
(dp2100
g3
V[[GREEN]]--\u7d44\u968a\u6307\u4ee4--
p2101
sg5
V[[GREEN]]--PARTY COMMANDS--
p2102
sg7
VCommands.Party.Commands
p2103
ssS'791813'
p2104
(dp2105
g3
V[[GREEN]]**\u7da0\u624b\u6307**
p2106
sg5
V[[GREEN]]**GREEN THUMB**
p2107
sg7
VHerbalism.Ability.GTh
p2108
ssS'3587639'
p2109
(dp2110
g3
V[[DARK_AQUA]]\u4ec0\u9ebc\u662f\u5feb\u9910\u670d\u52d9?[[YELLOW]]\u9019\u662f\u4e00\u500b\u88ab\u52d5\u6280\u80fd,\u8b93\u72fc\u7fa4\u5728\u653b\u64ca\u6642[[YELLOW]]\u6709\u6a5f\u7387\u56de\u5fa9\u8840\u91cf.
p2111
sg5
V[[DARK_AQUA]]How does Fast Food Service work?\u005cn[[YELLOW]]This passive ability gives wolves a chance to heal whenever\u005cn[[YELLOW]]they perform an attack.
p2112
sg7
VGuides.Taming.Section.8
p2113
ssS'2158640'
p2114
(dp2115
g3
V[[RED]]-----[][[GREEN]]\u6210\u54e1[[RED]][]-----
p2116
sg5
V[[RED]]-----[][[GREEN]]MEMBERS[[RED]][]-----
p2117
sg7
VCommands.Party.Members.Header
p2118
ssS'791826'
p2119
(dp2120
g3
V\u589e\u52a0\u984d\u5916\u50b7\u5bb3
p2121
sg5
VAdds bonus DMG
p2122
sg7
VAxes.Effect.5
p2123
ssS'791779'
p2124
(dp2125
g3
V[[RED]]\u5272\u88c2\u65ac[[GREEN]] \u5373\u5c07\u7d50\u675f [[YELLOW]]{0}
p2126
sg5
V[[RED]]Serrated Strikes[[GREEN]] has worn off for [[YELLOW]]{0}
p2127
sg7
VSwords.Skills.SS.Other.Off
p2128
ssS'791778'
p2129
(dp2130
g3
V[[RED]]\u4f60\u96e2\u958b\u4e86\u9019\u652f\u968a\u4f0d
p2131
sg5
V[[RED]]You have left that party
p2132
sg7
VCommands.Party.Leave
p2133
ssS'791773'
p2134
(dp2135
g3
V[[GREEN]]\u4f60\u7684 [[YELLOW]]\u5288\u9871\u65ac [[GREEN]]\u80fd\u529b\u5df2\u53ef\u4f7f\u7528\uff01
p2136
sg5
V[[GREEN]]Your [[YELLOW]]Skull Splitter [[GREEN]]ability is refreshed!
p2137
sg7
VAxes.Skills.SS.Refresh
p2138
ssS'3633772'
p2139
(dp2140
g3
V[[DARK_AQUA]]\u4ec0\u9ebc\u662f\u6f01\u4eba\u4fbf\u7576?[[YELLOW]]\u9019\u662f\u4e00\u500b\u88ab\u52d5\u6280\u80fd\u8b93\u4f60\u80fd\u5728\u5403\u9b5a\u6642\u6709[[YELLOW]]\u66f4\u591a\u7684\u98fd\u98df\u5ea6.
p2141
sg5
V[[DARK_AQUA]]How does Fisherman's Diet work?\u005cn[[YELLOW]]This passive skill increases the amount of hunger restored \u005cn[[YELLOW]]from eating fish.
p2142
sg7
VGuides.Fishing.Section.5
p2143
ssS'2093993'
p2144
(dp2145
g3
V\u9396\u5b9a\u76f4\u5230\u6280\u80fd {0}+  (\u5371\u6a5f\u610f\u8b58)
p2146
sg5
VLOCKED UNTIL {0}+ SKILL (ENVIRONMENTALLY AWARE)
p2147
sg7
VTaming.Ability.Locked.0
p2148
ssS'791776'
p2149
(dp2150
g3
V\u640f\u64ca:
p2151
sg5
VUnarmed:
p2152
sg7
VUnarmed.Listener
p2153
ssS'791775'
p2154
(dp2155
g3
V[[DARK_AQUA]]\u751f\u547d\u503c ([[GREEN]]{0}[[DARK_AQUA]]/{1})
p2156
sg5
V[[DARK_AQUA]]Health ([[GREEN]]{0}[[DARK_AQUA]]/{1})
p2157
sg7
VCombat.BeastLoreHealth
p2158
ssS'791774'
p2159
(dp2160
g3
V[[RED]]\u9019\u500b\u6307\u4ee4\u88ab\u7981\u7528\u4e86.
p2161
sg5
V[[RED]]This command is disabled.
p2162
sg7
VCommands.Disabled
p2163
ssS'2211654'
p2164
(dp2165
g3
V\u9396\u5b9a\u76f4\u5230\u6280\u80fd {0}+ (\u795e\u72ac)
p2166
sg5
VLOCKED UNTIL {0}+ SKILL (HOLY HOUND)
p2167
sg7
VTaming.Ability.Locked.5
p2168
ssS'3633770'
p2169
(dp2170
g3
V[[DARK_AQUA]]\u4ec0\u9ebc\u662f\u51b0\u91e3?[[YELLOW]]\u9019\u500b\u88ab\u52d5\u6280\u80fd\u8b93\u4f60\u5728\u51b0\u6e56\u4e0a\u6355\u9b5a![[YELLOW]]\u5728\u51b0\u6e56\u4e0a\u7529\u52d5\u4f60\u7684\u91e3\u7aff[[YELLOW]]\u5c07\u6703\u5728\u51b0\u4e0a\u88fd\u9020\u51fa\u53ef\u4f9b\u91e3\u9b5a\u7684\u5c0f\u6d1e.
p2171
sg5
V[[DARK_AQUA]]How does Ice Fishing work?\u005cn[[YELLOW]]This passive skill allows you to fish in ice lakes!\u005cn[[YELLOW]]Cast your fishing rod in an ice lake and the ability will\u005cn[[YELLOW]]create a small hole in the ice to fish in.
p2172
sg7
VGuides.Fishing.Section.2
p2173
ssS'791815'
p2174
(dp2175
g3
V[[RED]]\u5288\u9871\u65ac\u6301\u7e8c\u6642\u9593: [[YELLOW]]{0}s
p2176
sg5
V[[RED]]Skull Splitter Length: [[YELLOW]]{0}s
p2177
sg7
VAxes.Combat.SS.Length
p2178
ssS'792057'
p2179
(dp2180
g3
V[[YELLOW]]{0}[[GREEN]]{1}[[DARK_AQUA]] XP([[GRAY]]{2}[[DARK_AQUA]]/[[GRAY]]{3}[[DARK_AQUA]])
p2181
sg5
V[[YELLOW]]{0}[[GREEN]]{1}[[DARK_AQUA]] XP([[GRAY]]{2}[[DARK_AQUA]]/[[GRAY]]{3}[[DARK_AQUA]])
p2182
sg7
VSkills.Stats
p2183
ssS'2093979'
p2184
(dp2185
g3
V\u6536\u6210\u6642\u81ea\u52d5\u7a2e\u690d\u5c0f\u9ea5
p2186
sg5
VAuto-Plants crops when harvesting
p2187
sg7
VHerbalism.Effect.3
p2188
ssS'791828'
p2189
(dp2190
g3
V\u96d9\u500d\u50b7\u5bb3
p2191
sg5
VDouble Damage
p2192
sg7
VAxes.Effect.3
p2193
ssS'791987'
p2194
(dp2195
g3
V\u5371\u6a5f\u610f\u8b58
p2196
sg5
VEnvironmentally Aware
p2197
sg7
VTaming.Ability.Bonus.0
p2198
ssS'2211650'
p2199
(dp2200
g3
V\u7576\u88ab\u6cd5\u8853\u653b\u64ca\u6216\u4e2d\u6bd2\u6642\u6062\u5fa9\u751f\u547d\u503c
p2201
sg5
VRegain health when damaged by magic or poison
p2202
sg7
VTaming.Ability.Bonus.11
p2203
ssS'3587630'
p2204
(dp2205
g3
V[[DARK_AQUA]]\u5982\u4f55\u4f7f\u7528\u7206\u7834\u6316\u6398:[[YELLOW]]\u624b\u6301\u6253\u706b\u77f3, \u9810\u8a2d\u7531\u71e7\u77f3\u53ca\u9435\u9320\u7d44\u6210,[[YELLOW]]\u8e72\u4e0b\u4e26\u7528\u53f3\u9375\u9ede\u53caTNT. \u9019\u6703\u4f7fTNT[[YELLOW]]\u76f4\u63a5\u7206\u70b8, \u6700\u597d\u7ad9\u9060\u4e00\u9ede.
p2206
sg5
V[[DARK_AQUA]]How to use Blast Mining:\u005cn[[YELLOW]]With a detonator in hand, which is a flint & steel by default,\u005cn[[YELLOW]]crouch and right-click on TNT from a distance. This will cause the TNT\u005cn[[YELLOW]]to instantly explode.
p2207
sg7
VGuides.Mining.Section.4
p2208
ssS'2211652'
p2209
(dp2210
g3
V\u795e\u72ac
p2211
sg5
VHoly Hound
p2212
sg7
VTaming.Effect.18
p2213
ssS'3587632'
p2214
(dp2215
g3
V[[DARK_AQUA]]\u4ec0\u9ebc\u662f\u5f37\u529b\u653b\u64ca?[[YELLOW]]\u5728\u653b\u64ca\u73a9\u5bb6\u6216\u602a\u7269\u6642\u6709\u88ab\u52d5\u6a5f\u7387\u70b8\u98db\u5c0d\u624b[[YELLOW]]\u9810\u8a2d\u6a5f\u7387\u70ba25%. \u70b8\u98db\u6548\u679c\u76f8\u7576\u65bc\u64ca\u9000II\u7684\u9644\u9b54[[YELLOW]]\u5916\u52a0\u5c0d\u76ee\u6a19\u7684\u52a0\u4e58\u653b\u64ca.
p2216
sg5
V[[DARK_AQUA]]How does Greater Impact work?\u005cn[[YELLOW]]You have a passive chance to achieve a greater impact when\u005cn[[YELLOW]]hitting mobs or players with your axe.\u005cn[[YELLOW]]By default this chance is 25%. This passive ability has an\u005cn[[YELLOW]]extreme knockback effect, similar to the Knockback II\u005cn[[YELLOW]]enchantment. In addition, it deals bonus damage to the target.
p2217
sg7
VGuides.Axes.Section.5
p2218
ssS'2115602'
p2219
(dp2220
g3
V[[RED]]\u6b64\u6280\u80fd\u6b63\u8655\u65bc\u51b7\u537b\u6642\u9593. [[YELLOW]]({0}s)
p2221
sg5
V[[RED]]You are too tired to use that ability again. [[YELLOW]]({0}s)
p2222
sg7
VSkills.TooTired
p2223
ssS'791708'
p2224
(dp2225
g3
V[[GOLD]]-=\u683c\u9b25\u6280\u80fd=-
p2226
sg5
V[[GOLD]]-=COMBAT SKILLS=-
p2227
sg7
VStats.Header.Combat
p2228
ssS'791709'
p2229
(dp2230
g3
V[[GRAY]]\u653e\u8840\u5df2[[GREEN]]\u505c\u6b62[[GRAY]]!
p2231
sg5
V[[GRAY]]The bleeding has [[GREEN]]stopped[[GRAY]]!
p2232
sg7
VSwords.Combat.Bleeding.Stopped
p2233
ssS'791706'
p2234
(dp2235
g3
V\u96dc\u6280
p2236
sg5
VACROBATICS
p2237
sg7
VAcrobatics.SkillName
p2238
ssS'791707'
p2239
(dp2240
g3
V\u6316\u6398\u77f3\u982d\u548c\u7926\u7269
p2241
sg5
VMining Stone & Ore
p2242
sg7
VCommands.XPGain.Mining
p2243
ssS'791704'
p2244
(dp2245
g3
V[[GRAY]]\u968a\u4f0d\u5df2\u89e3\u9396!
p2246
sg5
V[[GRAY]]Party is unlocked
p2247
sg7
VParty.Unlocked
p2248
ssS'792106'
p2249
(dp2250
g3
V[[RED]]\u6703\u5fc3\u4e00\u64ca!
p2251
sg5
V[[RED]]CRITICAL HIT!
p2252
sg7
VAxes.Combat.CriticalHit
p2253
ssS'791702'
p2254
(dp2255
g3
V[[RED]]\u9019\u4ef6\u7269\u54c1\u7684\u9644\u9b54\u5df2\u6d88\u5931!
p2256
sg5
V[[RED]]Arcane power has permanently left the item.
p2257
sg7
VRepair.Arcane.Fail
p2258
ssS'792100'
p2259
(dp2260
g3
V\u9b54\u6cd5\u7375\u4eba
p2261
sg5
VMagic Hunter
p2262
sg7
VFishing.Effect.2
p2263
ssS'792103'
p2264
(dp2265
g3
V[[GREEN]]{0}[[DARK_GREEN]] \u4f7f\u7528\u4e86 [[RED]]\u8d85\u7d1a\u788e\u77f3\u6a5f!
p2266
sg5
V[[GREEN]]{0}[[DARK_GREEN]] has used [[RED]]Super Breaker!
p2267
sg7
VMining.Skills.SuperBreaker.Other.On
p2268
ssS'791701'
p2269
(dp2270
g3
V[[RED]]{0}: [[YELLOW]]{1}
p2271
sg5
V[[RED]]{0}: [[YELLOW]]{1}
p2272
sg7
VAbility.Generic.Template
p2273
ssS'2093975'
p2274
(dp2275
g3
V\u56de\u6536 ({0}+ SKILL)
p2276
sg5
VSalvage ({0}+ SKILL)
p2277
sg7
VRepair.Effect.16
p2278
ssS'2127513'
p2279
(dp2280
g3
V\u9019\u9801\u4e0d\u5b58\u5728, \u7e3d\u5171\u53ea\u6709 {0} \u9801.
p2281
sg5
VThat page does not exist, there are only {0} total pages.
p2282
sg7
VGuides.Page.OutOfRange
p2283
ssS'3746608'
p2284
(dp2285
g3
V[[GOLD]][mcMMO] [[DARK_RED]]\u56e0\u70ba\u6b7b\u4ea1\u4f60\u5931\u53bb\u4e86[[BLUE]]{0}[[DARK_RED]].
p2286
sg5
V[[GOLD]][mcMMO] [[DARK_RED]]You have lost [[BLUE]]{0}[[DARK_RED]] levels from death.
p2287
sg7
VHardcore.DeathStatLoss.PlayerDeath
p2288
ssS'2093974'
p2289
(dp2290
g3
V\u56de\u6536\u5de5\u5177\u548c\u88dd\u7532
p2291
sg5
VSalvage Tools & Armor
p2292
sg7
VRepair.Effect.17
p2293
ssS'3506431'
p2294
(dp2295
g3
V{0}s {1}
p2296
sg5
V{0}''s {1}
p2297
sg7
VTaming.Summon.Name.Format
p2298
ssS'3655331'
p2299
(dp2300
g3
V[[DARK_AQUA]]\u4ec0\u9ebc\u662f\u5782\u91e3\u5927\u5e2b?[[YELLOW]]\u9019\u500b\u88ab\u52d5\u6280\u80fd\u5c07\u589e\u52a0\u4e0a\u9264\u7684\u6a5f\u7387.[[YELLOW]]\u7576\u4f60\u7372\u5f97\u9019\u500b\u80fd\u529b, \u5728\u8239\u4e0a\u6216\u6d77\u6d0b\u751f\u614b[[YELLOW]]\u91e3\u9b5a\u5c07\u6703\u7372\u5f97\u96d9\u500d\u4e0a\u9264\u6a5f\u7387.
p2301
sg5
V[[DARK_AQUA]]How does Master Angler work?\u005cn[[YELLOW]]This passive skill increases the bite chance while fishing.\u005cn[[YELLOW]]When you've unlocked this ability, fishing while in\u005cn[[YELLOW]]a boat or when an ocean biome doubles the bite chance.
p2302
sg7
VGuides.Fishing.Section.3
p2303
ssS'3399049'
p2304
(dp2305
g3
V[[RED]]{0}\u4e0d\u662f\u4e00\u500b\u6b63\u78ba\u7684\u8cc7\u6599\u5eab\u7a2e\u985e.
p2306
sg5
V[[RED]]{0} is not a valid database type.
p2307
sg7
VCommands.mcconvert.Database.InvalidType
p2308
ssS'3399048'
p2309
(dp2310
g3
V[[RED]]\u4f60\u6b63\u5728\u4f7f\u7528{0}\u8cc7\u6599\u5eab!
p2311
sg5
V[[RED]]You are already using the {0} database!
p2312
sg7
VCommands.mcconvert.Database.Same
p2313
ssS'3399047'
p2314
(dp2315
g3
V[[GRAY]]\u958b\u59cb\u5f9e{0}\u8f49\u63db\u5230{1}\u66f2\u7dda
p2316
sg5
V[[GRAY]]Starting conversion from {0} to {1} curve
p2317
sg7
VCommands.mcconvert.Experience.Start
p2318
ssS'3399046'
p2319
(dp2320
g3
V[[GRAY]]\u958b\u59cb\u5f9e{0}\u8f49\u63db\u81f3{1}...
p2321
sg5
V[[GRAY]]Starting conversion from {0} to {1}...
p2322
sg7
VCommands.mcconvert.Database.Start
p2323
ssS'3399045'
p2324
(dp2325
g3
V[[GRAY]]\u8cc7\u6599\u5eab\u9077\u79fb\u5b8c\u6210; {1}\u8cc7\u6599\u5eab\u73fe\u5728\u64c1\u6709{0}\u8cc7\u6599\u5eab\u7684\u6240\u6709\u8cc7\u6599.
p2326
sg5
V[[GRAY]]Database migration complete; the {1} database now has all data from the {0} database.
p2327
sg7
VCommands.mcconvert.Database.Finish
p2328
ssS'3785653'
p2329
(dp2330
g3
V[[RED]]\u6230\u9b25\u529b
p2331
sg5
V[[RED]]Power Level
p2332
sg7
VScoreboard.Header.PowerLevel
p2333
ssS'3785652'
p2334
(dp2335
g3
V[[YELLOW]]mcMMO \u72c0\u614b
p2336
sg5
V[[YELLOW]]mcMMO Stats
p2337
sg7
VScoreboard.Header.PlayerStats
p2338
ssS'3785651'
p2339
(dp2340
g3
V[[LIGHT_PURPLE]]\u51b7\u537b\u6642\u9593
p2341
sg5
V[[LIGHT_PURPLE]]Cooldown
p2342
sg7
VScoreboard.Misc.Cooldown
p2343
ssS'3785650'
p2344
(dp2345
g3
V\u6574\u9ad4
p2346
sg5
V[[GOLD]]Overall
p2347
sg7
VScoreboard.Misc.Overall
p2348
ssS'3587666'
p2349
(dp2350
g3
V[[DARK_AQUA]]\u4ec0\u9ebc\u662f\u99b4\u7378\u4e4b\u80fd?[[YELLOW]]\u99b4\u7378\u4e4b\u80fd\u8b93\u4f60\u5bdf\u89ba\u5bf5\u7269\u7684\u72c0\u614b,[[YELLOW]]\u5c0d\u5bf5\u7269\u9ede\u64ca\u5de6\u9375\u5c31\u80fd\u4f7f\u7528\u9019\u9805\u80fd\u529b.
p2351
sg5
V[[DARK_AQUA]]How does Beast Lore work?\u005cn[[YELLOW]]Beast Lore allows players to inspect pets and to check the\u005cn[[YELLOW]]stats of wolves and ocelots. Left-click a wolf or ocelot to use\u005cn[[YELLOW]]Beast Lore.
p2352
sg7
VGuides.Taming.Section.2
p2353
ssS'792116'
p2354
(dp2355
g3
V3x \u6389\u843d\u7387, 3x \u7d93\u9a57\u503c, +\u901f\u5ea6
p2356
sg5
V3x Drop Rate, 3x EXP, +Speed
p2357
sg7
VExcavation.Effect.1
p2358
ssS'3587664'
p2359
(dp2360
g3
V[[DARK_AQUA]]\u4ec0\u9ebc\u662f\u5229\u722a?[[YELLOW]]\u5229\u722a\u4f7f\u72fc\u7684\u653b\u64ca\u529b\u96a8\u8457\u99b4\u7378\u7b49\u7d1a[[YELLOW]]\u589e\u52a0\u800c\u589e\u52a0.
p2361
sg5
V[[DARK_AQUA]]How does Sharpened Claws work?\u005cn[[YELLOW]]Sharpened Claws provides a damage bonus to damage dealt\u005cn[[YELLOW]]by wolves. The damage bonus depends on your Taming level.
p2362
sg7
VGuides.Taming.Section.4
p2363
ssS'3587665'
p2364
(dp2365
g3
V[[DARK_AQUA]]\u4ec0\u9ebc\u662f\u8840\u8165\u653b\u64ca?[[YELLOW]]\u8840\u8165\u653b\u64ca\u662f\u4e00\u500b\u4e3b\u52d5\u6280\u80fd,\u80fd\u9020\u6210[[YELLOW]]\u72fc\u7684\u653b\u64ca\u76ee\u6a19\u6709\u6a5f\u7387\u9677\u5165\u6d41\u8840\u72c0\u614b.
p2366
sg5
V[[DARK_AQUA]]How does Gore work?\u005cn[[YELLOW]]Gore is a passive ability that has a chance of inflicting a\u005cn[[YELLOW]]bleeding effect on your wolves' targets.
p2367
sg7
VGuides.Taming.Section.3
p2368
ssS'3587662'
p2369
(dp2370
g3
V[[DARK_AQUA]]\u4ec0\u9ebc\u662f\u6bdb\u76ae\u5f37\u5316?[[YELLOW]]\u9019\u662f\u4e00\u500b\u88ab\u52d5\u6280\u80fd\u80fd\u8b93\u72fc[[YELLOW]]\u53d7\u5230\u653b\u64ca\u6216\u71c3\u71d2\u6642\u6e1b\u514d\u50b7\u5bb3.
p2371
sg5
V[[DARK_AQUA]]How does Thick Fur work?\u005cn[[YELLOW]]This passive ability will reduce damage and make wolves\u005cn[[YELLOW]]fire resistant.
p2372
sg7
VGuides.Taming.Section.6
p2373
ssS'3587663'
p2374
(dp2375
g3
V[[DARK_AQUA]]\u4ec0\u9ebc\u662f\u5371\u6a5f\u610f\u8b58?[[YELLOW]]\u9019\u500b\u88ab\u52d5\u6280\u80fd\u80fd\u8b93\u72fc\u5728\u9047\u5230\u5371\u96aa\u6642[[YELLOW]]\u8fc5\u901f\u56de\u5230\u4f60\u8eab\u908a(\u5982\u4ed9\u4eba\u638c\u6216\u5ca9\u6f3f),[[YELLOW]]\u4e5f\u53ef\u4ee5\u6e1b\u514d\u6454\u843d\u50b7\u5bb3.
p2376
sg5
V[[DARK_AQUA]]How does Environmentally Aware work?\u005cn[[YELLOW]]This passive ability will allow wolves to teleport to you when\u005cn[[YELLOW]]they get near hazards, such as Cacti/Lava. It will also give\u005cn[[YELLOW]]wolves fall damage immunity.
p2377
sg7
VGuides.Taming.Section.5
p2378
ssS'3587660'
p2379
(dp2380
g3
V[[DARK_AQUA]]\u4ec0\u9ebc\u662f\u9632\u5177\u7834\u58de\u8005?[[YELLOW]]\u66b4\u529b\u7684\u6253\u64ca\u4f7f\u9632\u5177\u7c89\u788e![[YELLOW]]\u9632\u5177\u7834\u58de\u8005\u6709\u88ab\u52d5\u6a5f\u7387\u9020\u6210\u5c0d\u624b\u9632\u5177\u88ab\u7834\u58de![[YELLOW]]\u7834\u58de\u7a0b\u5ea6\u95dc\u4fc2\u5230\u4f60\u7684\u65a7\u982d\u6280\u80fd\u7b49\u7d1a.
p2381
sg5
V[[DARK_AQUA]]How does Armor Impact work?\u005cn[[YELLOW]]Strike with enough force to shatter armor!\u005cn[[YELLOW]]Armor Impact has a passive chance to damage your\u005cn[[YELLOW]]opponent's armor. This damage increases as you level in Axes.
p2382
sg7
VGuides.Axes.Section.4
p2383
ssS'3587661'
p2384
(dp2385
g3
V[[DARK_AQUA]]\u4ec0\u9ebc\u662f\u885d\u64ca\u683c\u64cb?[[YELLOW]]\u9019\u662f\u4e00\u500b\u88ab\u52d5\u6280\u80fd,\u8b93\u72fc\u7fa4[[YELLOW]]\u6e1b\u514d\u7206\u70b8\u50b7\u5bb3.
p2386
sg5
V[[DARK_AQUA]]How does Shock Proof work?\u005cn[[YELLOW]]This passive ability reduces damage done to wolves\u005cn[[YELLOW]]from explosions.
p2387
sg7
VGuides.Taming.Section.7
p2388
ssS'3665278'
p2389
(dp2390
g3
V[[YELLOW]]{0}[[GREEN]]{1}
p2391
sg5
V[[YELLOW]]{0}[[GREEN]]{1}
p2392
sg7
VSkills.ChildStats
p2393
ssS'792088'
p2394
(dp2395
g3
V\u53cd\u64ca
p2396
sg5
VCounter Attack
p2397
sg7
VSwords.Effect.0
p2398
ssS'791959'
p2399
(dp2400
g3
V\u8349\u85e5\u5b78
p2401
sg5
VHERBALISM
p2402
sg7
VHerbalism.SkillName
p2403
ssS'791958'
p2404
(dp2405
g3
V[[DARK_RED]]\u90a3\u4e0d\u662f\u4e00\u500b\u6709\u6548\u7684\u968a\u4f0d\u540d\u7a31.
p2406
sg5
V[[DARK_RED]]That is not a valid party name.
p2407
sg7
VParty.InvalidName
p2408
ssS'2124963'
p2409
(dp2410
g3
V[[RED]]\u7d93\u9a57\u503c\u500d\u6578\u5df2\u88ab\u8a2d\u5b9a\u70ba {0}
p2411
sg5
V[[RED]]The XP RATE was modified to {0}
p2412
sg7
VCommands.xprate.modified
p2413
ssS'2124962'
p2414
(dp2415
g3
V[[DARK_RED]]mcMMO \u5728\u4fee\u6b63\u6642\u767c\u751f\u4e86\u932f\u8aa4!
p2416
sg5
V[[DARK_RED]]mcMMO encountered an error attempting to repair this item!
p2417
sg7
VRepair.Error
p2418
ssS'3587668'
p2419
(dp2420
g3
V[[DARK_AQUA]]\u99b4\u7378[[YELLOW]]\u99b4\u7378\u6280\u80fd\u8b93\u73a9\u5bb6\u80fd\u5728\u7528\u72fc\u6230\u9b25\u6642[[YELLOW]]\u6642\u6709\u52a0\u4e58\u6548\u679c.[[DARK_AQUA]]\u7d93\u9a57\u7372\u53d6:[[YELLOW]]\u8981\u7372\u53d6\u7d93\u9a57,\u9808\u8a13\u670d\u72fc\u6216\u8c79\u8c93,[[YELLOW]]\u6216\u8207\u4f60\u7684\u72fc\u4e00\u540c\u6230\u9b25.
p2421
sg5
V[[DARK_AQUA]]About Taming:\u005cn[[YELLOW]]Taming will give players various combat bonuses when using\u005cn[[YELLOW]]tamed wolves.\u005cn\u005cn[[DARK_AQUA]]XP GAIN:\u005cn[[YELLOW]]To gain XP in this skill, you need to tame wolves/ocelots or\u005cn[[YELLOW]]get into combat with your wolves.
p2422
sg7
VGuides.Taming.Section.0
p2423
ssS'791884'
p2424
(dp2425
g3
V[[GREEN]]**\u4f60\u63e1\u7dca\u4e86\u4f60\u7684\u93df\u5b50**
p2426
sg5
V[[GREEN]]**YOU READY YOUR SHOVEL**
p2427
sg7
VExcavation.Ability.Ready
p2428
ssS'792039'
p2429
(dp2430
g3
V[[RED]]\u4f60\u6c92\u6709\u6536\u5230\u4efb\u4f55\u968a\u4f0d\u9080\u8acb
p2431
sg5
V[[RED]]You have no invites at this time
p2432
sg7
VmcMMO.NoInvites
p2433
ssS'792038'
p2434
(dp2435
g3
V[[RED]]**\u4f60\u958b\u59cb\u6d41\u8840\u4e86**
p2436
sg5
V[[RED]]**YOU HAVE BEEN GORED**
p2437
sg7
VCombat.StruckByGore
p2438
ssS'791818'
p2439
(dp2440
g3
V\u8d85\u7d1a\u4fee\u7406
p2441
sg5
VSuper Repair
p2442
sg7
VRepair.Effect.4
p2443
ssS'791819'
p2444
(dp2445
g3
V\u4fee\u7406\u947d\u77f3\u5de5\u5177\u548c\u88dd\u5099
p2446
sg5
VRepair Diamond Tools & Armor
p2447
sg7
VRepair.Effect.7
p2448
ssS'791791'
p2449
(dp2450
g3
V[[GRAY]]**\u4f60\u653e\u4e0b\u4e86\u4f60\u7684\u528d**
p2451
sg5
V[[GRAY]]**YOU LOWER YOUR SWORD**
p2452
sg7
VSwords.Ability.Lower
p2453
ssS'791790'
p2454
(dp2455
g3
V\u96dc\u6280:
p2456
sg5
VAcrobatics:
p2457
sg7
VAcrobatics.Listener
p2458
ssS'791793'
p2459
(dp2460
g3
V[[GREEN]]\u4f60\u7684 [[YELLOW]]\u4f10\u6728\u5de5 [[GREEN]]\u5df2\u53ef\u4f7f\u7528\uff01
p2461
sg5
V[[GREEN]]Your [[YELLOW]]Tree Feller [[GREEN]]ability is refreshed!
p2462
sg7
VWoodcutting.Skills.TreeFeller.Refresh
p2463
ssS'791792'
p2464
(dp2465
g3
V\u91e3\u9b5a!(\u53bb\u60f3\u60f3\u5427!)
p2466
sg5
VFishing (Go figure!)
p2467
sg7
VCommands.XPGain.Fishing
p2468
ssS'792031'
p2469
(dp2470
g3
V\u6389\u843d
p2471
sg5
VFalling
p2472
sg7
VCommands.XPGain.Acrobatics
p2473
ssS'792112'
p2474
(dp2475
g3
V[[DARK_RED]]\u4f60\u7684\u6280\u80fd\u7b49\u7d1a\u4e0d\u8db3\u4ee5\u4fee\u7406\u9435\u88fd\u88dd\u5099!
p2476
sg5
V[[DARK_RED]]You're not skilled enough to repair Iron.
p2477
sg7
VRepair.Skills.AdeptIron
p2478
ssS'792033'
p2479
(dp2480
g3
V[[GRAY]]\u6ce8\u610f: [[YELLOW]]\u6bcf\u5169\u79d2\u6e1b\u4e00\u6ef4\u8840
p2481
sg5
V[[GRAY]]NOTE: [[YELLOW]]1 Tick happens every 2 seconds
p2482
sg7
VSwords.Combat.Bleed.Note
p2483
ssS'792032'
p2484
(dp2485
g3
V[[RED]]\u66b4\u8d70\u947d\u982d\u6301\u7e8c\u6642\u9593: [[YELLOW]]{0}s
p2486
sg5
V[[RED]]Giga Drill Breaker Length: [[YELLOW]]{0}s
p2487
sg7
VExcavation.Effect.Length
p2488
ssS'791816'
p2489
(dp2490
g3
V\u79d8\u6cd5\u935b\u9020
p2491
sg5
VArcane Forging
p2492
sg7
VRepair.Effect.8
p2493
ssS'791817'
p2494
(dp2495
g3
V\u96d9\u500d\u6548\u679c
p2496
sg5
VDouble effectiveness
p2497
sg7
VRepair.Effect.5
p2498
ssS'791814'
p2499
(dp2500
g3
V[[RED]]- \u63a5\u53d7\u968a\u4f0d\u9080\u8acb
p2501
sg5
V[[RED]]- Accept party invite
p2502
sg7
VCommands.Party.Accept
p2503
ssS'792113'
p2504
(dp2505
g3
V\u5bf6\u7269\u7375\u4eba
p2506
sg5
VTreasure Hunter
p2507
sg7
VExcavation.Effect.2
p2508
ssS'791888'
p2509
(dp2510
g3
V[[RED]]**\u4f10\u6728\u5de5\u5df2\u7ed3\u675f**
p2511
sg5
V[[RED]]**Tree Feller has worn off**
p2512
sg7
VWoodcutting.Skills.TreeFeller.Off
p2513
ssS'893578'
p2514
(dp2515
g3
V\u4fee\u7406\u9ec3\u91d1 ({0}+ SKILL)
p2516
sg5
VGold Repair ({0}+ SKILL)
p2517
sg7
VRepair.Effect.10
p2518
ssS'893579'
p2519
(dp2520
g3
V\u4fee\u7406\u9435\u88fd\u5de5\u5177\u548c\u88dd\u5099
p2521
sg5
VRepair Iron Tools & Armor
p2522
sg7
VRepair.Effect.13
p2523
ssS'893577'
p2524
(dp2525
g3
V\u4fee\u7406\u91d1\u88fd\u5de5\u5177\u548c\u88dd\u5099
p2526
sg5
VRepair Gold Tools & Armor
p2527
sg7
VRepair.Effect.11
p2528
ssS'893575'
p2529
(dp2530
g3
V[[RED]]\u7206\u7834\u5c08\u5bb6\u50b7\u5bb3\u6e1b\u5c11: [[YELLOW]]{0}
p2531
sg5
V[[RED]]Demolitions Expert Damage Decrease: [[YELLOW]]{0}
p2532
sg7
VMining.Effect.Decrease
p2533
ssS'893572'
p2534
(dp2535
g3
V[[RED]]\u96d9\u500d\u6389\u843d\u6a5f\u7387: [[YELLOW]]{0}
p2536
sg5
V[[RED]]Double Drop Chance: [[YELLOW]]{0}
p2537
sg7
VWoodcutting.Ability.Chance.DDrop
p2538
ssS'893573'
p2539
(dp2540
g3
V\u4fee\u7406\u5de5\u5177\u548c\u88dd\u5099
p2541
sg5
VRepair Tools & Armor
p2542
sg7
VRepair.Effect.1
p2543
ssS'893570'
p2544
(dp2545
g3
V[[RED]]\u64ca\u843d\u5f13\u7bad\u6a5f\u7387: [[YELLOW]]{0}
p2546
sg5
V[[RED]]Arrow Deflect Chance: [[YELLOW]]{0}
p2547
sg7
VUnarmed.Ability.Chance.ArrowDeflect
p2548
ssS'791926'
p2549
(dp2550
g3
V[[GOLD]]\u4f60\u7684\u7d93\u9a57\u503c\u9396\u5b9a\u5728 {0}!
p2551
sg5
V[[GOLD]]Your XP BAR is now locked to {0}!
p2552
sg7
VCommands.xplock.locked
p2553
ssS'791927'
p2554
(dp2555
g3
V[[RED]]\u4f60\u4e0d\u5728\u968a\u4f0d\u4e2d.
p2556
sg5
V[[RED]]You are not in a party.
p2557
sg7
VCommands.Party.None
p2558
ssS'791777'
p2559
(dp2560
g3
V[[RED]]- \u5207\u63db\u7ba1\u7406\u54e1\u804a\u5929\u6a21\u5f0f
p2561
sg5
V[[RED]]- Toggle admin chat
p2562
sg7
VCommands.AdminToggle
p2563
ssS'791925'
p2564
(dp2565
g3
V[[RED]]\u9019\u68f5\u6a39\u592a\u5927\u4e86!
p2566
sg5
V[[RED]]That tree is too large!
p2567
sg7
VWoodcutting.Skills.TreeFellerThreshold
p2568
ssS'791922'
p2569
(dp2570
g3
V[[GREEN]]**\u66b4\u529b\u6253\u64ca**
p2571
sg5
V[[GREEN]]**STRUCK WITH GREAT FORCE**
p2572
sg7
VAxes.Combat.GI.Proc
p2573
ssS'791923'
p2574
(dp2575
g3
V[[GRAY]]**\u4f60\u653e\u9b06\u4e86\u4f60\u7684\u62f3\u982d**
p2576
sg5
V[[GRAY]]**YOU LOWER YOUR FISTS**
p2577
sg7
VUnarmed.Ability.Lower
p2578
ssS'791920'
p2579
(dp2580
g3
V\u6280\u80fd\u4f7f\u7528 [[GREEN]]\u555f\u52d5
p2581
sg5
VAbility use toggled [[GREEN]]on
p2582
sg7
VCommands.Ability.On
p2583
ssS'791921'
p2584
(dp2585
g3
V[[GREEN]]**\u767c\u52d5\u7da0\u5316**
p2586
sg5
V[[GREEN]]**GREEN TERRA ACTIVATED**
p2587
sg7
VHerbalism.Skills.GTe.On
p2588
ssS'3380505'
p2589
(dp2590
g3
V[[GOLD]][mcMMO] [[YELLOW]]{0}[[GRAY]]\u7121\u6cd5\u5f9e\u4f60\u9019\u5077\u53d6\u4efb\u4f55\u7684\u77e5\u8b58!
p2591
sg5
V[[GOLD]][mcMMO] [[YELLOW]]{0}[[GRAY]] was unable to steal knowledge from you!
p2592
sg7
VHardcore.Vampirism.Victim.Failure
p2593
ssS'791928'
p2594
(dp2595
g3
V[[GRAY]]**\u4f60\u653e\u4e0b\u4e86\u4f60\u7684\u92e4\u982d**
p2596
sg5
V[[GRAY]]**YOU LOWER YOUR HOE**
p2597
sg7
VHerbalism.Ability.Lower
p2598
ssS'791929'
p2599
(dp2600
g3
V[[GRAY]]\u90a3\u770b\u8d77\u4f86\u5f88\u7c21\u55ae.
p2601
sg5
V[[GRAY]]That felt easy.
p2602
sg7
VRepair.Skills.FeltEasy
p2603
ssS'3587692'
p2604
(dp2605
g3
V[[DARK_AQUA]]\u4ec0\u9ebc\u662f\u79cb\u98a8\u6383\u843d\u8449?[[YELLOW]]\u79cb\u98a8\u6383\u843d\u8449\u662f\u4e00\u500b\u88ab\u52d5\u6280\u80fd,[[YELLOW]]\u7576\u4f60\u7528\u65a7\u982d\u7834\u58de\u6a39\u8449\u6642,\u6a39\u8449\u5c07\u76f4\u63a5\u6467\u6bc0.[[YELLOW]]\u9019\u500b\u6280\u80fd\u9810\u8a2d\u5728100\u7b49\u958b\u653e.
p2606
sg5
V[[DARK_AQUA]]How does Leaf Blower work?\u005cn[[YELLOW]]Leaf Blower is a passive ability that will cause leaf\u005cn[[YELLOW]]blocks to break instantly when hit with an axe. By default,\u005cn[[YELLOW]]this ability unlocks at level 100.
p2607
sg7
VGuides.Woodcutting.Section.2
p2608
ssS'3587691'
p2609
(dp2610
g3
V[[DARK_AQUA]]\u4ec0\u9ebc\u662f\u96d9\u500d\u6389\u843d?[[YELLOW]]\u9019\u500b\u88ab\u52d5\u6280\u80fd\u53ef\u4ee5\u8b93\u4f60\u6709\u6a5f\u7387\u5728\u4f10\u6728[[YELLOW]]\u6642\u6a39\u6728\u6389\u843d\u66f4\u591a\u539f\u6728.
p2611
sg5
V[[DARK_AQUA]]How do Double Drops work?\u005cn[[YELLOW]]This passive ability gives you a chance to obtain an extra\u005cn[[YELLOW]]block for every log you chop.
p2612
sg7
VGuides.Woodcutting.Section.3
p2613
ssS'3587690'
p2614
(dp2615
g3
V[[DARK_AQUA]]\u95dc\u65bc\u4f10\u6728:[[YELLOW]]\u4f10\u6728\u5c31\u662f\u628a\u6a39\u780d\u5012.[[DARK_AQUA]]\u7372\u53d6\u7d93\u9a57:[[YELLOW]]\u7834\u58de\u6a39\u5e79\u53ef\u7372\u53d6\u7d93\u9a57.
p2616
sg5
V[[DARK_AQUA]]About Woodcutting:\u005cn[[YELLOW]]Woodcutting is all about chopping down trees.\u005cn\u005cn[[DARK_AQUA]]XP GAIN:\u005cn[[YELLOW]]XP is gained whenever you break log blocks.
p2617
sg7
VGuides.Woodcutting.Section.0
p2618
ssS'2093988'
p2619
(dp2620
g3
V[[RED]]\u6f01\u4eba\u4fbf\u7576: [[YELLOW]]\u7b49\u7d1a {0}
p2621
sg5
V[[RED]]Fisherman''s Diet: [[YELLOW]]Rank {0}
p2622
sg7
VFishing.Ability.FD
p2623
ssS'2093989'
p2624
(dp2625
g3
V[[GRAY]]\u7269\u54c1\u5df2\u56de\u6536!
p2626
sg5
V[[GRAY]]Item salvaged!
p2627
sg7
VRepair.Skills.SalvageSuccess
p2628
ssS'791750'
p2629
(dp2630
g3
V[[DARK_GRAY]]\u4f60\u7684\u72fc\u8fc5\u901f\u5730\u56de\u5230\u4e86\u4f60\u7684\u8eab\u908a...
p2631
sg5
V[[DARK_GRAY]]Your wolf scurries back to you...
p2632
sg7
VTaming.Listener.Wolf
p2633
ssS'2093980'
p2634
(dp2635
g3
V\u9396\u5b9a\u76f4\u5230\u6280\u80fd {0}+  (\u5de8\u5927\u7206\u7834)
p2636
sg5
VLOCKED UNTIL {0}+ SKILL (BIGGER BOMBS)
p2637
sg7
VMining.Ability.Locked.1
p2638
ssS'2093981'
p2639
(dp2640
g3
V\u9396\u5b9a\u76f4\u5230\u6280\u80fd {0}+  (\u6316\u7926\u7206\u767c)
p2641
sg5
VLOCKED UNTIL {0}+ SKILL (BLAST MINING)
p2642
sg7
VMining.Ability.Locked.0
p2643
ssS'2093982'
p2644
(dp2645
g3
V\u9396\u5b9a\u76f4\u5230\u6280\u80fd {0}+ (\u7206\u7834\u5c08\u5bb6)
p2646
sg5
VLOCKED UNTIL {0}+ SKILL (DEMOLITIONS EXPERTISE)
p2647
sg7
VMining.Ability.Locked.2
p2648
ssS'792054'
p2649
(dp2650
g3
V\u6e1b\u5c11\u6216\u53d6\u6d88\u6389\u843d\u50b7\u5bb3
p2651
sg5
VReduces or Negates fall damage
p2652
sg7
VAcrobatics.Effect.1
p2653
ssS'3587676'
p2654
(dp2655
g3
V\u4e0b\u6b21\u9084\u6709...
p2656
sg5
VComing soon...
p2657
sg7
VGuides.Smelting.Section.0
p2658
ssS'3790742'
p2659
(dp2660
g3
V[[RED]]- \u5275\u5efa\u65b0\u7684\u968a\u4f0d
p2661
sg5
V[[RED]]- Create a new party
p2662
sg7
VCommands.Party.1
p2663
ssS'791716'
p2664
(dp2665
g3
V[[GREEN]]**\u8ff4\u907f**
p2666
sg5
V[[GREEN]]**Dodged**
p2667
sg7
VAcrobatics.Combat.Proc
p2668
ssS'791757'
p2669
(dp2670
g3
V[[RED]]\u7da0\u5316[[GREEN]] \u5373\u5c07\u7ed3\u675f [[YELLOW]]{0}
p2671
sg5
V[[RED]]Green Terra[[GREEN]] has worn off for [[YELLOW]]{0}
p2672
sg7
VHerbalism.Skills.GTe.Other.Off
p2673
ssS'3531195'
p2674
(dp2675
g3
V[[GRAY]]\u53ec\u559a (\u99ac): \u6309\u4f4fshift\u540c\u6642\u4e26\u6309\u4f4f\u5de6\u9375 \u9084\u9700\u8981\u62ff {0} \u500b\u860b\u679c\u5728\u624b\u88e1
p2676
sg5
V[[GRAY]]COTW (Horse): Crouch and left-click with {0} Apples in hand
p2677
sg7
VTaming.Effect.20
p2678
ssS'3531194'
p2679
(dp2680
g3
V[[RED]]\u4f60\u4e0d\u80fd\u53ec\u63db\u99ac\u56e0\u70ba\u4f60\u5df2\u7d93\u53ec\u559a\u592a\u591a\u4e86.
p2681
sg5
V[[RED]]You have too many horses nearby to summon any more.
p2682
sg7
VTaming.Summon.Fail.Horse
p2683
ssS'791756'
p2684
(dp2685
g3
V[[DARK_RED]]\u4f60\u7684\u6280\u80fd\u7b49\u7d1a\u4e0d\u8db3\u4ee5\u4fee\u7406\u947d\u77f3\u88dd\u5099!
p2686
sg5
V[[DARK_RED]]You're not skilled enough to repair Diamond.
p2687
sg7
VRepair.Skills.AdeptDiamond
p2688
ssS'792053'
p2689
(dp2690
g3
V\u6f02\u4eae\u7ffb\u6efe
p2691
sg5
VGraceful Roll
p2692
sg7
VAcrobatics.Effect.2
p2693
ssS'791961'
p2694
(dp2695
g3
V\u6280\u80fd\u4f7f\u7528 [[RED]]\u95dc\u9589
p2696
sg5
VAbility use toggled [[RED]]off
p2697
sg7
VCommands.Ability.Off
p2698
ssS'791727'
p2699
(dp2700
g3
V[[YELLOW]]\u7bad\u8853\u6280\u80fd\u4e0a\u5347\u4e86 {0}. \u7e3d\u7b49\u7ea7 ({1})
p2701
sg5
V[[YELLOW]]Archery skill increased by {0}. Total ({1})
p2702
sg7
VArchery.Skillup
p2703
ssS'791788'
p2704
(dp2705
g3
V[[RED]]\u7206\u70b8\u534a\u5f91\u63d0\u5347: [[YELLOW]]+{0}
p2706
sg5
V[[RED]]Blast Radius Increase: [[YELLOW]]+{0}
p2707
sg7
VMining.Blast.Radius.Increase
p2708
ssS'2158619'
p2709
(dp2710
g3
V[[GREEN]]\u4f60\u50b3\u9001\u7684\u8a71\u8acb\u8f38\u5165[[YELLOW]]/ptp accept. [[GREEN]]\u5728[[RED]]{0} [[GREEN]]\u79d2\u5167\u5fc5\u9808\u5b8c\u6210
p2711
sg5
V[[GREEN]]To teleport, type [[YELLOW]]/ptp accept. [[GREEN]]Request expires in [[RED]]{0} [[GREEN]]seconds.
p2712
sg7
VCommands.ptp.Request2
p2713
ssS'792141'
p2714
(dp2715
g3
V\u5de8\u5927\u7206\u7834
p2716
sg5
VBigger Bombs
p2717
sg7
VMining.Effect.6
p2718
ssS'792140'
p2719
(dp2720
g3
V\u64ca\u843d\u5f13\u7bad
p2721
sg5
VArrow Deflect
p2722
sg7
VUnarmed.Effect.6
p2723
ssS'792143'
p2724
(dp2725
g3
V\u96d9\u500d\u6389\u843d\u7269\u54c1
p2726
sg5
VDouble the normal loot
p2727
sg7
VHerbalism.Effect.9
p2728
ssS'792142'
p2729
(dp2730
g3
V\u96d9\u500d\u6389\u843d (\u6240\u6709\u7684\u690d\u7269)
p2731
sg5
VDouble Drops (All Herbs)
p2732
sg7
VHerbalism.Effect.8
p2733
ssS'791747'
p2734
(dp2735
g3
V[[GRAY]]\u81ea\u52d5\u7784\u6e96\u7684\u6210\u529f\u7387: [[YELLOW]]{0}%
p2736
sg5
V[[GRAY]]AF Success Rate: [[YELLOW]]{0}%
p2737
sg7
VRepair.Arcane.Chance.Success
p2738
ssS'792147'
p2739
(dp2740
g3
V\u98df\u7528\u8fb2\u98df\u54c1\u6642\u984d\u5916\u6062\u5fa9\u98fd\u98df\u5ea6
p2741
sg5
VImproves hunger restored from farmed foods
p2742
sg7
VHerbalism.Effect.7
p2743
ssS'792146'
p2744
(dp2745
g3
V\u8fb2\u592b\u79c1\u623f\u83dc
p2746
sg5
VFarmer's Diet
p2747
sg7
VHerbalism.Effect.6
p2748
ssS'792149'
p2749
(dp2750
g3
V\u6563\u64ad\u4e0a\u5e1d\u7684\u6069\u60e0,3\u500d\u6389\u843d\u7269
p2751
sg5
VSpread the Terra, 3x Drops
p2752
sg7
VHerbalism.Effect.1
p2753
ssS'792148'
p2754
(dp2755
g3
V\u7da0\u5316 (\u4e3b\u52d5\u6280\u80fd)
p2756
sg5
VGreen Terra (ABILITY)
p2757
sg7
VHerbalism.Effect.0
p2758
ssS'791748'
p2759
(dp2760
g3
V\u6548\u679c
p2761
sg5
VEFFECTS
p2762
sg7
VEffects.Effects
p2763
ssS'792052'
p2764
(dp2765
g3
V\u5169\u500d\u7684\u7ffb\u6efe\u6548\u679c
p2766
sg5
VTwice as effective as a normal Roll
p2767
sg7
VAcrobatics.Effect.3
p2768
ssS'2195768'
p2769
(dp2770
g3
V[[RED]]\u4f60\u7121\u6cd5\u52a0\u5165\u81ea\u5df1!
p2771
sg5
V[[RED]]You can't join yourself!
p2772
sg7
VParty.Join.Self
p2773
ssS'2195761'
p2774
(dp2775
g3
V[[RED]]\u6b32\u4f7f\u7528\u5bc6\u78bc\u4fdd\u8b77\u4f60\u7684\u968a\u4f0d\uff0c\u8acb\u4f7f\u7528[[DARK_AQUA]] {0}<password>
p2776
sg5
V[[RED]]To password protect your party, use [[DARK_AQUA]]{0} <password>
p2777
sg7
VParty.Help.5
p2778
ssS'2195760'
p2779
(dp2780
g3
V[[RED]]\u66f4\u591a\u8cc7\u8a0a\u8acb\u8aee\u8a62[[DARK_AQUA]]{0} 
p2781
sg5
V[[RED]]Consult [[DARK_AQUA]]{0} [[RED]]for more information
p2782
sg7
VParty.Help.2
p2783
ssS'2195763'
p2784
(dp2785
g3
V[[RED]]\u8981\u8f49\u79fb\u4f60\u7684\u968a\u4f0d\u6240\u6709\u6b0a\uff0c\u4f7f\u7528[[DARK_AQUA]] {0} <player>
p2786
sg5
V[[RED]]To transfer ownership of your party, use [[DARK_AQUA]]{0} <player>
p2787
sg7
VParty.Help.7
p2788
ssS'2195762'
p2789
(dp2790
g3
V[[RED]]\u6b32\u9396\u5b9a\u6216\u89e3\u9396\u4f60\u7684\u968a\u4f0d\uff0c\u4f7f\u7528[[DARK_AQUA]] {0}
p2791
sg5
V[[RED]]To lock or unlock your party, use [[DARK_AQUA]]{0}
p2792
sg7
VParty.Help.4
p2793
ssS'2195765'
p2794
(dp2795
g3
V[[RED]]\u4f60\u4e0d\u80fd\u9080\u8acb\u81ea\u5df1\uff01
p2796
sg5
V[[RED]]You can't invite yourself!
p2797
sg7
VParty.Invite.Self
p2798
ssS'2195764'
p2799
(dp2800
g3
V[[RED]]\u8981\u89e3\u6563\u968a\u4f0d\uff0c\u4f7f\u7528[[DARK_AQUA]] {0}
p2801
sg5
V[[RED]]To disband your party, use [[DARK_AQUA]]{0}
p2802
sg7
VParty.Help.8
p2803
ssS'2195767'
p2804
(dp2805
g3
V\u7121
p2806
sg5
VNONE
p2807
sg7
VParty.ShareMode.None
p2808
ssS'2195766'
p2809
(dp2810
g3
V[[RED]] {0}\u4f60\u7684\u968a\u4f0d\u5df2\u7d93\u662f\u9019\u500b\u540d\u5b57\u4e86!
p2811
sg5
V[[RED]]That is already the name of your party!
p2812
sg7
VParty.Rename.Same
p2813
ssS'792051'
p2814
(dp2815
g3
V\u8ff4\u907f
p2816
sg5
VDodge
p2817
sg7
VAcrobatics.Effect.4
p2818
ssS'2768313'
p2819
(dp2820
g3
V[[DARK_RED]]\u88ab\u5288\u9871\u65ac\u64ca\u4e2d!
p2821
sg5
V[[DARK_RED]]Struck by SKULL SPLITTER!
p2822
sg7
VAxes.Combat.SS.Struck
p2823
ssS'2115558'
p2824
(dp2825
g3
V[[YELLOW]]{0}[[GREEN]] - [[GOLD]]\u6392\u540d [[WHITE]]#[[GREEN]]{1}
p2826
sg5
V[[YELLOW]]{0}[[GREEN]] - [[GOLD]]Rank [[WHITE]]#[[GREEN]]{1}
p2827
sg7
VCommands.mcrank.Skill
p2828
ssS'2115559'
p2829
(dp2830
g3
V[[RED]]\u8acb\u8f38\u5165 /{0} 
p2831
sg5
V[[RED]] Usage is /{0} ? [page]
p2832
sg7
VGuides.Usage
p2833
ssS'2115557'
p2834
(dp2835
g3
V[[GOLD]]-=[[GREEN]]{0} \u6307\u5357[[GOLD]]=-
p2836
sg5
V[[GOLD]]-=[[GREEN]]{0} Guide[[GOLD]]=-
p2837
sg7
VGuides.Header
p2838
ssS'791997'
p2839
(dp2840
g3
V\u50b7\u5bb3\u734e\u52f5
p2841
sg5
VDamage Bonus
p2842
sg7
VTaming.Effect.5
p2843
ssS'791996'
p2844
(dp2845
g3
V\u5229\u722a
p2846
sg5
VSharpened Claws
p2847
sg7
VTaming.Effect.4
p2848
ssS'791995'
p2849
(dp2850
g3
V\u4ed9\u4eba\u638c/\u5ca9\u6f3f \u6050\u61fc\u75c7, \u514d\u75ab\u6389\u5165\u50b7\u5bb3
p2851
sg5
VCactus/Lava Phobia, Fall DMG Immune
p2852
sg7
VTaming.Effect.7
p2853
ssS'791994'
p2854
(dp2855
g3
V\u5371\u6a5f\u610f\u8b58
p2856
sg5
VEnvironmentally Aware
p2857
sg7
VTaming.Effect.6
p2858
ssS'791993'
p2859
(dp2860
g3
V\u5229\u722a
p2861
sg5
VSharpened Claws
p2862
sg7
VTaming.Ability.Bonus.6
p2863
ssS'791991'
p2864
(dp2865
g3
V\u885d\u64ca\u683c\u64cb
p2866
sg5
VShock Proof
p2867
sg7
VTaming.Ability.Bonus.4
p2868
ssS'792050'
p2869
(dp2870
g3
V\u6e1b\u5c11\u4e00\u534a\u7684\u50b7\u5bb3
p2871
sg5
VReduce attack damage by half
p2872
sg7
VAcrobatics.Effect.5
p2873
ssS'791999'
p2874
(dp2875
g3
V\u6703\u5fc3\u4e00\u64ca\u4f7f\u76ee\u6a19\u6d41\u8840
p2876
sg5
VCritical Strike that applies Bleed
p2877
sg7
VTaming.Effect.3
p2878
ssS'791998'
p2879
(dp2880
g3
V\u6d41\u8840
p2881
sg5
VGore
p2882
sg7
VTaming.Effect.2
p2883
ssS'3587628'
p2884
(dp2885
g3
V[[DARK_AQUA]]\u5982\u4f55\u4f7f\u7528\u8d85\u7d1a\u788e\u77f3\u6a5f:[[YELLOW]]\u624b\u62ff\u8457\u93ac\u5b50\u9ede\u6ed1\u9f20\u53f3\u9375\u4ee5\u6e96\u5099\u597d\u958b\u555f\u6280\u80fd.[[YELLOW]]\u4e00\u65e6\u958b\u555f\u6280\u80fd\u5c07\u6709\u6578\u79d2\u7684\u6642\u9593\u53ef\u4ee5\u8b93\u4f60[[YELLOW]]\u5feb\u901f\u7834\u58de\u6307\u5b9a\u7926\u7269,\u53ea\u6709\u76f8\u5bb9\u7684\u7926\u7269\u53ef\u4ee5[[YELLOW]]\u89f8\u767c\u6280\u80fd.
p2886
sg5
V[[DARK_AQUA]]How to use Super Breaker:\u005cn[[YELLOW]]With a pickaxe in your hand, right click to ready your tool.\u005cn[[YELLOW]]Once in this state, you have about 4 seconds to make contact\u005cn[[YELLOW]]with Mining compatible materials, which will activate Super\u005cn[[YELLOW]]Breaker.
p2887
sg7
VGuides.Mining.Section.2
p2888
ssS'3587629'
p2889
(dp2890
g3
V[[DARK_AQUA]]\u4ec0\u9ebc\u662f\u7206\u7834\u6316\u6398?[[YELLOW]]\u7206\u7834\u6316\u6398\u662f\u4e00\u500b\u4e3b\u52d5\u6280\u80fd, \u51b7\u537b\u6642\u9593\u95dc\u4fc2\u5230\u4f60\u7684\u6316\u7926[[YELLOW]]\u6280\u80fd\u7b49\u7d1a. \u5b83\u53ef\u4ee5\u8b93\u4f60\u5728\u4f7f\u7528TNT\u6316\u7926\u77f3\u6709\u66f4\u591a\u798f\u5229[[YELLOW]]\u4e14\u53ef\u4ee5\u9059\u63a7\u5f15\u7206TNT. \u7206\u7834\u6316\u6398\u5206\u6210\u4e09\u90e8\u5206.[[YELLOW]]\u7b2c\u4e00\u90e8\u5206\u7a31\u70ba\u5de8\u5927\u7206\u7834, \u53ef \u4ee5\u64f4\u5927\u4f60\u7684\u7206\u7834\u7bc4\u570d.[[YELLOW]]\u7b2c\u4e8c\u90e8\u5206\u7a31\u70ba\u7206\u7834\u5c08\u5bb6, \u53ef\u4ee5\u6e1b\u514dTNT\u5c0d\u4f60\u7684\u50b7\u5bb3[[YELLOW]]\u7b2c\u4e09\u90e8\u5206\u7a31\u70ba\u7cbe\u6e96\u7206\u7834, \u589e\u52a0\u6389\u843d\u7269\u6578\u91cf, \u6e1b\u5c11\u5783\u573e\u6389[[YELLOW]]\u843d\u7269\u6578\u91cf, \u5f88\u68d2\u5427.
p2891
sg5
V[[DARK_AQUA]]How does Blast Mining work?\u005cn[[YELLOW]]Blast Mining is an ability with a cooldown tied to the Mining\u005cn[[YELLOW]]skill. It gives bonuses when mining with TNT and allows you\u005cn[[YELLOW]]to remote detonate TNT. There are three parts to Blast Mining.\u005cn[[YELLOW]]The first part is Bigger Bombs, which increases blast radius.\u005cn[[YELLOW]]The second is Demolitions Expert, which decreases damage\u005cn[[YELLOW]]from TNT explosions. The third part simply increases the\u005cn[[YELLOW]]amount of ores dropped from TNT and decreases the\u005cn[[YELLOW]]debris dropped.
p2892
sg7
VGuides.Mining.Section.5
p2893
ssS'791733'
p2894
(dp2895
g3
V[[DARK_RED]]\u4f60\u7684\u6b66\u5668\u88ab\u64ca\u843d!
p2896
sg5
V[[DARK_RED]]You have been disarmed!
p2897
sg7
VSkills.Disarmed
p2898
ssS'3633735'
p2899
(dp2900
g3
V[[RED]]\u9b54\u6cd5\u7375\u4eba\u6a5f\u7387: [[YELLOW]]{0}
p2901
sg5
V[[RED]]Magic Hunter Chance: [[YELLOW]]{0}
p2902
sg7
VFishing.Ability.TH.MagicRate
p2903
ssS'2160040'
p2904
(dp2905
g3
V\u7269\u54c1
p2906
sg5
VITEM
p2907
sg7
VParty.ShareType.Item
p2908
ssS'2160042'
p2909
(dp2910
g3
V[[GRAY]]\u7269\u54c1 [[DARK_AQUA]]({0})
p2911
sg5
V[[GRAY]]ITEM [[DARK_AQUA]]({0})
p2912
sg7
VCommands.Party.ItemShare
p2913
ssS'2160043'
p2914
(dp2915
g3
V[[GRAY]]\u968a\u4f0d {0} \u5206\u4eab\u8a2d\u5b9a\u70ba: [[DARK_AQUA]]{1}
p2916
sg5
V[[GRAY]]Party {0} sharing set to: [[DARK_AQUA]]{1}
p2917
sg7
VCommands.Party.SetSharing
p2918
ssS'3587626'
p2919
(dp2920
g3
V[[DARK_AQUA]]\u95dc\u65bc\u6316\u7926:[[YELLOW]]\u6316\u7926\u7531\u63a1\u77f3\u8207\u63a1\u7926\u6240\u7d44\u6210. \u5b83\u63d0\u4f9b\u6316\u7926\u6642[[YELLOW]]\u7684\u984d\u5916\u7926\u7269\u6389\u843d\u91cf.[[DARK_AQUA]]\u5982\u4f55\u7372\u53d6\u7d93\u9a57:[[YELLOW]]\u8981\u589e\u9032\u6316\u7926\u6280\u80fd,\u4f60\u5fc5\u9808\u7528\u93ac\u5b50\u6316\u7926.[[YELLOW]]\u53ea\u6709\u6316\u6398\u6307\u5b9a\u7926\u7269\u80fd\u589e\u52a0\u7d93\u9a57.
p2921
sg5
V[[DARK_AQUA]]About Mining:\u005cn[[YELLOW]]Mining consists of mining stone and ores. It provides bonuses\u005cn[[YELLOW]]to the amount of materials dropped while mining.\u005cn\u005cn[[DARK_AQUA]]XP GAIN:\u005cn[[YELLOW]]To gain XP in this skill, you must mine with a pickaxe in hand.\u005cn[[YELLOW]]Only certain blocks award XP.
p2922
sg7
VGuides.Mining.Section.0
p2923
ssS'3587627'
p2924
(dp2925
g3
V[[DARK_AQUA]]\u4ec0\u9ebc\u662f\u8d85\u7d1a\u788e\u77f3\u6a5f?[[YELLOW]]\u8d85\u7d1a\u788e\u77f3\u6a5f\u662f\u4e00\u500b\u9700\u8981\u51b7\u537b\u6642\u9593\u7684\u6316\u7926\u6280\u80fd.[[YELLOW]]\u5b83\u80fd\u4f7f\u4f60\u5728\u6316\u6389\u5c0d\u61c9\u7926\u77f3\u7684\u6642\u5019\u589e\u52a03\u500d\u6389\u843d\u6a5f\u7387.[[YELLOW]]\u4e26\u4e14\u5728\u6280\u80fd\u6642\u9593\u5167\u77ac\u9593\u7834\u58de\u77f3\u982d\u548c\u7926\u77f3.
p2926
sg5
V[[DARK_AQUA]]What is Super Breaker?\u005cn[[YELLOW]]Super Breaker is an ability with a cooldown tied to the Mining\u005cn[[YELLOW]]skill. It triples your chance of extra items dropping and\u005cn[[YELLOW]]enables instant break on Mining materials.
p2927
sg7
VGuides.Mining.Section.3
p2928
ssS'3587625'
p2929
(dp2930
g3
V[[DARK_AQUA]]\u76f8\u5bb9\u7684\u7926\u7269:[[YELLOW]]\u77f3\u982d, \u70ad\u7926\u8108, \u9435\u7926\u8108, \u91d1\u7926\u8108, \u947d\u77f3\u7926\u8108, \u7d05\u77f3\u7926\u8108,[[YELLOW]]\u9752\u91d1\u77f3\u7926\u8108, \u9ed1\u66dc\u77f3, \u9752\u82d4\u77f3, \u7d42\u754c\u77f3,[[YELLOW]]\u87a2\u5149\u77f3, \u9084\u6709\u5730\u7344\u77f3.
p2931
sg5
V[[DARK_AQUA]]Compatible Materials:\u005cn[[YELLOW]]Stone, Coal Ore, Iron Ore, Gold Ore, Diamond Ore, Redstone Ore,\u005cn[[YELLOW]]Lapis Ore, Obsidian, Mossy Cobblestone, Ender Stone,\u005cn[[YELLOW]]Glowstone, and Netherrack.
p2932
sg7
VGuides.Mining.Section.1
p2933
ssS'3600027'
p2934
(dp2935
g3
V[[RED]]\u79d8\u6cd5\u935b\u9020: [[YELLOW]]\u6392\u540d {0}/{1}
p2936
sg5
V[[RED]]Arcane Forging: [[YELLOW]]Rank {0}/{1}
p2937
sg7
VRepair.Arcane.Rank
p2938
ssS'3600028'
p2939
(dp2940
g3
V[[RED]]\u5bf6\u7269\u7375\u4eba\u6392\u540d: [[YELLOW]]{0}/{1}
p2941
sg5
V[[RED]]Treasure Hunter Rank: [[YELLOW]]{0}/{1}
p2942
sg7
VFishing.Ability.Rank
p2943
ssS'791732'
p2944
(dp2945
g3
V[[GREEN]]{0}[[DARK_GREEN]] \u4f7f\u7528\u4e86 [[RED]]\u72c2\u66b4!
p2946
sg5
V[[GREEN]]{0}[[DARK_GREEN]] has used [[RED]]Berserk!
p2947
sg7
VUnarmed.Skills.Berserk.Other.On
p2948
ssS'3790750'
p2949
(dp2950
g3
V[[RED]]-----[][[GREEN]]\u968a\u4f0d\u806f\u76df[[RED]][]-----
p2951
sg5
V[[RED]]-----[][[GREEN]]PARTY ALLIANCE[[RED]][]-----
p2952
sg7
VCommands.Party.Alliance.Header
p2953
ssS'3790751'
p2954
(dp2955
g3
V[[RED]]\u8b66\u544a: [[GREEN]]\u4f60\u5f9e {1} \u6536\u5230\u4e00\u500b\u548c {0} \u7d50\u76df\u7684\u9080\u8acb
p2956
sg5
V[[RED]]ALERT: [[GREEN]]You have received a party alliance invite for {0} from {1}
p2957
sg7
VCommands.Party.Alliance.Invite.0
p2958
ssS'3790752'
p2959
(dp2960
g3
V[[YELLOW]]\u8f38\u5165 [[GREEN]]/party alliance accept[[YELLOW]] \u4f86\u63a5\u53d7\u9080\u8acb
p2961
sg5
V[[YELLOW]]Type [[GREEN]]/party alliance accept[[YELLOW]] to accept the invite
p2962
sg7
VCommands.Party.Alliance.Invite.1
p2963
ssS'791857'
p2964
(dp2965
g3
V\u653b\u64ca\u602a\u7269
p2966
sg5
VAttacking Monsters
p2967
sg7
VCommands.XPGain.Axes
p2968
ssS'2456030'
p2969
(dp2970
g3
V\u589e\u52a0\u5728\u91e3\u9b5a\u6642\u4e0a\u9264\u7684\u6a5f\u7387
p2971
sg5
VImproves chance of getting a bite while fishing
p2972
sg7
VFishing.Effect.9
p2973
ssS'2115579'
p2974
(dp2975
g3
V[[RED]][mcMMO \u984d\u5916\u734e\u52f5]
p2976
sg5
V[[RED]][mcMMO Perks]
p2977
sg7
VMOTD.PerksPrefix
p2978
ssS'791845'
p2979
(dp2980
g3
V[[GRAY]]\u53ec\u559a (\u72fc): \u6309\u4f4fshift\u540c\u6642\u4e26\u6309\u4f4f\u5de6\u9375 \u9084\u9700\u8981\u62ff {0} \u6839\u9aa8\u982d\u5728\u624b\u88e1
p2981
sg5
V[[GRAY]]COTW (Wolf): Crouch and left-click with {0} Bones in hand
p2982
sg7
VTaming.Effect.15
p2983
ssS'791844'
p2984
(dp2985
g3
V[[GRAY]]\u53ec\u559a (\u5c71\u8c93): \u6309\u4f4fshift\u540c\u6642\u4e26\u6309\u4f4f\u5de6\u9375 \u9084\u9700\u8981\u62ff {0} \u689d\u9b5a\u5728\u624b\u88e1
p2986
sg5
V[[GRAY]]COTW (Ocelot): Crouch and left-click with {0} Fish in hand
p2987
sg7
VTaming.Effect.14
p2988
ssS'791847'
p2989
(dp2990
g3
V\u4e00\u5b9a\u6a5f\u7387\u4f7f\u72fc\u5728\u653b\u64ca\u6642\u6062\u5fa9\u8840\u91cf
p2991
sg5
VChance for wolves to heal on attack
p2992
sg7
VTaming.Effect.17
p2993
ssS'899366'
p2994
(dp2995
g3
V[[RED]]\u4f60\u5fc5\u9808\u9054\u5230\u7b49\u7d1a [[YELLOW]]{0}[[RED]] \u624d\u53ef\u4fee\u7406[[YELLOW]]{1}
p2996
sg5
V[[RED]]You must be level [[YELLOW]]{0}[[RED]] to repair [[YELLOW]]{1}
p2997
sg7
VRepair.Skills.Adept
p2998
ssS'791841'
p2999
(dp3000
g3
V\u7206\u70b8\u50b7\u5bb3\u6e1b\u514d
p3001
sg5
VExplosive Damage Reduction
p3002
sg7
VTaming.Effect.11
p3003
ssS'792073'
p3004
(dp3005
g3
V[[RED]]- \u5207\u63db\u968a\u4f0d\u804a\u5929
p3006
sg5
V[[RED]]- Toggle Party Chat
p3007
sg7
VCommands.Party.Toggle
p3008
ssS'3587659'
p3009
(dp3010
g3
V[[DARK_AQUA]]\u4ec0\u9ebc\u662f\u7ffb\u6efe?[[YELLOW]]\u4f60\u6709\u4e00\u5b9a\u7684\u6a5f\u7387\u53ef\u4ee5\u6e1b\u514d\u5f9e\u9ad8\u8655\u589c\u843d[[YELLOW]]\u7684\u50b7\u5bb3. \u4f60\u53ef\u4ee5\u6309\u4f4f\u6f5b\u884c\u9375(\u9810\u8a2dshift)[[YELLOW]]\u4f86\u5f97\u5230\u96d9\u500d\u7684\u7ffb\u6efe\u6a5f\u7387.[[YELLOW]]\u9019\u5c07\u89f8\u767c\u5b8c\u7f8e\u8457\u9678\u800c\u4e0d\u53ea\u662f\u55ae\u7d14\u7684\u7ffb\u6efe.[[YELLOW]]\u5b8c\u7f8e\u8457\u9678\u6548\u679c\u8207\u7ffb\u6efe\u985e\u4f3c,\u4f46\u6709\u5169\u500d[[YELLOW]]\u7684\u89f8\u767c\u6a5f\u7387\u4e14\u53ef\u6e1b\u514d\u66f4\u591a\u50b7\u5bb3.[[YELLOW]]\u7ffb\u6efe\u6a5f\u7387\u95dc\u4fc2\u5230\u4f60\u7684\u96dc\u6280\u7b49\u7d1a.
p3011
sg5
V[[DARK_AQUA]]How does Rolling work?\u005cn[[YELLOW]]You have a passive chance when you take fall damage\u005cn[[YELLOW]]to negate the damage done. You can hold the sneak button to\u005cn[[YELLOW]]double your chances during the fall.\u005cn[[YELLOW]]This triggers a Graceful Roll instead of a standard one.\u005cn[[YELLOW]]Graceful Rolls are like regular rolls but are twice as likely to\u005cn[[YELLOW]]occur and provide more damage safety than regular rolls.\u005cn[[YELLOW]]Rolling chance is tied to your skill level
p3012
sg7
VGuides.Acrobatics.Section.1
p3013
ssS'3587658'
p3014
(dp3015
g3
V[[DARK_AQUA]]\u95dc\u65bc\u96dc\u6280:[[YELLOW]]\u96dc\u6280\u53ef\u4ee5\u8b93\u4f60\u5728MMO\u88e1\u73a9\u5f97\u5f88\u512a\u96c5.[[YELLOW]]\u5b83\u53ef\u4ee5\u8b93\u4f60\u5728\u6230\u9b25\u4e2d\u53ca\u74b0\u5883\u4e2d\u53d6\u5f97\u512a\u52e2.[[DARK_AQUA]]\u7d93\u9a57\u5982\u4f55\u7372\u53d6:[[YELLOW]]\u5728\u6230\u9b25\u4e2d\u9583\u8eb2\u653b\u64ca\u6216\u5f9e\u9ad8\u8655\u589c\u843d\u5c07[[YELLOW]]\u53ef\u7372\u5f97\u7d93\u9a57.
p3016
sg5
V[[DARK_AQUA]]About Acrobatics:\u005cn[[YELLOW]]Acrobatics is the art of moving gracefully in mcMMO.\u005cn[[YELLOW]]It provides combat bonuses and environment damage bonuses.\u005cn\u005cn[[DARK_AQUA]]XP GAIN:\u005cn[[YELLOW]]To gain XP in this skill you need to perform a dodge\u005cn[[YELLOW]]in combat or survive falls from heights that damage you.
p3017
sg7
VGuides.Acrobatics.Section.0
p3018
ssS'3587657'
p3019
(dp3020
g3
V[[DARK_AQUA]]\u6316\u6398\u7684\u6ce8\u610f\u4e8b\u9805:[[YELLOW]]\u6316\u6398\u7684\u6389\u843d\u7269\u662f\u53ef\u96a8\u610f\u8abf\u6574\u7684,[[YELLOW]]\u4e0d\u540c\u4f3a\u670d\u5668\u5c07\u6709\u6240\u5dee\u7570.
p3021
sg5
V[[DARK_AQUA]]Notes about Excavation:\u005cn[[YELLOW]]Excavation drops are completely customizeable\u005cn[[YELLOW]]So results vary server to server.
p3022
sg7
VGuides.Excavation.Section.5
p3023
ssS'3587656'
p3024
(dp3025
g3
V[[DARK_AQUA]]\u4ec0\u9ebc\u662f\u7da0\u5316?[[YELLOW]]\u7da0\u5316\u662f\u4e00\u500b\u4e3b\u52d5\u6280\u80fd, \u7576\u4f60\u624b\u6301\u92e4\u982d\u6642[[YELLOW]]\u9ede\u64ca\u53f3\u9375\u53ef\u767c\u52d5\u6280\u80fd. \u7da0\u5316\u63d0\u9ad8\u4e09\u88ab\u6536\u7a6b\u7684\u6a5f\u7387. [[YELLOW]]\u540c\u6642\u4e5f\u8b93\u73a9\u5bb6\u6709\u80fd\u529b\u4f7f\u7528\u8eab\u4e0a\u7684\u7a2e\u5b50\u4f86\u8f49\u5316[[YELLOW]]\u65b9\u584a\u4e26\u8ce6\u4e88\u751f\u547d.
p3026
sg5
V[[DARK_AQUA]]How does Green Terra work?\u005cn[[YELLOW]]Green Terra is an active ability, you can right-click\u005cn[[YELLOW]]while holding a hoe to activate Green Terra.\u005cn[[YELLOW]]Green Terra grants players a chance to get 3x drops from\u005cn[[YELLOW]]harvesting plants. It also gives players the ability to\u005cn[[YELLOW]]spread life into blocks and transform them using seeds\u005cn[[YELLOW]]from your inventory.
p3027
sg7
VGuides.Herbalism.Section.2
p3028
ssS'3587655'
p3029
(dp3030
g3
V[[DARK_AQUA]]\u95dc\u65bc\u8349\u85e5\u5b78:[[YELLOW]]\u8349\u85e5\u5b78\u662f\u95dc\u65bc\u63a1\u6536\u8349\u85e5\u8207\u690d\u7269\u7684\u6280\u80fd.[[DARK_AQUA]]\u7372\u53d6\u7d93\u9a57:[[YELLOW]]\u63a1\u6536\u8349\u85e5\u6216\u690d\u7269.
p3031
sg5
V[[DARK_AQUA]]About Herbalism:\u005cn[[YELLOW]]Herbalism is about collecting herbs and plants.\u005cn\u005cn\u005cn[[DARK_AQUA]]XP GAIN:\u005cn[[YELLOW]]Collect plants and herbs.
p3032
sg7
VGuides.Herbalism.Section.0
p3033
ssS'3587654'
p3034
(dp3035
g3
V[[DARK_AQUA]]\u53ef\u4f5c\u7528\u7684\u8349\u85e5/\u690d\u7269[[YELLOW]]\u5c0f\u9ea5, \u99ac\u9234\u85af, \u80e1\u863f\u8514, \u897f\u74dc, [[YELLOW]]\u5357\u74dc, \u7518\u8517, \u53ef\u53ef\u8c46, \u82b1, \u4ed9\u4eba\u638c, \u9999\u83c7,[[YELLOW]]\u5730\u7344\u7599\u7629, \u84ee\u8449, \u8207\u85e4.
p3036
sg5
V[[DARK_AQUA]]Compatible Blocks\u005cn[[YELLOW]]Wheat, Potatoes, Carrots, Melons, \u005cn[[YELLOW]]Pumpkins, Sugar Canes, Cocoa Beans, Flowers, Cacti, Mushrooms,\u005cn[[YELLOW]]Nether Wart, Lily Pads, and Vines.
p3037
sg7
VGuides.Herbalism.Section.1
p3038
ssS'3587653'
p3039
(dp3040
g3
V[[DARK_AQUA]]\u4ec0\u9ebc\u662f\u6d77\u502b\u7684\u795d\u798f?[[YELLOW]]\u9019\u662f\u4e00\u500b\u4e3b\u52d5\u6280\u80fd,\u6709\u6a5f\u7387\u5728\u7528\u528d\u7834\u58de\u7279\u5b9a[[YELLOW]]\u65b9\u584a\u6642\u7372\u5f97\u7a00\u6709\u9053\u5177.
p3041
sg5
V[[DARK_AQUA]]How does Hylian Luck work?\u005cn[[YELLOW]]This passive ability gives you a chance to find rare items\u005cn[[YELLOW]]when certain blocks are broken with a sword.
p3042
sg7
VGuides.Herbalism.Section.6
p3043
ssS'3587652'
p3044
(dp3045
g3
V[[DARK_AQUA]]\u4ec0\u9ebc\u662f\u96d9\u500d\u6389\u843d?[[YELLOW]]\u9019\u662f\u4e00\u500b\u88ab\u52d5\u6280\u80fd\u4f7f\u73a9\u5bb6\u80fd\u52a0\u500d\u6536\u7372.
p3046
sg5
V[[DARK_AQUA]]How do Double Drops work?\u005cn[[YELLOW]]This passive ability gives players more yield from their\u005cn[[YELLOW]]harvests.
p3047
sg7
VGuides.Herbalism.Section.7
p3048
ssS'3587651'
p3049
(dp3050
g3
V[[DARK_AQUA]]\u4ec0\u9ebc\u662f\u8fb2\u592b\u79c1\u623f\u83dc?[[YELLOW]]\u9019\u662f\u4e00\u500b\u88ab\u52d5\u6280\u80fd, \u53ef\u589e\u52a0\u4e0b\u5217\u98df\u7269\u7684\u98fd\u98df\u5ea6\u56de\u5fa9 -[[YELLOW]]\u9eb5\u5305, \u9905\u4e7e, \u897f\u74dc, \u8611\u83c7\u6e6f, \u80e1\u863f\u8514, \u99ac\u9234\u85af.
p3051
sg5
V[[DARK_AQUA]]How does Farmer's Diet work?\u005cn[[YELLOW]]This passive skill increases the amount of hunger restored \u005cn[[YELLOW]]when eating Bread, Cookies, Melons, Mushroom Soup, Carrots,\u005cn[[YELLOW]]and Potatoes.
p3052
sg7
VGuides.Herbalism.Section.5
p3053
ssS'3587650'
p3054
(dp3055
g3
V[[DARK_AQUA]]\u4ec0\u9ebc\u662f\u64ca\u843d\u6b66\u5668?[[YELLOW]]\u9019\u500b\u88ab\u52d5\u6280\u80fd\u8b93\u73a9\u5bb6\u89e3\u9664\u5176\u4ed6\u73a9\u5bb6\u7684\u6b66\u88dd,[[YELLOW]]\u4f7f\u76ee\u6a19\u6240\u88dd\u5099\u7684\u7269\u54c1\u6389\u843d\u5230\u5730\u4e0a.
p3056
sg5
V[[DARK_AQUA]]How does Disarm work?\u005cn[[YELLOW]]This passive ability allows players to disarm other players,\u005cn[[YELLOW]]causing the target's equipped item to fall to the ground.
p3057
sg7
VGuides.Unarmed.Section.5
p3058
ssS'791947'
p3059
(dp3060
g3
V\u9435\u81c2\u98a8\u683c
p3061
sg5
VIron Arm Style
p3062
sg7
VUnarmed.Ability.Bonus.0
p3063
ssS'791971'
p3064
(dp3065
g3
V\u640f\u64ca
p3066
sg5
VUNARMED
p3067
sg7
VUnarmed.SkillName
p3068
ssS'791940'
p3069
(dp3070
g3
V\u7ba1\u7406\u54e1\u804a\u5929\u6a21\u5f0f [[GREEN]]\u958b\u555f
p3071
sg5
VAdmin Chat only [[GREEN]]On
p3072
sg7
VCommands.AdminChat.On
p3073
ssS'791941'
p3074
(dp3075
g3
V[[GOLD]]\u4f60\u7684\u7d93\u9a57\u503c\u73fe\u5728 [[GREEN]]\u89e3\u9664\u9396\u5b9a\u4e86[[GOLD]]!
p3076
sg5
V[[GOLD]]Your XP BAR is now [[GREEN]]UNLOCKED[[GOLD]]!
p3077
sg7
VCommands.xplock.unlocked
p3078
ssS'2190047'
p3079
(dp3080
g3
V\u4fee\u6539\u73a9\u5bb6McMMO\u7b49\u7d1a
p3081
sg5
VEdit mcMMO levels for a user
p3082
sg7
VCommands.Description.mmoedit
p3083
ssS'791942'
p3084
(dp3085
g3
V[[GREEN]]\u4f60\u7684 [[YELLOW]]\u72c2\u66b4 [[GREEN]]\u6280\u80fd\u5df2\u53ef\u4f7f\u7528!
p3086
sg5
V[[GREEN]]Your [[YELLOW]]Berserk [[GREEN]]ability is refreshed!
p3087
sg7
VUnarmed.Skills.Berserk.Refresh
p3088
ssS'2158629'
p3089
(dp3090
g3
V\u968a\u4f0d\u50b3\u9001\u8acb\u6c42\u78ba\u8a8d [[GREEN]]\u555f\u7528
p3091
sg5
VParty teleport request confirmation [[GREEN]]enabled
p3092
sg7
VCommands.ptp.AcceptAny.Enabled
p3093
ssS'2158628'
p3094
(dp3095
g3
V[[DARK_RED]]{0} \u5df2\u4e0d\u5728\u4f60\u7684\u5718\u968a
p3096
sg5
V[[DARK_RED]]{0} is not in a party
p3097
sg7
VParty.PlayerNotInParty
p3098
ssS'2158627'
p3099
(dp3100
g3
V[[DARK_GREEN]](\u958b\u555f)
p3101
sg5
V[[DARK_GREEN]](OPEN)
p3102
sg7
VParty.Status.Unlocked
p3103
ssS'2158626'
p3104
(dp3105
g3
V[[GRAY]]\u968a\u4f0d\u540d\u7a31\u5df2\u66f4\u6539\u70ba: [[WHITE]]{0}
p3106
sg5
V[[GRAY]]Party name changed to: [[WHITE]]{0}
p3107
sg7
VCommands.Party.Rename
p3108
ssS'2158625'
p3109
(dp3110
g3
V[[RED]]{0} \u5df2\u7d93\u5728\u4f60\u968a\u4f0d\u88e1\u4e86!
p3111
sg5
V[[RED]]{0} already is in your party!
p3112
sg7
VParty.Player.InSameParty
p3113
ssS'2158623'
p3114
(dp3115
g3
V[[RED]]\u968a\u4f0d\u50b3\u9001\u5df2\u6210\u529f!
p3116
sg5
V[[RED]]Party teleport request has expired!
p3117
sg7
VCommands.ptp.RequestExpired
p3118
ssS'2158622'
p3119
(dp3120
g3
V[[DARK_RED]]\u5c0d\u4f0d{0} \u5df2\u5b58\u5728!
p3121
sg5
V[[DARK_RED]]Party {0} already exists!
p3122
sg7
VCommands.Party.AlreadyExists
p3123
ssS'2158621'
p3124
(dp3125
g3
V[[GREEN]]\u968a\u4f0d\u5bc6\u78bc\u8a2d\u5b9a\u70ba {0}
p3126
sg5
V[[GREEN]]Party password set to {0}
p3127
sg7
VParty.Password.Set
p3128
ssS'2158620'
p3129
(dp3130
g3
V[[YELLOW]]{0} [[GREEN]]\u5df2\u50b3\u9001\u81f3\u4f60\u65c1\u908a.
p3131
sg5
V[[YELLOW]]{0} [[GREEN]]has requested to teleport to you.
p3132
sg7
VCommands.ptp.Request1
p3133
ssS'2190044'
p3134
(dp3135
g3
V\u66f4\u65b0\u6240\u6709McMMO\u6280\u80fd\u51b7\u537b\u6642\u9593
p3136
sg5
VRefresh all cooldowns for mcMMO
p3137
sg7
VCommands.Description.mcrefresh
p3138
ssS'2190042'
p3139
(dp3140
g3
V\u5207\u63dbmcMMO\u968a\u4f0d\u804a\u5929(\u958b/\u95dc)\u6216\u767c\u9001\u968a\u4f0d\u804a\u5929\u8a0a\u606f
p3141
sg5
VToggle mcMMO party chat on/off or send party chat messages
p3142
sg7
VCommands.Description.partychat
p3143
ssS'792152'
p3144
(dp3145
g3
V\u8d85\u7d1a\u788e\u77f3\u6a5f (\u4e3b\u52d5\u6280\u80fd)
p3146
sg5
VSuper Breaker (ABILITY)
p3147
sg7
VMining.Effect.0
p3148
ssS'2190040'
p3149
(dp3150
g3
V\u8abf\u6574mcMMO\u7d93\u9a57\u503c\u6bd4\u4f8b\u6216\u8209\u8fa6mcMMO\u7d93\u9a57\u503c\u52a0\u500d\u6d3b\u52d5
p3151
sg5
VModify the mcMMO XP rate or start an mcMMO XP event
p3152
sg7
VCommands.Description.xprate
p3153
ssS'2158658'
p3154
(dp3155
g3
V[[RED]]- \u5df2\u767c\u9001\u968a\u4f0d\u9080\u8acb
p3156
sg5
V[[RED]]- Send party invite
p3157
sg7
VCommands.Party.Invite
p3158
ssS'2158659'
p3159
(dp3160
g3
V[[RED]]\u9435\u722a\u6a5f\u7387: [[YELLOW]]{0}
p3161
sg5
V[[RED]]Iron Grip Chance: [[YELLOW]]{0}
p3162
sg7
VUnarmed.Ability.Chance.IronGrip
p3163
ssS'792040'
p3164
(dp3165
g3
V[[GREEN]]**\u767c\u52d5\u72c2\u66b4**
p3166
sg5
V[[GREEN]]**BERSERK ACTIVATED**
p3167
sg7
VUnarmed.Skills.Berserk.On
p3168
ssS'2664182'
p3169
(dp3170
g3
V[[RED]]- \u67e5\u770b\u6280\u80fd\u7684\u8a73\u7d30\u8cc7\u8a0a
p3171
sg5
V[[RED]]- View detailed information about a skill
p3172
sg7
VCommands.SkillInfo
p3173
ssS'3785670'
p3174
(dp3175
g3
V[[RED]]mcMMO \u5f97\u5206\u699c\u4e26\u672a\u555f\u7528.
p3176
sg5
V[[RED]]The mcMMO scoreboard is not active.
p3177
sg7
VCommands.Scoreboard.NoBoard
p3178
ssS'2158652'
p3179
(dp3180
g3
V[[DARK_RED]](\u53ea\u53ef\u9080\u8acb)
p3181
sg5
V[[DARK_RED]](INVITE-ONLY)
p3182
sg7
VParty.Status.Locked
p3183
ssS'2158653'
p3184
(dp3185
g3
V{0} [[GREEN]]\u96e2\u958b\u4e86\u4f60\u7684\u968a\u4f0d
p3186
sg5
V{0} [[GREEN]]has left your party
p3187
sg7
VParty.InformedOnQuit
p3188
ssS'2158651'
p3189
(dp3190
g3
V{0} [[GREEN]]\u52a0\u5165\u4e86\u4f60\u7684\u968a\u4f0d
p3191
sg5
V{0} [[GREEN]]has joined your party
p3192
sg7
VParty.InformedOnJoin
p3193
ssS'2158657'
p3194
(dp3195
g3
V[[GREEN]]\u968a\u4f0d\u5bc6\u78bc\u5df2\u522a\u9664.
p3196
sg5
V[[GREEN]]Party password has been cleared.
p3197
sg7
VParty.Password.Removed
p3198
ssS'2158654'
p3199
(dp3200
g3
V[[GRAY]]\u5275\u5efa\u7684\u968a\u4f0d\u540d\u7a31: {0}
p3201
sg5
V[[GRAY]]Created Party: {0}
p3202
sg7
VCommands.Party.Create
p3203
ssS'2158655'
p3204
(dp3205
g3
V[[GOLD]]{0} [[GREEN]]\u5c07\u968a\u4f0d\u540d\u7a31\u8a2d\u5b9a\u70ba [[WHITE]]{1}
p3206
sg5
V[[GOLD]]{0} [[GREEN]]has set the party name to [[WHITE]]{1}
p3207
sg7
VParty.InformedOnNameChange
p3208
ssS'3356094'
p3209
(dp3210
g3
V\u683c\u6a94\u6642\u53cd\u5f48{0}\u50b7\u5bb3\u503c
p3211
sg5
VReflect {0} of damage taken while blocking
p3212
sg7
VSwords.Effect.1
p3213
ssS'3380717'
p3214
(dp3215
g3
V[[GOLD]][mcMMO] \u72c0\u614b\u907a\u5931\u7387\u8b8a\u66f4\u70ba {0}.
p3216
sg5
V[[GOLD]][mcMMO] The stat loss percentage was changed to {0}.
p3217
sg7
VHardcore.DeathStatLoss.PercentageChanged
p3218
ssS'791787'
p3219
(dp3220
g3
V[[RED]]\u6b64\u73a9\u5bb6\u4e0d\u5b58\u5728
p3221
sg5
V[[RED]]That is not a valid player.
p3222
sg7
VParty.Player.Invalid
p3223
ssS'792028'
p3224
(dp3225
g3
V[[YELLOW]]\u91e3\u9b5a\u6280\u80fd\u4e0a\u5347\u4e86 {0}. \u7e3d\u7b49\u7d1a ({1})
p3226
sg5
V[[YELLOW]]Fishing skill increased by {0}. Total ({1})
p3227
sg7
VFishing.Skillup
p3228
ssS'791785'
p3229
(dp3230
g3
V[[RED]]\u4f60\u7684\u65a7\u982d\u8b8a\u6210\u4e86\u4e00\u5806\u788e\u7247\uff01
p3231
sg5
V[[RED]]YOUR AXE SPLINTERS INTO DOZENS OF PIECES!
p3232
sg7
VWoodcutting.Skills.TreeFeller.Splinter
p3233
ssS'2190048'
p3234
(dp3235
g3
V\u63a7\u5236\u5404\u7a2emcMMO\u968a\u4f0d\u8a2d\u7f6e
p3236
sg5
VControl various mcMMO party settings
p3237
sg7
VCommands.Description.party
p3238
ssS'792122'
p3239
(dp3240
g3
V[[YELLOW]]\u640f\u64ca\u6280\u80fd\u4e0a\u5347\u4e86 {0}. \u7e3d\u7b49\u7d1a ({1})
p3241
sg5
V[[YELLOW]]Unarmed skill increased by {0}. Total ({1})
p3242
sg7
VUnarmed.Skillup
p3243
ssS'3790739'
p3244
(dp3245
g3
V[[GREEN]]\u63a5\u53d7\u9080\u8acb\uff0c\u4f60\u52a0\u5165\u4e86\u968a\u4f0d {0}
p3246
sg5
V[[GREEN]]Invite Accepted. You have joined party {0}
p3247
sg7
VCommands.Party.Invite.Accepted
p3248
ssS'791869'
p3249
(dp3250
g3
V[[YELLOW]]mcMMO \u795e\u4e4b\u6a21\u5f0f\u53d6\u6d88
p3251
sg5
V[[YELLOW]]mcMMO Godmode Disabled
p3252
sg7
VCommands.GodMode.Disabled
p3253
ssS'2124948'
p3254
(dp3255
g3
V[[GREEN]]\u5728\u5168\u90e8\u7684\u6280\u80fd\u88e1\u4f60\u9084\u5dee {0} \u7d93\u9a57\u503c!
p3256
sg5
V[[GREEN]]You were awarded {0} experience in all skills!
p3257
sg7
VCommands.addxp.AwardAll
p3258
ssS'791789'
p3259
(dp3260
g3
V[[RED]]\u6b64\u73a9\u5bb6\u4e0d\u5b58\u5728\uff01
p3261
sg5
V[[RED]]Player does not exist in the database!
p3262
sg7
VCommands.DoesNotExist
p3263
ssS'2217090'
p3264
(dp3265
g3
V[[DARK_GRAY]]\u5171\u4eab\u7269\u54c1: [[GRAY]][[ITALIC]]{0}
p3266
sg5
V[[DARK_GRAY]]Sharing Items: [[GRAY]][[ITALIC]]{0}
p3267
sg7
VCommands.Party.ItemShareCategories
p3268
ssS'2217091'
p3269
(dp3270
g3
V[[GRAY]]\u968a\u4f0d\u5171\u4eab\u7684\u7269\u54c1[[GOLD]]{0} [[GRAY]] \u5df2\u7d93 [[DARK_AQUA]]{1}
p3271
sg5
V[[GRAY]]Party item sharing for [[GOLD]]{0} [[GRAY]]has been [[DARK_AQUA]]{1}
p3272
sg7
VCommands.Party.ToggleShareCategory
p3273
ssS'791979'
p3274
(dp3275
g3
V[[YELLOW]]\u8349\u85e5\u5b78\u4e0a\u5347\u4e86 {0}. \u7e3d\u7b49\u7d1a ({1})
p3276
sg5
V[[YELLOW]]Herbalism skill increased by {0}. Total ({1})
p3277
sg7
VHerbalism.Skillup
p3278
ssS'3587671'
p3279
(dp3280
g3
V[[DARK_AQUA]]\u5982\u4f55\u7528\u66b4\u8d70\u947d\u982d:[[YELLOW]]\u624b\u6301\u93df\u5b50\u4e26\u9ede\u53f3\u9375.[[YELLOW]]\u9032\u5165\u6b64\u72c0\u614b\u7d04\u80fd\u7dad\u63014\u79d2[[YELLOW]]\u4e00\u65e6\u63a5\u89f8\u5230\u76f8\u5bb9\u7684\u7269\u8cea\u4fbf\u80fd[[YELLOW]]\u89f8\u767c\u66b4\u8d70\u947d\u982d.
p3281
sg5
V[[DARK_AQUA]]How to use Giga Drill Breaker:\u005cn[[YELLOW]]With a shovel in hand right click to ready your tool.\u005cn[[YELLOW]]Once in this state you have about 4 seconds to make\u005cn[[YELLOW]]contact with Excavation compatible materials this will\u005cn[[YELLOW]]activate Giga Drill Breaker.
p3282
sg7
VGuides.Excavation.Section.2
p3283
ssS'791866'
p3284
(dp3285
g3
V[[GREEN]]{0}[[DARK_GREEN]] \u4f7f\u7528\u4e86 [[RED]]\u7da0\u5316!
p3286
sg5
V[[GREEN]]{0}[[DARK_GREEN]] has used [[RED]]Green Terra!
p3287
sg7
VHerbalism.Skills.GTe.Other.On
p3288
ssS'791743'
p3289
(dp3290
g3
V[player] <skill> <newvalue> [[RED]] - \u7de8\u8f2f\u76ee\u6a19
p3291
sg5
V[player] <skill> <newvalue> [[RED]] - Modify target
p3292
sg7
VCommands.mmoedit
p3293
ssS'792020'
p3294
(dp3295
g3
V\u6316\u7926
p3296
sg5
VMINING
p3297
sg7
VMining.SkillName
p3298
ssS'792016'
p3299
(dp3300
g3
V\u734e\u52f5 {0} \u50b7\u5bb3
p3301
sg5
VBonus {0} damage
p3302
sg7
VAxes.Ability.Bonus.1
p3303
ssS'791892'
p3304
(dp3305
g3
V[[GREEN]]**\u5b8c\u7f8e\u8457\u9678**
p3306
sg5
V[[GREEN]]**Graceful Landing**
p3307
sg7
VAcrobatics.Ability.Proc
p3308
ssS'791893'
p3309
(dp3310
g3
V[[RED]]- \u96e2\u958b\u4f60\u73fe\u5728\u7684\u968a\u4f0d
p3311
sg5
V[[RED]]- Leave your current party
p3312
sg7
VCommands.Party.Quit
p3313
ssS'3587672'
p3314
(dp3315
g3
V[[DARK_AQUA]]\u76f8\u5bb9\u7684\u7269\u8cea:[[YELLOW]]\u8349\u76ae, \u571f, \u6c99, \u9ecf\u571f, \u792b\u77f3, \u83cc\u7d72\u9ad4, \u9748\u9b42\u6c99
p3316
sg5
V[[DARK_AQUA]]Compatible Materials:\u005cn[[YELLOW]]Grass, Dirt, Sand, Clay, Gravel, Mycelium, Soul Sand
p3317
sg7
VGuides.Excavation.Section.1
p3318
ssS'791896'
p3319
(dp3320
g3
V\u7528\u8db3\u5920\u7684\u529b\u91cf\u4f86\u7a81\u7834\u88dd\u7532
p3321
sg5
VStrike with enough force to shatter armor
p3322
sg7
VAxes.Effect.7
p3323
ssS'791895'
p3324
(dp3325
g3
V[[GREEN]]{0}[[DARK_GREEN]] \u4f7f\u7528\u4e86 [[RED]]\u66b4\u8d70\u947d\u982d!
p3326
sg5
V[[GREEN]]{0}[[DARK_GREEN]] has used [[RED]]Giga Drill Breaker!
p3327
sg7
VExcavation.Skills.GigaDrillBreaker.Other.On
p3328
ssS'3587675'
p3329
(dp3330
g3
V[[DARK_AQUA]]\u7bad\u8853:[[YELLOW]]\u7bad\u8853\u662f\u7528\u5f13\u5c04\u7bad\u7684\u6280\u80fd.[[YELLOW]]\u7bad\u8853\u6709\u5404\u7a2e\u52a0\u4e58\u6548\u679c,\u5982\u52a0\u4e58\u653b\u64ca[[YELLOW]]\u6688\u7729\u5c0d\u624b\u7b49\u6548\u679c.[[YELLOW]]\u6b64\u5916\u4f60\u4e5f\u6709\u6a5f\u7387\u56de\u6536\u5df2\u7d93\u5c04\u4e2d\u6575\u4eba\u7684\u7bad[[YELLOW]] \u4ee5\u4e0a\u6a5f\u7387\u95dc\u4fc2\u5230\u7b49\u7d1a.[[DARK_AQUA]]\u7372\u53d6\u7d93\u9a57:[[YELLOW]]\u8981\u7372\u5f97\u7d93\u9a57\u5fc5\u9808\u7528\u5f13\u5c04\u4e2d\u602a\u7269\u6216\u73a9\u5bb6.
p3331
sg5
V[[DARK_AQUA]]About Archery:\u005cn[[YELLOW]]Archery is about shooting with your bow and arrow.\u005cn[[YELLOW]]It provides various combat bonuses, such as a damage boost\u005cn[[YELLOW]]that scales with your level and the ability to daze your\u005cn[[YELLOW]]opponents in PvP. In addition to this, you can retrieve\u005cn[[YELLOW]]some of your spent arrows from the corpses of your foes.\u005cn\u005cn\u005cn[[DARK_AQUA]]XP GAIN:\u005cn[[YELLOW]]To gain XP in this skill you need to shoot mobs or\u005cn[[YELLOW]]other players.
p3332
sg7
VGuides.Archery.Section.0
p3333
ssS'791898'
p3334
(dp3335
g3
V[[GREEN]]**\u555f\u52d5\u4f10\u6728\u5de5**
p3336
sg5
V[[GREEN]]**TREE FELLER ACTIVATED**
p3337
sg7
VWoodcutting.Skills.TreeFeller.On
p3338
ssS'791899'
p3339
(dp3340
g3
V\u65a7\u982d\u7cbe\u901a
p3341
sg5
VAxe Mastery
p3342
sg7
VAxes.Effect.4
p3343
ssS'3587674'
p3344
(dp3345
g3
V[[DARK_AQUA]]\u4ec0\u9ebc\u662f\u7da0\u624b\u6307(\u4f5c\u7269)?[[YELLOW]]\u9019\u662f\u4e00\u500b\u88ab\u52d5\u6280\u80fd,\u8b93\u4f5c\u7269\u5728\u63a1\u6536\u6642[[YELLOW]]\u81ea\u52d5\u7a2e\u56de\u53bb.[[YELLOW]]\u6210\u529f\u7387\u95dc\u4fc2\u5230\u4f60\u7684\u8349\u85e5\u5b78\u6280\u80fd\u7b49\u7d1a.
p3346
sg5
V[[DARK_AQUA]]How does Green Thumb (Crops) work?\u005cn[[YELLOW]]This passive ability will automatically replant crops when\u005cn[[YELLOW]]harvesting.\u005cn[[YELLOW]]Your chance of success depends on your Herbalism skill.
p3347
sg7
VGuides.Herbalism.Section.3
p3348
ssS'792138'
p3349
(dp3350
g3
V\u9435\u81c2\u98a8\u683c
p3351
sg5
VIron Arm Style
p3352
sg7
VUnarmed.Effect.4
p3353
ssS'792139'
p3354
(dp3355
g3
V\u8b93\u5f13\u7bad\u504f\u5411
p3356
sg5
VDeflect arrows
p3357
sg7
VUnarmed.Effect.7
p3358
ssS'791719'
p3359
(dp3360
g3
V[[YELLOW]]\u96dc\u6280\u7b49\u7d1a\u4e0a\u5347\u4e86{0}. \u7e3d\u7b49\u7d1a ({1})
p3361
sg5
V[[YELLOW]]Acrobatics skill increased by {0}. Total ({1})
p3362
sg7
VAcrobatics.Skillup
p3363
ssS'3587677'
p3364
(dp3365
g3
V[[DARK_AQUA]]\u4ec0\u9ebc\u662f\u4fee\u7406\u7cbe\u901a?[[YELLOW]]\u55ae\u6b21\u4fee\u5fa9\u7684\u8010\u4e45\u5ea6\u52a0\u4e58.[[YELLOW]]\u9019\u95dc\u4fc2\u5230\u4f60\u7684\u4fee\u5fa9\u7b49\u7d1a.
p3366
sg5
V[[DARK_AQUA]]How does Repair Mastery work?\u005cn[[YELLOW]]Repair Mastery increases the repair amount. The extra amount\u005cn[[YELLOW]]repaired is influenced by your Repair skill level.
p3367
sg7
VGuides.Repair.Section.2
p3368
ssS'792130'
p3369
(dp3370
g3
V[[DARK_RED]]**\u5272\u88c2\u65ac\u5df2\u7d50\u675f**
p3371
sg5
V[[RED]]**Serrated Strikes has worn off**
p3372
sg7
VSwords.Skills.SS.Off
p3373
ssS'791714'
p3374
(dp3375
g3
V\u8349\u85e5\u5b78:
p3376
sg5
VHerbalism:
p3377
sg7
VHerbalism.Listener
p3378
ssS'2456031'
p3379
(dp3380
g3
V\u5782\u91e3\u5927\u5e2b
p3381
sg5
VMaster Angler
p3382
sg7
VFishing.Effect.8
p3383
ssS'792133'
p3384
(dp3385
g3
V+50%\u50b7\u5bb3 \u80fd\u7834\u58de\u786c\u5ea6\u4f4e\u7684\u65b9\u584a
p3386
sg5
V+50% DMG, Breaks weak materials
p3387
sg7
VUnarmed.Effect.1
p3388
ssS'792134'
p3389
(dp3390
g3
V\u72c2\u66b4 (\u4e3b\u52d5\u6280\u80fd)
p3391
sg5
VBerserk (ABILITY)
p3392
sg7
VUnarmed.Effect.0
p3393
ssS'792135'
p3394
(dp3395
g3
V\u4f7f\u6575\u4eba\u624b\u4e2d\u6b66\u5668\u6389\u843d
p3396
sg5
VDrops the foes item held in hand
p3397
sg7
VUnarmed.Effect.3
p3398
ssS'792136'
p3399
(dp3400
g3
V\u64ca\u843d\u6b66\u5668 (\u50c5\u9650\u65bc\u73a9\u5bb6)
p3401
sg5
VDisarm (Players)
p3402
sg7
VUnarmed.Effect.2
p3403
ssS'792137'
p3404
(dp3405
g3
V\u4f7f\u4f60\u7684\u88dd\u7532\u96a8\u6642\u9593\u589e\u52a0\u800c\u589e\u5f37
p3406
sg5
VHardens your arm over time
p3407
sg7
VUnarmed.Effect.5
p3408
ssS'791977'
p3409
(dp3410
g3
V[[DARK_RED]]\u4f60\u7121\u6cd5\u4fee\u7406\u758a\u52a0\u7684\u7269\u54c1
p3411
sg5
V[[DARK_RED]]You can't repair stacked items.
p3412
sg7
VRepair.Skills.StackedItems
p3413
ssS'792044'
p3414
(dp3415
g3
V[[GREEN]]--\u5176\u4ed6\u6307\u4ee4--
p3416
sg5
V[[GREEN]]--OTHER COMMANDS--
p3417
sg7
VCommands.Other
p3418
ssS'2127503'
p3419
(dp3420
g3
V[[RED]]{0} \u79d2\u5f8c\u51b7\u537b\u6642\u9593\u5b8c\u7562.
p3421
sg5
V[[RED]]{0}''s cooldowns have been refreshed.
p3422
sg7
VCommands.mcrefresh.Success
p3423
ssS'2115560'
p3424
(dp3425
g3
V[[BLUE]] \u5927\u91cf\u734e\u52f5
p3426
sg5
V[[BLUE]] Rain Bonus
p3427
sg7
VFishing.Chance.Raining
p3428
ssS'2115567'
p3429
(dp3430
g3
V[[DARK_RED]]\u4f60\u9700\u8981\u66f4\u591a[[GRAY]]{0}
p3431
sg5
V[[DARK_RED]]You need more [[GRAY]]{0}
p3432
sg7
VSkills.NeedMore
p3433
ssS'3601292'
p3434
(dp3435
g3
V[[RED]]\u7206\u7834\u6316\u6398: [[YELLOW]] \u6392\u540d {0}/{1} [[GRAY]]({2})
p3436
sg5
V[[RED]]Blast Mining: [[YELLOW]] Rank {0}/{1} [[GRAY]]({2})
p3437
sg7
VMining.Blast.Rank
p3438
ssS'791739'
p3439
(dp3440
g3
V\u79cb\u98a8\u6383\u843d\u8449
p3441
sg5
VLeaf Blower
p3442
sg7
VWoodcutting.Ability.0
p3443
ssS'3785648'
p3444
(dp3445
g3
V\u7ba1\u7406\u4f60\u7684 mcMMO \u5f97\u5206\u699c
p3446
sg5
VManage your mcMMO Scoreboard
p3447
sg7
VCommands.Description.mcscoreboard
p3448
ssS'3785649'
p3449
(dp3450
g3
V\u005c  [[AQUA]]{0}[[WHITE]] - [[DARK_GREEN]] \u5df2\u53ef\u4f7f\u7528!
p3451
sg5
V\u005c  [[AQUA]]{0}[[WHITE]] - [[DARK_GREEN]]Ready!
p3452
sg7
VCommands.Cooldowns.Row.Y
p3453
ssS'3785644'
p3454
(dp3455
g3
V[[DARK_AQUA]]mcMMO \u5f97\u5206\u699c\u6703\u6301\u7e8c\u986f\u793a\u76f4\u5230\u4f60\u8f38\u5165 [[GREEN]]/mcscoreboard clear[[DARK_AQUA]].
p3456
sg5
V[[DARK_AQUA]]The mcMMO scoreboard will stay up until you use [[GREEN]]/mcscoreboard clear[[DARK_AQUA]].
p3457
sg7
VCommands.Scoreboard.Keep
p3458
ssS'3785647'
p3459
(dp3460
g3
V[[YELLOW]]mcMMO \u6392\u540d
p3461
sg5
V[[YELLOW]]mcMMO Rankings
p3462
sg7
VScoreboard.Header.PlayerRank
p3463
ssS'3399050'
p3464
(dp3465
g3
V[[RED]]\u6b63\u5728\u4f7f\u7528{0}\u516c\u5f0f
p3466
sg5
V[[RED]]Already using formula type {0}
p3467
sg7
VCommands.mcconvert.Experience.Same
p3468
ssS'3399051'
p3469
(dp3470
g3
V[[RED]]\u4e0d\u660e\u7684\u516c\u5f0f\u7a2e\u985e! \u6b63\u78ba\u7684\u7a2e\u985e\u70ba: [[GREEN]]LINEAR [[RED]]\u548c [[GREEN]]EXPONENTIAL.
p3471
sg5
V[[RED]]Unknown formula type! Valid types are: [[GREEN]]LINEAR [[RED]]and [[GREEN]]EXPONENTIAL.
p3472
sg7
VCommands.mcconvert.Experience.Invalid
p3473
ssS'3399052'
p3474
(dp3475
g3
V[[GRAY]]\u516c\u5f0f\u8f49\u63db\u5b8c\u6210; \u73fe\u5728\u958b\u59cb\u4f7f\u7528{0} XP\u66f2\u7dda.
p3476
sg5
V[[GRAY]]Formula conversion complete; now using {0} XP curve.
p3477
sg7
VCommands.mcconvert.Experience.Finish
p3478
ssS'2138158'
p3479
(dp3480
g3
V[[RED]]\u4e00\u822c\u7d93\u9a57\u52a0\u4e58: [[YELLOW]]{0}x
p3481
sg5
V[[RED]]Vanilla XP Multiplier: [[YELLOW]]{0}x
p3482
sg7
VSmelting.Ability.VanillaXPBoost
p3483
ssS'792004'
p3484
(dp3485
g3
V[[YELLOW]]--mcMMO [[BLUE]]{0}[[YELLOW]] \u6392\u884c\u699c--
p3486
sg5
V[[YELLOW]]--mcMMO [[BLUE]]{0}[[YELLOW]] Leaderboard--
p3487
sg7
VCommands.Skill.Leaderboard
p3488
ssS'792005'
p3489
(dp3490
g3
V\u4fee\u7406
p3491
sg5
VRepairing
p3492
sg7
VCommands.XPGain.Repair
p3493
ssS'792007'
p3494
(dp3495
g3
V[[RED]]\u60f3\u628a\u7d93\u9a57\u503c\u7372\u5f97\u7387\u8abf\u70ba\u9810\u8a2d\u503c\u8acb\u8f38\u5165 /xprate reset
p3496
sg5
V[[RED]]Proper usage to restore the XP rate to default is /xprate reset
p3497
sg7
VCommands.xprate.proper.1
p3498
ssS'2124978'
p3499
(dp3500
g3
V[[RED]]---[][[YELLOW]]mcMMO \u6307\u4ee4[[RED]][]---
p3501
sg5
V[[RED]]---[][[YELLOW]]mcMMO Commands[[RED]][]---
p3502
sg7
VCommands.mcc.Header
p3503
ssS'2160034'
p3504
(dp3505
g3
V[[DARK_GRAY]]\u63a5\u8fd1\u4f60 [[DARK_AQUA]]{0}[[DARK_GRAY]]/[[DARK_AQUA]]{1}
p3506
sg5
V[[DARK_GRAY]]NEAR YOU [[DARK_AQUA]]{0}[[DARK_GRAY]]/[[DARK_AQUA]]{1}
p3507
sg7
VCommands.Party.MembersNear
p3508
ssS'2160037'
p3509
(dp3510
g3
V\u96a8\u6a5f
p3511
sg5
VRANDOM
p3512
sg7
VParty.ShareMode.Random
p3513
ssS'2160036'
p3514
(dp3515
g3
V[[DARK_GRAY]]\u5206\u4eab\u6a21\u5f0f:
p3516
sg5
V[[DARK_GRAY]]SHARE MODE:
p3517
sg7
VCommands.Party.ShareMode
p3518
ssS'2160039'
p3519
(dp3520
g3
V\u5e73\u5206
p3521
sg5
VEQUAL
p3522
sg7
VParty.ShareMode.Equal
p3523
ssS'2124975'
p3524
(dp3525
g3
V[[RED]]\u90a3\u4e0d\u662f\u4e00\u500b\u53ef\u7528\u7684HUD\u985e\u578b.
p3526
sg5
V[[RED]]That is not a valid HUD type.
p3527
sg7
VCommands.mchud.Invalid
p3528
ssS'2124976'
p3529
(dp3530
g3
V[[GOLD]]\u5c0f\u6487\u6b65: \u6253 [[RED]]/mcrank[[GOLD]] \u53ef\u4ee5\u89c0\u770b\u4f60\u7684\u6392\u540d!
p3531
sg5
V[[GOLD]]Tip: Use [[RED]]/mcrank[[GOLD]] to view all of your personal rankings!
p3532
sg7
VCommands.mctop.Tip
p3533
ssS'2124977'
p3534
(dp3535
g3
V*\u63a7\u5236\u53f0*
p3536
sg5
V*Console*
p3537
sg7
VCommands.Chat.Console
p3538
ssS'2124970'
p3539
(dp3540
g3
V\u73a9\u5bb6
p3541
sg5
Vplayer
p3542
sg7
VCommands.Usage.Player
p3543
ssS'2124971'
p3544
(dp3545
g3
V[[GREEN]]{0} \u5df2\u6210\u529f\u5f9e\u6578\u64da\u88e1\u79fb\u9664!
p3546
sg5
V[[GREEN]]{0} was successfully removed from the database!
p3547
sg7
VCommands.mcremove.Success
p3548
ssS'2124973'
p3549
(dp3550
g3
V[[DARK_RED]]\u56e0\u9592\u7f6e\u904e\u4e45,\u968a\u9577\u81ea\u52d5\u8f49\u8b93.
p3551
sg5
V[[DARK_RED]]You are no longer the party leader.
p3552
sg7
VParty.Owner.NotLeader
p3553
ssS'791809'
p3554
(dp3555
g3
V[[GRAY]]**\u4f60\u653e\u4e0b\u4e86\u4f60\u7684\u93ac\u5b50**
p3556
sg5
V[[GRAY]]**YOU LOWER YOUR PICKAXE**
p3557
sg7
VMining.Ability.Lower
p3558
ssS'791808'
p3559
(dp3560
g3
V[[YELLOW]]\u6316\u6398\u6280\u80fd\u4e0a\u5347\u4e86 {0}. \u7e3d\u7b49\u7d1a ({1})
p3561
sg5
V[[YELLOW]]Excavation skill increased by {0}. Total ({1})
p3562
sg7
VExcavation.Skillup
p3563
ssS'791801'
p3564
(dp3565
g3
V\u6316\u6398:
p3566
sg5
VExcavation:
p3567
sg7
VExcavation.Listener
p3568
ssS'791803'
p3569
(dp3570
g3
V[[YELLOW]]\u99b4\u7378\u6280\u80fd\u4e0a\u5347\u4e86 {0}. \u7e3d\u7b49\u7d1a ({1})
p3571
sg5
V[[YELLOW]]Taming skill increased by {0}. Total ({1})
p3572
sg7
VTaming.Skillup
p3573
ssS'791802'
p3574
(dp3575
g3
V[[RED]]\u4f60\u4e0d\u80fd\u50b3\u9001\u81f3\u6b7b\u4ea1\u7684\u73a9\u5bb6\u65c1
p3576
sg5
V[[RED]]You can't teleport to a dead player.
p3577
sg7
VParty.Teleport.Dead
p3578
ssS'791805'
p3579
(dp3580
g3
V\u4f60\u904e\u5ea6\u75b2\u52de\u5fc5\u9808\u7b49\u5f85\u4e00\u6bb5\u6642\u9593\u5f8c\u624d\u53ef\u4f7f\u7528. [[YELLOW]]({0}s)
p3581
sg5
VYou were injured recently and must wait to use this. [[YELLOW]]({0}s)
p3582
sg7
VItem.Injured.Wait
p3583
ssS'791807'
p3584
(dp3585
g3
V[[RED]]\u72c2\u66b4\u6301\u7e8c\u6642\u9593: [[YELLOW]]{0}s
p3586
sg5
V[[RED]]Berserk Length: [[YELLOW]]{0}s
p3587
sg7
VUnarmed.Ability.Berserk.Length
p3588
ssS'791806'
p3589
(dp3590
g3
V[[RED]]- \u8acb\u95b1\u8b80\u63d2\u4ef6\u63cf\u8ff0
p3591
sg5
V[[RED]]- Read brief mod description
p3592
sg7
VCommands.ModDescription
p3593
ssS'2190025'
p3594
(dp3595
g3
V\u6a5f\u7387
p3596
sg5
Vrate
p3597
sg7
VCommands.Usage.Rate
p3598
ssS'2190027'
p3599
(dp3600
g3
V\u986f\u793amcMMO\u7684\u7c21\u8981\u8aaa\u660e
p3601
sg5
VShow a brief description of mcMMO
p3602
sg7
VCommands.Description.mcmmo
p3603
ssS'2190026'
p3604
(dp3605
g3
V\u5207\u63dbmcMMO\u7ba1\u7406\u54e1\u804a\u5929\u958b/\u95dc\u6216\u767c\u9001\u7d66\u7ba1\u7406\u54e1\u7684\u804a\u5929\u6d88\u606f
p3606
sg5
VToggle mcMMO admin chat on/off or send admin chat messages
p3607
sg7
VCommands.Description.adminchat
p3608
ssS'2190029'
p3609
(dp3610
g3
V[\u7da0\u8272]\u60a8\u6240\u6709\u7684\u6280\u80fd\u7b49\u7d1a\u88ab\u8a2d\u5b9a\u70ba{0}\uff01
p3611
sg5
V[[GREEN]]Your level in all skills was set to {0}!
p3612
sg7
VCommands.mmoedit.AllSkills.1
p3613
ssS'2190028'
p3614
(dp3615
g3
V[[RED]]\u6b63\u78ba\u7528\u6cd5\u70ba/{0}
p3616
sg5
V[[RED]]Proper usage is /{0}
p3617
sg7
VCommands.Usage.0
p3618
ssS'791955'
p3619
(dp3620
g3
V[[RED]]\u56e0\u8ddd\u96e2\u592a\u9060\u7121\u6cd5\u67e5\u770b\u90a3\u4f4d\u73a9\u5bb6!
p3621
sg5
V[[RED]]You are too far away to inspect that player!
p3622
sg7
VInspect.TooFar
p3623
ssS'893568'
p3624
(dp3625
g3
V[[RED]]\u653e\u8840\u6a5f\u7387: [[YELLOW]]{0}
p3626
sg5
V[[RED]]Bleed Chance: [[YELLOW]]{0}
p3627
sg7
VSwords.Combat.Bleed.Chance
p3628
ssS'3785663'
p3629
(dp3630
g3
V[[GREEN]]\u76ee\u524d\u7d93\u9a57\u503c
p3631
sg5
V[[GREEN]]Current XP
p3632
sg7
VScoreboard.Misc.CurrentXP
p3633
ssS'791935'
p3634
(dp3635
g3
V[mcMMO] \u968a\u4f0d\u529f\u80fd\u4e0d\u5141\u8a31\u5728\u9019\u4e16\u754c\u958b\u555f (\u8acb\u89c0\u770b\u6b0a\u9650\u8a2d\u5b9a)
p3636
sg5
V[mcMMO] Parties not permitted on this world (See Permissions)
p3637
sg7
VParty.Forbidden
p3638
ssS'791937'
p3639
(dp3640
g3
V[[GREEN]]**\u4f60\u63e1\u7dca\u4e86\u4f60\u7684\u65a7\u982d**
p3641
sg5
V[[GREEN]]**YOU READY YOUR AXE**
p3642
sg7
VAxes.Ability.Ready
p3643
ssS'791936'
p3644
(dp3645
g3
V[[RED]]**\u8d85\u7d1a\u788e\u77f3\u6a5f\u5df2\u7ed3\u675f**
p3646
sg5
V[[RED]]**Super Breaker has worn off**
p3647
sg7
VMining.Skills.SuperBreaker.Off
p3648
ssS'2137875'
p3649
(dp3650
g3
V{0} \u50b7\u5bb3\u7bc4\u570d, \u653e\u8840\u7bc4\u570d
p3651
sg5
V{0} DMG AoE, Bleed+ AoE
p3652
sg7
VSwords.Effect.3
p3653
ssS'2137874'
p3654
(dp3655
g3
V\u8ff7\u60d1\u6575\u4eba\u4e26\u9020\u6210 {0}\u9ede\u50b7\u5bb3
p3656
sg5
VDisorients foes and deals {0} DMG
p3657
sg7
VArchery.Effect.3
p3658
ssS'2137876'
p3659
(dp3660
g3
V{0} \u6d41\u8840\u9031\u671f
p3661
sg5
V{0} Tick Bleed
p3662
sg7
VSwords.Effect.5
p3663
ssS'2137879'
p3664
(dp3665
g3
V\u7206\u70b8\u50b7\u5bb3\u6e1b\u514d\u70ba 1/{0} 
p3666
sg5
VExplosives do 1/{0} normal damage
p3667
sg7
VTaming.Ability.Bonus.5
p3668
ssS'2137878'
p3669
(dp3670
g3
V1/{0} \u50b7\u5bb3/\u706b\u7130\u50b7\u5bb3
p3671
sg5
V1/{0} Damage, Fire Resistance
p3672
sg7
VTaming.Ability.Bonus.3
p3673
ssS'3864602'
p3674
(dp3675
g3
V[[DARK_GRAY]]\u540d\u7a31: [[WHITE]]{0} {1} [[DARK_GRAY]]\u7b49\u7d1a: [[DARK_AQUA]]{2}
p3676
sg5
V[[DARK_GRAY]]NAME: [[WHITE]]{0} {1} [[DARK_GRAY]]LEVEL: [[DARK_AQUA]]{2}
p3677
sg7
VCommands.Party.Status
p3678
ssS'3864603'
p3679
(dp3680
g3
V[[YELLOW]]\u968a\u4f0d\u7b49\u7d1a\u4e0a\u5347\u4e86 {0}. \u7e3d\u7b49\u7d1a ({1})
p3681
sg5
V[[YELLOW]]Party level increased by {0}. Total ({1})
p3682
sg7
VParty.LevelUp
p3683
ssS'791939'
p3684
(dp3685
g3
V[[GOLD]] mcMMO \u7d93\u9a57\u52a0\u500d\u6642\u6bb5\u958b\u59cb!
p3686
sg5
V[[GOLD]]XP EVENT FOR mcMMO HAS STARTED!
p3687
sg7
VCommands.xprate.started.0
p3688
ssS'3587688'
p3689
(dp3690
g3
V[[DARK_AQUA]]\u95dc\u65bc\u91e3\u9b5a:[[YELLOW]]\u6709\u4e86\u91e3\u9b5a\u6280\u80fd,\u91e3\u9b5a\u66f4\u6709\u8da3\u4e86![[YELLOW]]\u53ef\u4ee5\u6389\u5bf6\u7269,\u5f9e\u602a\u7269\u8eab\u4e0a\u76dc\u5bf6.[[DARK_AQUA]]\u7372\u53d6\u7d93\u9a57:[[YELLOW]]\u6293\u5230\u9b5a.
p3691
sg5
V[[DARK_AQUA]]About Fishing:\u005cn[[YELLOW]]With the Fishing skill, Fishing is exciting again!\u005cn[[YELLOW]]Find hidden treasures, and shake items off mobs.\u005cn\u005cn[[DARK_AQUA]]XP GAIN:\u005cn[[YELLOW]]Catch fish.
p3692
sg7
VGuides.Fishing.Section.0
p3693
ssS'3587689'
p3694
(dp3695
g3
V[[DARK_AQUA]]\u4ec0\u9ebc\u662f\u4f10\u6728\u5de5?[[YELLOW]]\u4f10\u6728\u5de5\u662f\u4e3b\u52d5\u6280\u80fd,\u6301\u6709\u65a7\u982d\u6642\u9ede\u53f3\u9375[[YELLOW]]\u53ef\u4ee5\u767c\u52d5.\u5c07\u5c0e\u81f4\u6574\u68f5\u6a39\u6728\u76f4\u63a5\u7834\u58de,[[YELLOW]]\u6240\u6709\u679d\u8449\u90fd\u5c07\u6389\u843d.
p3696
sg5
V[[DARK_AQUA]]How does Tree Feller work?\u005cn[[YELLOW]]Tree Feller is an active ability, you can right-click\u005cn[[YELLOW]]while holding an ax to activate Tree Feller. This will\u005cn[[YELLOW]]cause the entire tree to break instantly, dropping all\u005cn[[YELLOW]]of its logs at once.
p3697
sg7
VGuides.Woodcutting.Section.1
p3698
ssS'791931'
p3699
(dp3700
g3
V[[RED]]- \u67e5\u770b\u4f60\u7684mcMMO\u7d71\u8a08\u8a0a\u606f
p3701
sg5
V[[RED]]- View your mcMMO stats
p3702
sg7
VCommands.Stats
p3703
ssS'3587680'
p3704
(dp3705
g3
V[[DARK_AQUA]]\u4ec0\u9ebc\u662f\u56de\u6536?[[YELLOW]]\u5c07\u624b\u4e2d\u7684\u7269\u54c1\u5c0dmcMMO\u56de\u6536\u7827(\u9810\u8a2d\u91d1\u78da)[[YELLOW]]\u9ede\u64ca\u53f3\u9375. \u6703\u5c07\u7269\u54c1\u62c6\u89e3\u56de\u6240\u4f7f\u7528\u7684\u539f\u6599.[[YELLOW]]\u6ce8\u610f: \u4f60\u53ea\u80fd\u56de\u6536\u7121\u8017\u640d\u7684\u5de5\u5177\u6216\u88dd\u5099
p3706
sg5
V[[DARK_AQUA]]How does Salvage work?\u005cn[[YELLOW]]Place down a mcMMO Salvage Anvil and right-click to salvage\u005cn[[YELLOW]]the item you're currently holding.\u005cn[[YELLOW]]This will break the item apart en give back the used ingots.\u005cn[[YELLOW]]Note: You can only salvage fully repaired tools or armor.
p3707
sg7
VGuides.Repair.Section.5
p3708
ssS'3587681'
p3709
(dp3710
g3
V[[DARK_AQUA]]\u4ec0\u9ebc\u662f\u9435\u81c2?[[YELLOW]]\u9435\u81c2\u80fd\u589e\u52a0\u5f92\u624b\u653b\u64ca\u602a\u7269\u6216[[YELLOW]]\u73a9\u5bb6\u7684\u5a01\u529b.
p3711
sg5
V[[DARK_AQUA]]How does Iron Arm work?\u005cn[[YELLOW]]Iron Arm increases the damage dealt when hitting mobs or\u005cn[[YELLOW]]players with your fists.
p3712
sg7
VGuides.Unarmed.Section.2
p3713
ssS'3587682'
p3714
(dp3715
g3
V[[DARK_AQUA]]\u4ec0\u9ebc\u662f\u64ca\u843d\u5f13\u7bad?[[YELLOW]]\u64ca\u843d\u5f13\u7bad\u662f\u4e00\u500b\u88ab\u52d5\u6280\u80fd,\u8b93\u4f60\u6709\u6a5f\u7387[[YELLOW]]\u80fd\u64ca\u843d\u9ab7\u9acf\u7372\u73a9\u5bb6\u5c04\u5411\u4f60\u7684\u7bad.[[YELLOW]]\u7bad\u6703\u88ab\u64ca\u843d\u81f3\u5730\u9762.
p3716
sg5
V[[DARK_AQUA]]How does Arrow Deflect work?\u005cn[[YELLOW]]Arrow Deflect is a passive ability that gives you a chance\u005cn[[YELLOW]]to deflect arrows shot by Skeletons or other players.\u005cn[[YELLOW]]The arrow will fall harmlessly to the ground.
p3717
sg7
VGuides.Unarmed.Section.3
p3718
ssS'3587683'
p3719
(dp3720
g3
V[[DARK_AQUA]]\u640f\u64ca:[[YELLOW]]\u640f\u64ca\u8b93\u73a9\u5bb6\u5728\u4f7f\u7528\u62f3\u982d\u4f5c\u6230\u6642\u6709[[YELLOW]]\u5404\u7a2e\u52a0\u4e58\u6548\u679c.[[DARK_AQUA]]\u7d93\u9a57\u7372\u53d6:[[YELLOW]]\u5728\u7528\u624b\u653b\u64ca\u602a\u7269\u6216\u73a9\u5bb6\u6642\u53ef\u4ee5\u7372\u53d6\u7d93\u9a57.
p3721
sg5
V[[DARK_AQUA]]About Unarmed:\u005cn[[YELLOW]]Unarmed will give players various combat bonuses when using\u005cn[[YELLOW]]your fists as a weapon. \u005cn\u005cn[[DARK_AQUA]]XP GAIN:\u005cn[[YELLOW]]XP is gained based on the amount of damage dealt to mobs \u005cn[[YELLOW]]or other players when unarmed.
p3722
sg7
VGuides.Unarmed.Section.0
p3723
ssS'3587684'
p3724
(dp3725
g3
V[[DARK_AQUA]]\u4ec0\u9ebc\u662f\u72c2\u66b4?[[YELLOW]]\u72c2\u66b4\u662f\u4e3b\u52d5\u6280\u80fd,\u7a7a\u624b\u6642\u9ede\u64ca\u53f3\u9375\u767c\u52d5.[[YELLOW]]\u72c2\u66b4\u53ef\u4ee5\u52a0\u4e5850%\u5c0d\u65b9\u584a\u7684\u50b7\u5bb3,[[YELLOW]]\u4f7f\u4f60\u53ef\u4ee5\u8f15\u9b06\u7834\u58de\u8106\u5f31\u7269\u9ad4,[[YELLOW]]\u5982\u571f\u8207\u7802.
p3726
sg5
V[[DARK_AQUA]]How does Berserk work?\u005cn[[YELLOW]]Beserk is an active ability that is activated by\u005cn[[YELLOW]]right-clicking. While in Beserk mode, you deal 50% more\u005cn[[YELLOW]]damage and you can break weak materials instantly, such as\u005cn[[YELLOW]]Dirt and Grass.
p3727
sg7
VGuides.Unarmed.Section.1
p3728
ssS'3587685'
p3729
(dp3730
g3
V[[DARK_AQUA]]\u4ec0\u9ebc\u662f\u9435\u722a?[[YELLOW]]\u9435\u722a\u53ef\u4ee5\u6709\u6a5f\u7387\u4f7f\u64ca\u843d\u6b66\u5668\u7121\u6548\u5316.[[YELLOW]]\u6a5f\u7387\u95dc\u4fc2\u5230\u640f\u64ca\u6280\u80fd\u7b49\u7d1a.
p3731
sg5
V[[DARK_AQUA]]How does Iron Grip work?\u005cn[[YELLOW]]Iron Grip is a passive ability that counters disarm. As your\u005cn[[YELLOW]]unarmed level increases, the chance of preventing a disarm increases.
p3732
sg7
VGuides.Unarmed.Section.4
p3733
ssS'3917290'
p3734
(dp3735
g3
V[[RED]]-----[][[GREEN]]\u529f\u80fd[[RED]][]-----
p3736
sg5
V[[RED]]-----[][[GREEN]]FEATURES[[RED]][]-----
p3737
sg7
VCommands.Party.Features.Header
p3738
ssS'2662088'
p3739
(dp3740
g3
V[[GREEN]]\u518d\u6b21\u6309\u4e0b\u6ed1\u9f20\u53f3\u9375\u4f86\u78ba\u8a8d [[GOLD]]{0}[[GREEN]]. \u6ed1\u9f20\u5de6\u9375\u53d6\u6d88.
p3741
sg5
V[[GREEN]]Right-click again to confirm [[GOLD]]{0}[[GREEN]]. Left-click to cancel.
p3742
sg7
VSkills.ConfirmOrCancel
p3743
ssS'2190038'
p3744
(dp3745
g3
V \u6e05\u9664mcMMO\u6280\u80fd\u7b49\u7d1a\u70ba0\u6216\u8d85\u904e{0}\u500b\u6708\u672a\u767b\u5165\u7684\u7528\u6236\u8cc7\u6599.
p3746
sg5
VPurge users with no mcMMO levels and users who have not connected in over {0} months from the mcMMO database.
p3747
sg7
VCommands.Description.mcpurge
p3748
ssS'2190039'
p3749
(dp3750
g3
V\u4f7f\u7528\u53f3\u9375\u767c\u52d5mcMMO\u6280\u80fd(\u958b/\u95dc)
p3751
sg5
VToggle mcMMO abilities being readied on right-click on/off
p3752
sg7
VCommands.Description.mcability
p3753
ssS'2158663'
p3754
(dp3755
g3
V[[RED]]-----[][[GREEN]]\u968a\u4f0d[[RED]][]-----
p3756
sg5
V[[RED]]-----[][[GREEN]]PARTY[[RED]][]-----
p3757
sg7
VCommands.Party.Header
p3758
ssS'2158662'
p3759
(dp3760
g3
V[[DARK_RED]]{0} \u4e26\u4e0d\u5728\u7dda\u4e0a!
p3761
sg5
V[[DARK_RED]]{0} is not online!
p3762
sg7
VParty.NotOnline
p3763
ssS'2158660'
p3764
(dp3765
g3
V[[GRAY]]\u52a0\u5165\u7684\u968a\u4f0d: {0}
p3766
sg5
V[[GRAY]]Joined Party: {0}
p3767
sg7
VCommands.Party.Join
p3768
ssS'2158666'
p3769
(dp3770
g3
V\u968a\u4f0d\u50b3\u9001\u8acb\u6c42\u78ba\u8a8d[[RED]]\u7981\u7528
p3771
sg5
VParty teleport request confirmation [[RED]]disabled
p3772
sg7
VCommands.ptp.AcceptAny.Disabled
p3773
ssS'2158665'
p3774
(dp3775
g3
V\u5bc6\u78bc
p3776
sg5
Vpassword
p3777
sg7
VCommands.Usage.Password
p3778
ssS'2158664'
p3779
(dp3780
g3
V[[GRAY]]\u968a\u4f0d\u5df2\u89e3\u6563
p3781
sg5
V[[GRAY]]The party has been disbanded
p3782
sg7
VParty.Disband
p3783
ssS'2138171'
p3784
(dp3785
g3
V\u6d41\u80fd\u6316\u7926
p3786
sg5
VFlux Mining
p3787
sg7
VSmelting.Effect.6
p3788
ssS'2138170'
p3789
(dp3790
g3
V[[RED]]\u71c3\u71d2\u6548\u7387\u52a0\u4e58: [[YELLOW]]{0}x
p3791
sg5
V[[RED]]Fuel Efficiency Multiplier: [[YELLOW]]{0}x
p3792
sg7
VSmelting.Ability.FuelEfficiency
p3793
ssS'791718'
p3794
(dp3795
g3
V[[GREEN]]**\u767c\u52d5\u5272\u88c2\u65ac**
p3796
sg5
V[[GREEN]]**SERRATED STRIKES ACTIVATED**
p3797
sg7
VSwords.Skills.SS.On
p3798
ssS'791751'
p3799
(dp3800
g3
V[[DARK_RED]]\u4f60\u7684\u6280\u80fd\u7b49\u7d1a\u4e0d\u8db3\u4ee5\u4fee\u7406\u77f3\u982d\u88dd\u5099!
p3801
sg5
V[[DARK_RED]]You're not skilled enough to repair Stone.
p3802
sg7
VRepair.Skills.AdeptStone
p3803
ssS'791742'
p3804
(dp3805
g3
V[[GREEN]]{0}[[DARK_GREEN]]\u4f7f\u7528\u4e86 [[RED]]\u5288\u9871\u65ac!
p3806
sg5
V[[GREEN]]{0}[[DARK_GREEN]] has used [[RED]]Skull Splitter!
p3807
sg7
VAxes.Skills.SS.Other.On
p3808
ssS'791753'
p3809
(dp3810
g3
V[[GREEN]]**\u53cd\u5c04\u4e86\u6575\u4eba\u7684\u653b\u64ca**
p3811
sg5
V[[GREEN]]**COUNTER-ATTACKED**
p3812
sg7
VSwords.Combat.Countered
p3813
ssS'791752'
p3814
(dp3815
g3
V[[GREEN]]**\u99b4\u7378\u4e4b\u80fd**
p3816
sg5
V[[GREEN]]**BEAST LORE**
p3817
sg7
VCombat.BeastLore
p3818
ssS'791885'
p3819
(dp3820
g3
V[[DARK_AQUA]]{0}: [[GREEN]]{1}
p3821
sg5
V[[DARK_AQUA]]{0}: [[GREEN]]{1}
p3822
sg7
VEffects.Template
p3823
ssS'791754'
p3824
(dp3825
g3
V[[RED]]\u4f10\u6728\u5de5[[GREEN]] \u5373\u5c07\u7ed3\u675f [[YELLOW]]{0}
p3826
sg5
V[[RED]]Tree Feller[[GREEN]] has worn off for [[YELLOW]]{0}
p3827
sg7
VWoodcutting.Skills.TreeFeller.Other.Off
p3828
ssS'2195770'
p3829
(dp3830
g3
V\u50b3\u9001\u5230\u4e00\u500bmcMMO\u968a\u4f0d\u6210\u54e1\u65c1
p3831
sg5
VTeleport to an mcMMO party member
p3832
sg7
VCommands.Description.ptp
p3833
ssS'2195771'
p3834
(dp3835
g3
V\u8abf\u6574mcMMO\u5438\u8840\u6bd4\u4f8b\u6216\u5207\u63db\u5438\u8840\u6a21\u5f0f (\u958b/\u95dc)
p3836
sg5
VModify the mcMMO vampirism percentage or toggle vampirism mode on/off
p3837
sg7
VCommands.Description.vampirism
p3838
ssS'791759'
p3839
(dp3840
g3
V\u4fee\u7406\u9644\u9b54\u7269\u54c1
p3841
sg5
VRepair magic items
p3842
sg7
VRepair.Effect.9
p3843
ssS'791758'
p3844
(dp3845
g3
V[[YELLOW]]\u4fee\u7406\u6280\u80fd\u4e0a\u5347\u4e86 {0}. \u7e3d\u7b49\u7d1a ({1})
p3846
sg5
V[[YELLOW]]Repair skill increased by {0}. Total ({1})
p3847
sg7
VRepair.Skillup
p3848
ssS'791740'
p3849
(dp3850
g3
V\u6383\u9664\u8449\u5b50
p3851
sg5
VBlow away leaves
p3852
sg7
VWoodcutting.Ability.1
p3853
ssS'3633744'
p3854
(dp3855
g3
V\u9396\u5b9a\u76f4\u5230\u6280\u80fd {0}+ (\u5782\u91e3\u5927\u5e2b)
p3856
sg5
VLOCKED UNTIL {0}+ SKILL (MASTER ANGLER)
p3857
sg7
VFishing.Ability.Locked.2
p3858
ssS'791715'
p3859
(dp3860
g3
V[[RED]]\u4f60\u5df2\u88ab {0} \u8e22\u51fa\u968a\u4f0d!
p3861
sg5
V[[RED]]You were kicked from party {0}!
p3862
sg7
VCommands.Party.Kick
p3863
ssS'791741'
p3864
(dp3865
g3
V[[GREEN]]**\u6575\u4eba\u6b63\u5728\u4e0d\u65b7\u6d41\u8840**
p3866
sg5
V[[GREEN]]**ENEMY BLEEDING**
p3867
sg7
VSwords.Combat.Bleeding
p3868
ssS'3919485'
p3869
(dp3870
g3
V\u9396\u5b9a\u76f4\u5230\u6280\u80fd {0}+ (\u806f\u76df)
p3871
sg5
VLOCKED UNTIL {0}+ (ALLIANCES)
p3872
sg7
VParty.Feature.Locked.Alliance
p3873
ssS'3919484'
p3874
(dp3875
g3
V\u9396\u5b9a\u76f4\u5230\u6280\u80fd {0}+ (\u968a\u4f0d\u50b3\u9001)
p3876
sg5
VLOCKED UNTIL {0}+ (PARTY TELEPORT)
p3877
sg7
VParty.Feature.Locked.Teleport
p3878
ssS'3919487'
p3879
(dp3880
g3
V[[DARK_GRAY]]\u5df2\u89e3\u9396\u7684\u529f\u80fd: [[GRAY]][[ITALIC]]{0}
p3881
sg5
V[[DARK_GRAY]]Unlocked Features: [[GRAY]][[ITALIC]]{0}
p3882
sg7
VCommands.Party.UnlockedFeatures
p3883
ssS'3919486'
p3884
(dp3885
g3
V\u9396\u5b9a\u76f4\u5230\u6280\u80fd {0}+ (\u968a\u4f0d\u983b\u9053)
p3886
sg5
VLOCKED UNTIL {0}+ (PARTY CHAT)
p3887
sg7
VParty.Feature.Locked.Chat
p3888
ssS'3785640'
p3889
(dp3890
g3
V[[DARK_AQUA]]\u7b49\u7d1a
p3891
sg5
V[[DARK_AQUA]]Level
p3892
sg7
VScoreboard.Misc.Level
p3893
ssS'791744'
p3894
(dp3895
g3
V[[RED]]\u8d85\u7d1a\u788e\u77f3\u6a5f\u6301\u7e8c\u6642\u9593: [[YELLOW]]{0}s
p3896
sg5
V[[RED]]Super Breaker Length: [[YELLOW]]{0}s
p3897
sg7
VMining.Ability.Length
p3898
ssS'3919483'
p3899
(dp3900
g3
V\u9396\u5b9a\u76f4\u5230\u6280\u80fd {0}+ (\u7d93\u9a57\u5206\u4eab)
p3901
sg5
VLOCKED UNTIL {0}+ (XP SHARING)
p3902
sg7
VParty.Feature.Locked.XpShare
p3903
ssS'791711'
p3904
(dp3905
g3
V\u99b4\u7378, \u6216\u548c\u4f60\u7684\u72fc\u4e00\u8d77\u6230\u9b25
p3906
sg5
VAnimal Taming, or combat w/ your wolves
p3907
sg7
VCommands.XPGain.Taming
p3908
ssS'791745'
p3909
(dp3910
g3
V[[YELLOW]]--mcMMO[[BLUE]] \u6230\u9b25\u529b [[YELLOW]]\u6392\u884c\u699c--
p3911
sg5
V[[YELLOW]]--mcMMO[[BLUE]] Power Level [[YELLOW]]Leaderboard--
p3912
sg7
VCommands.PowerLevel.Leaderboard
p3913
ssS'3919488'
p3914
(dp3915
g3
V\u9396\u5b9a\u76f4\u5230\u6280\u80fd {0}+ (\u7269\u54c1\u5206\u4eab)
p3916
sg5
VLOCKED UNTIL {0}+ (ITEM SHARING)
p3917
sg7
VParty.Feature.Locked.ItemShare
p3918
ssS'791713'
p3919
(dp3920
g3
V[[DARK_GRAY]]\u7372\u5f97\u7d93\u9a57\u503c:[[WHITE]]{0}
p3921
sg5
V[[DARK_GRAY]]XP GAIN: [[WHITE]]{0}
p3922
sg7
VCommands.XPGain
p3923
ssS'791945'
p3924
(dp3925
g3
V[[RED]]\u5288\u9871\u65ac[[GREEN]] \u5373\u5c07\u7ed3\u675f [[YELLOW]]{0}
p3926
sg5
V[[RED]]Skull Splitter[[GREEN]] has worn off for [[YELLOW]]{0}
p3927
sg7
VAxes.Skills.SS.Other.Off
p3928
ssS'2260265'
p3929
(dp3930
g3
V[[DARK_GRAY]]\u7b49\u7d1a: [[GREEN]]{0}
p3931
sg5
V[[DARK_GRAY]]LVL: [[GREEN]]{0}
p3932
sg7
VEffects.Child
p3933
ssS'2260264'
p3934
(dp3935
g3
V[[GOLD]]{0} -
p3936
sg5
V[[GOLD]]{0} -
p3937
sg7
VEffects.Parent
p3938
ssS'2260267'
p3939
(dp3940
g3
V\u5f9e\u524d\u7f6e\u6280\u80fd\u7372\u53d6\u7b49\u7d1a
p3941
sg5
VGains levels from Parent Skills
p3942
sg7
VCommands.XPGain.Child
p3943
ssS'791712'
p3944
(dp3945
g3
V[[DARK_RED]]\u982d\u6688\u76ee\u7729...
p3946
sg5
V[[DARK_RED]]Touched Fuzzy. Felt Dizzy.
p3947
sg7
VCombat.TouchedFuzzy
p3948
ssS'3380654'
p3949
(dp3950
g3
V\u6b7b\u4ea1\u6280\u80fd\u61f2\u7f70
p3951
sg5
VSkill Death Penalty
p3952
sg7
VHardcore.DeathStatLoss.Name
p3953
ssS'2260263'
p3954
(dp3955
g3
V\u524d\u7f6e
p3956
sg5
VPARENTS
p3957
sg7
VSkills.Parents
p3958
ssS'2137880'
p3959
(dp3960
g3
V+{0} \u50b7\u5bb3
p3961
sg5
V+{0} Damage
p3962
sg7
VTaming.Ability.Bonus.7
p3963
ssS'2137882'
p3964
(dp3965
g3
V[[RED]]\u8fb2\u592b\u79c1\u623f\u83dc: [[YELLOW]]\u7b49\u7d1a {0}
p3966
sg5
V[[RED]]Farmer''s Diet: [[YELLOW]]Rank {0}
p3967
sg7
VHerbalism.Ability.FD
p3968
ssS'2137884'
p3969
(dp3970
g3
V\u9632\u6b62\u4f60\u7684\u6b66\u5668\u88ab\u64ca\u843d
p3971
sg5
VPrevents you from being disarmed
p3972
sg7
VUnarmed.Effect.9
p3973
ssS'2137885'
p3974
(dp3975
g3
V\u9435\u722a
p3976
sg5
VIron Grip
p3977
sg7
VUnarmed.Effect.8
p3978
ssS'791969'
p3979
(dp3980
g3
V[[DARK_RED]]\u4f60\u5df2\u7d93\u653e\u7f6e\u4e86\u4e00\u500b\u9435\u7827,\u4f60\u53ef\u4ee5\u5728\u9435\u7827\u4e0a\u4fee\u7406\u5de5\u5177\u548c\u88dd\u7532
p3981
sg5
V[[DARK_RED]]You have placed an anvil, anvils can repair tools and armor.
p3982
sg7
VRepair.Listener.Anvil
p3983
ssS'2115582'
p3984
(dp3985
g3
V\u4e0d\u5b58\u5728\u7684\u9801\u6578
p3986
sg5
VNot a valid page number!
p3987
sg7
VGuides.Page.Invalid
p3988
ssS'2115585'
p3989
(dp3990
g3
V[[RED]]\u6416\u6643\u6a5f\u7387: [[YELLOW]]{0}
p3991
sg5
V[[RED]]Shake Chance: [[YELLOW]]{0}
p3992
sg7
VFishing.Ability.Shake
p3993
ssS'2115584'
p3994
(dp3995
g3
V[[DARK_AQUA]] \u95dc\u65bc{0}\u7684\u8aaa\u660e - \u8f38\u5165 /{1} ? [\u9801\u6578]
p3996
sg5
V[[DARK_AQUA]]Guide for {0} available - type /{1} ? [page]
p3997
sg7
VGuides.Available
p3998
ssS'2115587'
p3999
(dp4000
g3
V[[GOLD]][mcMMO] \u6b63\u904b\u4f5c\u7684\u7248\u672c [[DARK_AQUA]]{0}
p4001
sg5
V[[GOLD]][mcMMO] Running version [[DARK_AQUA]]{0}
p4002
sg7
VMOTD.Version
p4003
ssS'2115586'
p4004
(dp4005
g3
V[[WHITE]]\u6392\u884c\u699c\u5916
p4006
sg5
V[[WHITE]]Unranked
p4007
sg7
VCommands.mcrank.Unranked
p4008
ssS'2115589'
p4009
(dp4010
g3
V[[GREEN]]\u4f60\u7684\u9435\u722a\u4f7f\u4f60\u7684\u6b66\u5668\u514d\u65bc\u88ab\u64ca\u843d!
p4011
sg5
V[[GREEN]]Your iron grip kept you from being disarmed!
p4012
sg7
VUnarmed.Ability.IronGrip.Defender
p4013
ssS'2115588'
p4014
(dp4015
g3
V\u9632\u5177\u7834\u58de\u8005
p4016
sg5
VArmor Impact
p4017
sg7
VAxes.Effect.6
p4018
ssS'791980'
p4019
(dp4020
g3
V[[DARK_RED]]\u6b0a\u9650\u4e0d\u8db3
p4021
sg5
V[[DARK_RED]]Insufficient permissions.
p4022
sg7
VmcMMO.NoPermission
p4023
ssS'3608228'
p4024
(dp4025
g3
V[[GRAY]]\u767c\u73fe\u5bf6\u7269\u4e86\uff01
p4026
sg5
V[[GRAY]]Treasure found!
p4027
sg7
VFishing.Ability.TH.ItemFound
p4028
ssS'792030'
p4029
(dp4030
g3
V[[GREEN]]**\u4f60\u7dca\u63e1\u8457\u4f60\u7684\u62f3\u982d**
p4031
sg5
V[[GREEN]]**YOU READY YOUR FISTS**
p4032
sg7
VUnarmed.Ability.Ready
p4033
ssS'2219960'
p4034
(dp4035
g3
V+{0} \u7926\u7269\u7522\u91cf, -{1}\u5783\u573e\u7522\u91cf, {2}x \u6389\u843d\u91cf
p4036
sg5
V+{0} ore yield, -{1} debris yield, {2}x drops
p4037
sg7
VMining.Blast.Effect
p4038
ssS'3608226'
p4039
(dp4040
g3
V[[GRAY]]\u4f60\u611f\u53d7\u5230\u9b54\u529b\u7684\u6ce2\u52d5...
p4041
sg5
V[[GRAY]]You feel a touch of magic with this catch...
p4042
sg7
VFishing.Ability.TH.MagicFound
p4043
ssS'3608227'
p4044
(dp4045
g3
V[[GRAY]]\u6536\u7a6b\u6642\u9593!!!
p4046
sg5
V[[GRAY]]BOOM TIME!!!
p4047
sg7
VFishing.Ability.TH.Boom
p4048
ss.