(dp0
S'2209178'
p1
(dp2
S'translation'
p3
V\u5207\u63db\u80fd\u529b\u901a\u77e5\u70ba [[RED]]\u95dc\u9589
p4
sS'string'
p5
VAbility notifications toggled [[RED]]off
p6
sS'context'
p7
VCommands.Notifications.Off
p8
ssS'2209179'
p9
(dp10
g3
V\u5207\u63db\u80fd\u529b\u901a\u77e5\u70ba  [[GREEN]]\u958b\u555f
p11
sg5
VAbility notifications toggled [[GREEN]]on
p12
sg7
VCommands.Notifications.On
p13
ssS'2209173'
p14
(dp15
S'translation'
p16
V[[DARK_AQUA]]\u95dc\u65bc [[YELLOW]]mcMMO[[DARK_AQUA]] \u5c08\u6848:,[[GOLD]]mcMMO\u662f\u4e00\u500b[[RED]]\u958b\u653e\u539f\u59cb\u78bc\u7684[[GOLD]] RPG \u6a21\u7d44\u59cb\u65bc2011\u5e74\u4e8c\u6708,[[GOLD]]\u5efa\u7acb\u8005 [[BLUE]]nossr50[[GOLD]]. \u65e8\u5728\u63d0\u4f9b\u4e00\u500b\u9ad8\u54c1\u8ceaRPG\u9ad4\u9a57.,[[DARK_AQUA]]\u5c0f\u6280\u5de7:,[[GOLD]] - [[GREEN]]\u8f38\u5165 [[RED]]/mcmmo help[[GREEN]] \u4ee5\u4e86\u89e3\u6240\u6709\u6307\u4ee4,[[GOLD]] - [[GREEN]]\u8f38\u5165 [[RED]]/\u6280\u80fd\u540d\u7a31 [[GREEN]]\u4ee5\u4e86\u89e3\u6280\u80fd\u7d30\u7bc0,[[DARK_AQUA]]\u958b\u767c\u8005:,[[GOLD]] - [[GREEN]]nossr50 [[BLUE]](\u8d0a\u52a9\u8005),[[GOLD]] - [[GREEN]]GJ [[BLUE]](\u5c08\u6848\u9818\u5c0e\u4eba),[[GOLD]] - [[GREEN]]NuclearW [[BLUE]](\u958b\u767c\u8005),[[GOLD]] - [[GREEN]]bm01 [[BLUE]](\u958b\u767c\u8005),[[GOLD]] - [[GREEN]]TfT_02 [[BLUE]](\u958b\u767c\u8005),[[GOLD]] - [[GREEN]]Glitchfinder [[BLUE]](\u958b\u767c\u8005),[[GOLD]] - [[GREEN]]t00thpick1 [[BLUE]](\u958b\u767c\u8005),[[DARK_AQUA]]\u5be6\u7528\u9023\u7d50:,[[GOLD]] - [[GREEN]]https://github.com/mcMMO-Dev/mcMMO/issues[[GOLD]] \u932f\u8aa4\u56de\u5831,[[GOLD]] - [[GREEN]]#mcmmo @ irc.esper.net[[GOLD]] IRC \u983b\u9053,
p17
sS'string'
p18
V[[DARK_AQUA]]About the [[YELLOW]]mcMMO[[DARK_AQUA]] Project:,[[GOLD]]mcMMO is an [[RED]]open source[[GOLD]] RPG mod created in February 2011,[[GOLD]]by [[BLUE]]nossr50[[GOLD]]. The goal is to provide a quality RPG experience.,[[DARK_AQUA]]Tips:,[[GOLD]] - [[GREEN]]Use [[RED]]/mcmmo help[[GREEN]] to see commands,[[GOLD]] - [[GREEN]]Type [[RED]]/SKILLNAME[[GREEN]] to see detailed skill info,[[DARK_AQUA]]Developers:,[[GOLD]] - [[GREEN]]nossr50 [[BLUE]](Founder),[[GOLD]] - [[GREEN]]GJ [[BLUE]](Project Lead),[[GOLD]] - [[GREEN]]NuclearW [[BLUE]](Developer),[[GOLD]] - [[GREEN]]bm01 [[BLUE]](Developer),[[GOLD]] - [[GREEN]]TfT_02 [[BLUE]](Developer),[[GOLD]] - [[GREEN]]Glitchfinder [[BLUE]](Developer),[[GOLD]] - [[GREEN]]t00thpick1 [[BLUE]](Developer),[[DARK_AQUA]]Useful Links:,[[GOLD]] - [[GREEN]]https://github.com/mcMMO-Dev/mcMMO/issues[[GOLD]] Bug Reporting,[[GOLD]] - [[GREEN]]#mcmmo @ irc.esper.net[[GOLD]] IRC Chat,
p19
sS'context'
p20
VmcMMO.Description
p21
ssS'2124980'
p22
(dp23
g3
V[[RED]]{0} \u56e0\u70ba {1} \u800c\u4fee\u6539.
p24
sg5
V[[RED]]{0} has been modified for {1}.
p25
sg7
VCommands.mmoedit.Modified.2
p26
ssS'2127503'
p27
(dp28
g3
V[[RED]]{0} \u79d2\u5f8c\u51b7\u537b\u6642\u9593\u5b8c\u7562.
p29
sg5
V[[RED]]{0}''s cooldowns have been refreshed.
p30
sg7
VCommands.mcrefresh.Success
p31
ssS'791870'
p32
(dp33
g3
V\u99b4\u7378:
p34
sg5
VTaming:
p35
sg7
VTaming.Listener
p36
ssS'791978'
p37
(dp38
g3
V[[RED]]\u4f60\u4e0d\u80fd\u53ec\u63db\u72fc\u56e0\u70ba\u4f60\u5df2\u7d93\u53ec\u559a\u592a\u591a\u4e86.
p39
sg5
V[[RED]]You have too many wolves nearby to summon any more.
p40
sg7
VTaming.Summon.Fail.Wolf
p41
ssS'791872'
p42
(dp43
g3
V\u7522\u751f\u653e\u8840\u7684\u6301\u7e8c\u50b7\u5bb3
p44
sg5
VApply a bleed DoT
p45
sg7
VSwords.Effect.7
p46
ssS'791873'
p47
(dp48
g3
V\u5272\u88c2\u65ac\u6d41\u8840\u50b7\u5bb3\u589e\u52a0
p49
sg5
VSerrated Strikes Bleed+
p50
sg7
VSwords.Effect.4
p51
ssS'3587648'
p52
(dp53
g3
V[[DARK_AQUA]]\u4ec0\u9ebc\u662f\u56de\u6536\u5f13\u7bad?[[YELLOW]]\u4f60\u6709\u6a5f\u7387\u5728\u6bba\u6b7b\u602a\u7269\u5f8c\u56de\u6536\u5c04\u51fa\u53bb\u7684\u7bad.[[YELLOW]]\u6a5f\u7387\u95dc\u4fc2\u5230\u4f60\u7684\u7bad\u8853\u7b49\u7d1a.[[YELLOW]]\u9810\u8a2d\u72c0\u614b\u4e0b,\u6bcf\u5347\u4e00\u7b49\u589e\u52a00.1%\u6a5f\u7387,[[YELLOW]]\u7b49\u7d1a\u5230\u90541000\u6642\u5c07\u6709100%\u56de\u6536\u7387.
p54
sg5
V[[DARK_AQUA]]How does Arrow Retrieval work?\u005cn[[YELLOW]]You have a passive chance to retrieve some of your arrows\u005cn[[YELLOW]]when you kill a mob with your bow.\u005cn[[YELLOW]]This chance increases as you level in Archery.\u005cn[[YELLOW]]By default, this ability increases by 0.1% per level, up to 100%\u005cn[[YELLOW]]at level 1000.
p55
sg7
VGuides.Archery.Section.3
p56
ssS'3587649'
p57
(dp58
g3
V[[DARK_AQUA]]\u4ec0\u9ebc\u662f\u6280\u8853\u5c04\u64ca?[[YELLOW]]\u6280\u8853\u5c04\u64ca\u5c07\u52a0\u4e58\u4f60\u7684\u5c04\u7bad\u57fa\u672c\u653b\u64ca\u529b.[[YELLOW]]\u52a0\u4e58\u7684\u7a0b\u5ea6\u95dc\u4fc2\u5230\u4f60\u7684\u7bad\u8853\u7b49\u7d1a.[[YELLOW]]\u9810\u8a2d\u72c0\u614b\u4e0b, \u6bcf\u534750\u7d1a\u52a0\u4e5810%\u653b\u64ca\u529b, [[YELLOW]]\u6700\u9ad8\u5230200%\u52a0\u4e58.
p59
sg5
V[[DARK_AQUA]]How does Skill Shot work?\u005cn[[YELLOW]]Skill Shot provides additional damage to your shots.\u005cn[[YELLOW]]The bonus damage from Skill Shot increases as you\u005cn[[YELLOW]]level in Archery.\u005cn[[YELLOW]]With the default settings, your archery damage increases 10%\u005cn[[YELLOW]]every 50 levels, to a maximum of 200% bonus damage.
p60
sg7
VGuides.Archery.Section.1
p61
ssS'791876'
p62
(dp63
g3
V[[GREEN]]**\u4f60\u8209\u9ad8\u4e86\u4f60\u7684\u92e4\u982d**
p64
sg5
V[[GREEN]]**YOU READY YOUR HOE**
p65
sg7
VHerbalism.Ability.Ready
p66
ssS'792058'
p67
(dp68
g3
V[[RED]]\u7da0\u5316\u6301\u7e8c\u6642\u9593: [[YELLOW]]{0}s
p69
sg5
V[[RED]]Green Terra Length: [[YELLOW]]{0}s
p70
sg7
VHerbalism.Ability.GTe.Length
p71
ssS'3587644'
p72
(dp73
g3
V[[DARK_AQUA]]\u4ec0\u9ebc\u662f\u8ff4\u907f?[[YELLOW]]\u8ff4\u907f\u662f\u6709\u6a5f\u7387\u6e1b \u514d\u5728\u6230\u9b25\u4e2d[[YELLOW]]\u6575\u4eba\u5c0d\u4f60\u7684\u50b7\u5bb3.[[YELLOW]]\u9019\u6a5f\u7387\u95dc\u4fc2\u5230\u4f60\u7684\u96dc\u6280\u7b49\u7d1a.
p74
sg5
V[[DARK_AQUA]]How does Dodge work?\u005cn[[YELLOW]]Dodge is a passive chance when you are\u005cn[[YELLOW]]injured in combat to halve the damage taken.\u005cn[[YELLOW]]It is tied to your skill level.
p75
sg7
VGuides.Acrobatics.Section.2
p76
ssS'791970'
p77
(dp78
g3
V[[DARK_RED]]{0} \u4f60\u4e0d\u5728\u4f60\u7684\u5718\u968a
p79
sg5
V[[DARK_RED]]{0} is not in your party
p80
sg7
VParty.NotInYourParty
p81
ssS'791973'
p82
(dp83
g3
V[[GREEN]]\u4f60\u5df2\u7d93\u50b3\u9001\u5230 {0}.
p84
sg5
V[[GREEN]]You have teleported to {0}.
p85
sg7
VParty.Teleport.Player
p86
ssS'3587647'
p87
(dp88
g3
V[[DARK_AQUA]]\u4ec0\u9ebc\u662f\u6688\u7729\u6548\u679c?[[YELLOW]]\u7576\u4f60\u64ca\u4e2d\u76ee\u6a19\u6642\u6709\u88ab\u52d5\u6a5f\u7387\u4f7f\u76ee\u6a19\u6688\u7729.[[YELLOW]]\u6688\u7dda\u89f8\u767c\u6642\u5c07\u5f37\u5236\u4f60\u7684\u76ee\u6a19\u5446\u6eef\u4e00\u5c0f\u6bb5\u6642\u9593.[[YELLOW]]\u6688\u7729\u6548\u679c\u6709\u52a0\u4e584\u9ede\u50b7\u5bb3(2\u5fc3).
p89
sg5
V[[DARK_AQUA]]How does Daze work?\u005cn[[YELLOW]]You have a passive chance to daze other players when\u005cn[[YELLOW]]you shoot them. When Daze triggers it forces your opponents\u005cn[[YELLOW]]to look straight up for a short duration.\u005cn[[YELLOW]]A Daze shot also deals an additional 4 damage (2 hearts).
p90
sg7
VGuides.Archery.Section.2
p91
ssS'3587640'
p92
(dp93
g3
V[[DARK_AQUA]]\u4ec0\u9ebc\u662f\u653e\u8840?[[YELLOW]]\u653e\u8840\u5c07\u9020\u6210\u6575\u4eba\u6bcf\u5169\u79d2\u9418\u53d7\u5230\u50b7\u5bb3. \u76ee\u6a19\u5c07\u6703\u4e0d \u505c\u7684\u6d41\u8840\u76f4\u5230\u6548\u679c[[YELLOW]]\u7d50\u675f, \u6216\u662f\u6b7b\u4ea1. \u653e\u8840\u7684\u6642\u9593\u96a8\u8457\u4f60\u7684\u528d\u8853\u7684\u63d0\u6607\u800c\u589e\u52a0.
p94
sg5
V[[DARK_AQUA]]How does Bleed work?\u005cn[[YELLOW]]Bleed causes enemies to take damage every two seconds. The \u005cn[[YELLOW]]target will bleed until the effect wears off, or death, \u005cn[[YELLOW]]whichever comes first.\u005cn[[YELLOW]]The duration of the bleed is increased by your sword skill.
p95
sg7
VGuides.Swords.Section.3
p96
ssS'3587641'
p97
(dp98
g3
V[[DARK_AQUA]]\u4ec0\u9ebc\u662f\u53cd\u64ca?[[YELLOW]]\u53cd\u64ca\u662f\u4e00\u500b\u4e3b\u52d5\u6280\u80fd. \u7576\u683c\u6a94\u602a\u7269\u6240\u9020\u6210\u7684\u50b7\u5bb3\u6642, \u4f60\u6709\u6a5f\u6703\u53cd\u5c04[[YELLOW]]50%\u6240\u53d7\u5230\u7684\u50b7\u5bb3.
p99
sg5
V[[DARK_AQUA]]How does Counter Attack work?\u005cn[[YELLOW]]Counter Attack is an active ability. When blocking and taking\u005cn[[YELLOW]]hits from mobs, you will have a chance to reflect 50% of \u005cn[[YELLOW]]the damage that was taken.
p100
sg7
VGuides.Swords.Section.2
p101
ssS'3587642'
p102
(dp103
g3
V[[DARK_AQUA]]\u4ec0\u9ebc\u662f\u5272\u88c2\u65ac?[[YELLOW]]\u5272\u88c2\u65ac\u662f\u4e00\u500b\u4e3b\u52d5\u6280\u80fd, \u4f60\u53ef\u4ee5\u5c07\u528d\u62ff\u518d\u624b\u4e0a\u4e26\u6309\u4e0b\u53f3\u9375\u555f\u52d5\u5b83.[[YELLOW]]\u9019\u500b\u6280\u80fd\u8b93\u4f60\u767c\u52d5\u7bc4\u570d\u653b\u64ca. \u9019\u500b\u7bc4\u570d\u6280\u80fd\u5c07\u9020\u621025%\u7684\u984d\u5916\u50b7\u5bb3,[[YELLOW]]\u4e26\u4e14\u9644\u5e36\u81f3\u5c115\u500bticks\u7684\u653e\u8840\u6548\u679c.
p104
sg5
V[[DARK_AQUA]]How does Serrated Strikes work?\u005cn[[YELLOW]]Serrated Strikes is an active ability, you can activate it by\u005cn[[YELLOW]]right-clicking with a sword. This ability allows you to deal \u005cn[[YELLOW]]an AoE (Area of Effect) hit. This AoE will do a bonus 25%\u005cn[[YELLOW]]damage and will inflict a bleed effect that lasts for 5 ticks.
p105
sg7
VGuides.Swords.Section.1
p106
ssS'3587643'
p107
(dp108
g3
V[[DARK_AQUA]]\u528d\u8853:[[YELLOW]]\u528d\u8853\u8b93\u73a9\u5bb6\u5728\u4f7f\u7528\u528d\u6230\u9b25\u6642\u7372\u5f97\u5404\u7a2e\u52a0\u4e58\u6548\u679c.[[DARK_AQUA]]\u5982\u4f55\u7372\u53d6\u7d93\u9a57:[[YELLOW]]\u8981\u7372\u53d6\u7d93\u9a57\u4f60\u5fc5\u9808\u7528\u528d\u653b\u64ca\u73a9\u5bb6\u6216\u602a\u7269.
p109
sg5
V[[DARK_AQUA]]About Swords:\u005cn[[YELLOW]]This skill awards combat bonuses to anyone fighting with a\u005cn[[YELLOW]]sword.\u005cn\u005cn[[DARK_AQUA]]XP GAIN:\u005cn[[YELLOW]]XP is gained based on the amount of damage dealt to mobs or \u005cn[[YELLOW]]other players when wielding a sword.
p110
sg7
VGuides.Swords.Section.0
p111
ssS'3993658'
p112
(dp113
g16
V[[RED]]\u4f60\u7684\u968a\u4f0d\u4e26\u6c92\u6709\u76df\u53cb.
p114
sg18
V[[RED]]Your does not have an ally.
p115
sg20
VCommands.Party.Alliance.None
p116
ssS'3993659'
p117
(dp118
g16
V[[GRAY]]\u4f60\u7684\u968a\u4f0d\u548c [[GREEN]]{0} [[GRAY]]\u7d50\u70ba\u806f\u76df
p119
sg18
V[[GRAY]]Your party is now allies with [[GREEN]]{0}
p120
sg20
VParty.Alliance.Formed
p121
ssS'791772'
p122
(dp123
g3
V[[GREEN]]{0} \u5df2\u7d93\u50b3\u9001\u5230\u4f60\u8eab\u908a.
p124
sg5
V[[GREEN]]{0} has teleported to you.
p125
sg7
VParty.Teleport.Target
p126
ssS'2195766'
p127
(dp128
g3
V[[RED]] {0}\u4f60\u7684\u968a\u4f0d\u5df2\u7d93\u662f\u9019\u500b\u540d\u5b57\u4e86!
p129
sg5
V[[RED]]That is already the name of your party!
p130
sg7
VParty.Rename.Same
p131
ssS'3993656'
p132
(dp133
g16
V[[GRAY]]\u4f60\u7684\u968a\u4f0d\u4e0d\u518d\u548c [[RED]]{0} [[GRAY]]\u806f\u76df
p134
sg18
V[[GRAY]]Your party is no longer allies with [[RED]]{0}
p135
sg20
VParty.Alliance.Disband
p136
ssS'3993657'
p137
(dp138
g16
V[[RED]]\u4f60\u7684\u968a\u4f0d\u5df2\u6709\u76df\u53cb.
p139
sg18
V[[RED]]Your party already has an ally.
p140
sg20
VCommands.Party.Alliance.AlreadyAllies
p141
ssS'893594'
p142
(dp143
g3
V[[RED]]\u53cd\u64ca\u6a5f\u7387: [[YELLOW]]{0}
p144
sg5
V[[RED]]Counter Attack Chance: [[YELLOW]]{0}
p145
sg7
VSwords.Combat.Counter.Chance
p146
ssS'893595'
p147
(dp148
g3
V[[RED]]\u64ca\u843d\u6b66\u5668\u6a5f\u7387: [[YELLOW]]{0}
p149
sg5
V[[RED]]Disarm Chance: [[YELLOW]]{0}
p150
sg7
VUnarmed.Ability.Chance.Disarm
p151
ssS'893590'
p152
(dp153
g3
V\u62ff\u8457\u9aa8\u982d\u4e26\u4f7f\u7528\u6ed1\u9f20\u53f3\u9375\u4f86\u78ba\u8a8d\u72fc\u8207\u5c71\u8c93\u7684\u72c0\u6cc1
p154
sg5
VBone-whacking inspects wolves & ocelots
p155
sg7
VTaming.Effect.1
p156
ssS'893591'
p157
(dp158
g3
V[[RED]]\u7da0\u624b\u6307\u6a5f\u7387: [[YELLOW]]{0}
p159
sg5
V[[RED]]Green Thumb Chance: [[YELLOW]]{0}
p160
sg7
VHerbalism.Ability.GTh.Chance
p161
ssS'893592'
p162
(dp163
g3
V[[RED]]\u8d85\u7d1a\u4fee\u7406\u6a5f\u7387: [[YELLOW]]{0}
p164
sg5
V[[RED]]Super Repair Chance: [[YELLOW]]{0}
p165
sg7
VRepair.Skills.Super.Chance
p166
ssS'893593'
p167
(dp168
g3
V[[RED]]\u6d41\u8840\u6a5f\u7387: [[YELLOW]]{0}
p169
sg5
V[[RED]]Gore Chance: [[YELLOW]]{0}
p170
sg7
VTaming.Combat.Chance.Gore
p171
ssS'2158634'
p172
(dp173
g3
V[[YELLOW]]\u8f38\u5165 [[GREEN]]/party accept[[YELLOW]] \u4f86\u63a5\u53d7\u9080\u8acb
p174
sg5
V[[YELLOW]]Type [[GREEN]]/party accept[[YELLOW]] to accept the invite
p175
sg7
VCommands.Party.Invite.1
p176
ssS'2158635'
p177
(dp178
g3
V[[RED]]\u518d\u51b6\u7149\u6a5f\u7387: [[YELLOW]]{0}
p179
sg5
V[[RED]]Second Smelt Chance: [[YELLOW]]{0}
p180
sg7
VSmelting.Ability.SecondSmelt
p181
ssS'2158636'
p182
(dp183
g3
V[[RED]]{0} \u4e0d\u5141\u8a31\u968a\u4f0d\u50b3\u9001.
p184
sg5
V[[RED]]{0} doesn't allow party teleportation.
p185
sg7
VParty.Teleport.Disabled
p186
ssS'2158637'
p187
(dp188
g3
V\u968a\u4f0d\u50b3\u9001 [[RED]]\u4e0d\u5141\u8a31
p189
sg5
VParty teleporting [[RED]]disabled
p190
sg7
VCommands.ptp.Disabled
p191
ssS'792012'
p192
(dp193
g3
V\u5c0d\u7121\u88dd\u7532\u6575\u4eba\u984d\u5916\u9020\u6210 {0} \u50b7\u5bb3
p194
sg5
VDeal {0} Bonus DMG to unarmored foes
p195
sg7
VAxes.Ability.Bonus.5
p196
ssS'2158631'
p197
(dp198
g3
V\u968a\u4f0d\u50b3\u9001 [[GREEN]]\u5141\u8a31
p199
sg5
VParty teleporting [[GREEN]]enabled
p200
sg7
VCommands.ptp.Enabled
p201
ssS'2158632'
p202
(dp203
g3
V[[RED]]\u4f60\u73fe\u5728\u4e0d\u53ef\u4ee5\u50b3\u9001
p204
sg5
V[[RED]]You have no teleport requests at this time
p205
sg7
VCommands.ptp.NoRequests
p206
ssS'791846'
p207
(dp208
g3
V\u5feb\u9910\u670d\u52d9
p209
sg5
VFast Food Service
p210
sg7
VTaming.Effect.16
p211
ssS'791904'
p212
(dp213
g3
V\u5c0d\u7121\u88dd\u7532\u6575\u4eba\u9020\u6210\u66f4\u591a\u50b7\u5bb3
p214
sg5
VDeal bonus damage to unarmored foes
p215
sg7
VAxes.Effect.9
p216
ssS'791750'
p217
(dp218
g3
V[[DARK_GRAY]]\u4f60\u7684\u72fc\u8fc5\u901f\u5730\u56de\u5230\u4e86\u4f60\u7684\u8eab\u908a...
p219
sg5
V[[DARK_GRAY]]Your wolf scurries back to you...
p220
sg7
VTaming.Listener.Wolf
p221
ssS'792011'
p222
(dp223
g3
V\u5f37\u529b\u653b\u64ca
p224
sg5
VGreater Impact
p225
sg7
VAxes.Ability.Bonus.4
p226
ssS'792061'
p227
(dp228
g3
V**\u7ffb\u6efe**
p229
sg5
V**Rolled**
p230
sg7
VAcrobatics.Roll.Text
p231
ssS'791840'
p232
(dp233
g3
V\u885d\u64ca\u683c\u64cb
p234
sg5
VShock Proof
p235
sg7
VTaming.Effect.10
p236
ssS'2124974'
p237
(dp238
g3
V[[GREEN]]{0} \u6210\u70ba\u65b0\u968a\u9577.
p239
sg5
V[[GREEN]]{0} is the new party leader.
p240
sg7
VParty.Owner.New
p241
ssS'792037'
p242
(dp243
g3
V\u65a7\u6280:
p244
sg5
VAxes:
p245
sg7
VAxes.Listener
p246
ssS'4083019'
p247
(dp248
S'translation'
p249
V[[DARK_AQUA]]\u95dc\u65bc\u934a\u91d1\u8853:\u005cn[[YELLOW]]\u934a\u91d1\u8853\u5c31\u662f\u91c0\u9020\u85e5\u6c34.\u005cn[[YELLOW]]\u934a\u91d1\u8853\u80fd\u52a0\u5feb\u91c0\u9020\u6642\u9593, \u4ee5\u53ca\u7372\u5f97\u984d\u5916(\u4e4b\u524d\u7684)\u7121\u6cd5\u88ab\u53d6\u5f97\u7684\u85e5\u6c34.\u005cn[[DARK_AQUA]]\u5982\u4f55\u7372\u53d6\u7d93\u9a57:\u005cn[[YELLOW]]\u5982\u6b32\u7372\u5f97\u7d93\u9a57\u503c\u5c31\u662f\u91c0\u9020\u85e5\u6c34.
p250
sS'string'
p251
V[[DARK_AQUA]]About Alchemy:\u005cn[[YELLOW]]Alchemy is about brewing potions.\u005cn[[YELLOW]]It provides a speed increase in the potion brew time, as well\u005cn[[YELLOW]]as the addition of new (previously) unobtainable potions.\u005cn\u005cn\u005cn[[DARK_AQUA]]XP GAIN:\u005cn[[YELLOW]]To gain XP in this skill you need to brew potions.
p252
sS'context'
p253
VGuides.Alchemy.Section.0
p254
ssS'4083018'
p255
(dp256
g249
V[[DARK_AQUA]]\u8abf\u914d\u7b2c2\u968e\u6bb5:\u005cn[[YELLOW]]\u80e1\u863f\u8514(Carrot), \u53f2\u840a\u59c6\u7403(Slimeball)\u005cn[[DARK_AQUA]]\u8abf\u914d\u7b2c3\u968e\u6bb5:\u005cn[[YELLOW]]\u77f3\u82f1(Quartz), \u7d05\u8611\u83c7(Red Mushroom)\u005cn[[DARK_AQUA]]\u8abf\u914d\u7b2c4\u968e\u6bb5:\u005cn[[YELLOW]]\u860b\u679c(Apple), \u8150\u8089(Rotten Flesh)
p257
sg251
V[[DARK_AQUA]]Concotions tier 2 ingredients:\u005cn[[YELLOW]]Carrot, Slimeball\u005cn\u005cn[[DARK_AQUA]]Concotions tier 3 ingredients:\u005cn[[YELLOW]]Quartz, Red Mushroom\u005cn\u005cn[[DARK_AQUA]]Concotions tier 4 ingredients:\u005cn[[YELLOW]]Apple, Rotten Flesh
p258
sg253
VGuides.Alchemy.Section.4
p259
ssS'792036'
p260
(dp261
g3
V[[GREEN]]**\u6d41\u8840**
p262
sg5
V[[GREEN]]**GORED**
p263
sg7
VCombat.Gore
p264
ssS'2649404'
p265
(dp266
g3
V[[RED]]\u51b0\u91e3: \u5728\u51b0\u4e0a\u91e3\u9b5a
p267
sg5
V[[RED]]Ice Fishing: Go fishing in ice
p268
sg7
VFishing.Ability.IceFishing
p269
ssS'2093978'
p270
(dp271
g3
V[[RED]]\u7da0\u624b\u6307\u968e\u6bb5: [[YELLOW]]\u4f5c\u7269\u6210\u9577\u81f3\u968e\u6bb5 {0}
p272
sg5
V[[RED]]Green Thumb Stage: [[YELLOW]] Crops grow in stage {0}
p273
sg7
VHerbalism.Ability.GTh.Stage
p274
ssS'2649406'
p275
(dp276
g3
V\u5141\u8a31\u4f60\u5728\u51b0\u5929\u96ea\u5730\u88e1\u91e3\u9b5a
p277
sg5
VAllows you to fish in icy biomes
p278
sg7
VFishing.Effect.11
p279
ssS'2649407'
p280
(dp281
g3
V\u51b0\u91e3
p282
sg5
VIce Fishing
p283
sg7
VFishing.Effect.10
p284
ssS'2649400'
p285
(dp286
g3
V[[RED]]\u4f7f\u7528 [[DARK_AQUA]]{0} [[RED]]\u4f86\u555f\u7528\u548c\u968a\u54e1\u5206\u4eab\u7d93\u9a57
p287
sg5
V[[RED]]Use [[DARK_AQUA]]{0} [[RED]]to enable XP sharing with party members
p288
sg7
VParty.Help.10
p289
ssS'2649401'
p290
(dp291
g3
V\u56de\u6536
p292
sg5
VSalvage
p293
sg7
VSalvage.Pretty.Name
p294
ssS'2649402'
p295
(dp296
g3
V[[RED]]{0} \u53d6\u6d88!
p297
sg5
V[[RED]]{0} cancelled!
p298
sg7
VSkills.Cancelled
p299
ssS'2649403'
p300
(dp301
g3
V[[DARK_RED]]\u53d6\u6d88\u50b3\u9001!
p302
sg5
V[[DARK_RED]]Teleportation canceled!
p303
sg7
VTeleport.Cancelled
p304
ssS'2093971'
p305
(dp306
g3
V[[DARK_RED]]\u4f60\u7121\u6cd5\u56de\u6536\u5df2\u53d7\u640d\u7684\u7269\u54c1
p307
sg5
V[[DARK_RED]]You can't salvage damaged items.
p308
sg7
VRepair.Skills.NotFullDurability
p309
ssS'2649408'
p310
(dp311
g3
V\u96dc\u9805
p312
sg5
VMisc
p313
sg7
VParty.ItemShare.Category.Misc
p314
ssS'2649409'
p315
(dp316
g3
V\u8349\u85e5\u5b78
p317
sg5
VHerbalism
p318
sg7
VParty.ItemShare.Category.Herbalism
p319
ssS'2093976'
p320
(dp321
g3
V[[DARK_RED]]\u56e0\u70ba\u719f\u7df4\u5ea6\u4e0d\u5920\u6240\u4ee5\u4f60\u4e0d\u80fd\u56de\u6536\u5b83\u5011
p322
sg5
V[[DARK_RED]]You're not skilled enough to Salvage items.
p323
sg7
VRepair.Skills.AdeptSalvage
p324
ssS'792127'
p325
(dp326
g16
V<player> [[RED]]- \u50b3\u9001\u5230\u968a\u4f0d\u6210\u54e1\u65c1
p327
sg18
V<player> [[RED]]- Teleport to party member
p328
sg20
VCommands.Party.Teleport
p329
ssS'791880'
p330
(dp331
g3
V\u968a\u4f0d\u804a\u5929\u6a21\u5f0f[[RED]]\u53d6\u6d88
p332
sg5
VParty Chat only [[RED]]Off
p333
sg7
VCommands.Party.Chat.Off
p334
ssS'791883'
p335
(dp336
g3
V[[GRAY]]**\u4f60\u653e\u4e0b\u4e86\u4f60\u7684\u65a7\u982d**
p337
sg5
V[[GRAY]]**YOU LOWER YOUR AXE**
p338
sg7
VAxes.Ability.Lower
p339
ssS'792124'
p340
(dp341
g16
V<skill> <page> [[RED]]- \u6392\u884c\u699c
p342
sg18
V<skill> <page> [[RED]]- Leaderboards
p343
sg20
VCommands.Leaderboards
p344
ssS'792123'
p345
(dp346
g3
V[[DARK_GRAY]]\u7b49\u7d1a: [[GREEN]]{0} [[DARK_AQUA]]\u7d93\u9a57\u503c[[YELLOW]]([[GOLD]]{1}[[YELLOW]]/[[GOLD]]{2}[[YELLOW]])
p347
sg5
V[[DARK_GRAY]]LVL: [[GREEN]]{0} [[DARK_AQUA]]XP[[YELLOW]]([[GOLD]]{1}[[YELLOW]]/[[GOLD]]{2}[[YELLOW]])
p348
sg7
VEffects.Level
p349
ssS'792089'
p350
(dp351
g3
V\u91e3\u9b5a:
p352
sg5
VFishing:
p353
sg7
VFishing.Listener
p354
ssS'792121'
p355
(dp356
g3
V[[RED]]\u9019\u500b\u968a\u4f0d\u5df2\u7d93\u9396\u5b9a\u4e86!
p357
sg5
V[[RED]]This party is already locked!
p358
sg7
VParty.IsLocked
p359
ssS'791871'
p360
(dp361
g3
V[[GREEN]]{0}[[DARK_GREEN]] \u4f7f\u7528\u4e86 [[RED]]\u4f10\u6728\u5de5!
p362
sg5
V[[GREEN]]{0}[[DARK_GREEN]] has used [[RED]]Tree Feller!
p363
sg7
VWoodcutting.Skills.TreeFeller.Other.On
p364
ssS'791889'
p365
(dp366
g3
V[[GREEN]]\u4f60\u7684 [[YELLOW]]\u66b4\u8d70\u947d\u982d [[GREEN]]\u6280\u80fd\u5df2\u7d93\u53ef\u4ee5\u4f7f\u7528\u4e86!
p367
sg5
V[[GREEN]]Your [[YELLOW]]Giga Drill Breaker [[GREEN]]ability is refreshed!
p368
sg7
VExcavation.Skills.GigaDrillBreaker.Refresh
p369
ssS'792085'
p370
(dp371
g3
V[[RED]]**\u7da0\u624b\u6307\u5931\u6557**
p372
sg5
V[[RED]]**GREEN THUMB FAIL**
p373
sg7
VHerbalism.Ability.GTh.Fail
p374
ssS'792087'
p375
(dp376
g16
V<player> [[RED]]-\u67e5\u770b\u73a9\u5bb6\u8a73\u7d30\u8a0a\u606f
p377
sg18
V<player> [[RED]]- View detailed player info
p378
sg20
VCommands.Inspect
p379
ssS'791728'
p380
(dp381
g3
V[[RED]]**\u88ab\u5f37\u529b\u653b\u64ca\u64ca\u4e2d**
p382
sg5
V[[RED]]**HIT BY GREATER IMPACT**
p383
sg7
VAxes.Combat.GI.Struck
p384
ssS'2456029'
p385
(dp386
g3
V[[RED]]\u4e0a\u9264\u6a5f\u7387: [[YELLOW]]{0}
p387
sg5
V[[RED]]Bite Chance: [[YELLOW]]{0}
p388
sg7
VFishing.Ability.Chance
p389
ssS'2195749'
p390
(dp391
g3
V[[RED]]\u8981\u5f9e\u968a\u4f0d\u4e2d\u8e22\u6389\u6210\u54e1\uff0c\u4f7f\u7528[[DARK_AQUA]] {0} <player>
p392
sg5
V[[RED]]To kick a player from your party, use [[DARK_AQUA]]{0} <player>
p393
sg7
VParty.Help.6
p394
ssS'2195748'
p395
(dp396
g3
V\u540d\u7a31
p397
sg5
Vname
p398
sg7
VCommands.Usage.PartyName
p399
ssS'791720'
p400
(dp401
g3
V\u6536\u7a6b\u8fb2\u4f5c\u7269
p402
sg5
VHarvesting Herbs
p403
sg7
VCommands.XPGain.Herbalism
p404
ssS'791721'
p405
(dp406
g3
V\u6316\u6398
p407
sg5
VEXCAVATION
p408
sg7
VExcavation.SkillName
p409
ssS'791724'
p410
(dp411
g3
V[[GREEN]]\u4f60\u7684 [[YELLOW]]\u6316\u7926\u7206\u767c [[GREEN]]\u51b7\u537b\u6642\u9593\u5df2\u7d50\u675f!
p412
sg5
V[[GREEN]]Your [[YELLOW]]Blast Mining [[GREEN]]ability is refreshed!
p413
sg7
VMining.Blast.Refresh
p414
ssS'791725'
p415
(dp416
g3
V\u4f10\u6728
p417
sg5
VWOODCUTTING
p418
sg7
VWoodcutting.SkillName
p419
ssS'791726'
p420
(dp421
g3
V\u6316\u5230\u5bf6\u7269
p422
sg5
VDigging and finding treasures
p423
sg7
VCommands.XPGain.Excavation
p424
ssS'791875'
p425
(dp426
g3
V[[DARK_GRAY]]\u5982\u679c\u4f60\u7121\u6cd5\u4f7f\u7528\u90a3\u4e9b\u6280\u80fd\u5c31\u4e0d\u6703\u51fa\u73fe\u5728\u9019\u88e1
p427
sg5
V[[DARK_GRAY]]If you don't have access to a skill it will not be shown here.
p428
sg7
VmcMMO.NoSkillNote
p429
ssS'4081048'
p430
(dp431
g3
V[[GREEN]]- \u52a0\u5165\u4e00\u500b\u73a9\u5bb6\u7684\u968a\u4f0d
p432
sg5
V[[GREEN]]- Join a players party
p433
sg7
VCommands.Party2
p434
ssS'792059'
p435
(dp436
g3
V\u91e3\u9b5a
p437
sg5
VFISHING
p438
sg7
VFishing.SkillName
p439
ssS'2127530'
p440
(dp441
g3
V\u4f7f\u4f60\u64c1\u6709\u5fae\u5c0f\u6a5f\u7387\u767c\u73fe\u7a00\u6709\u7269\u54c1
p442
sg5
VGives a small chance of finding rare items
p443
sg7
VHerbalism.Effect.11
p444
ssS'4081047'
p445
(dp446
g3
V[player] <skill> <newvalue> [[GREEN]] - \u4fee\u6539\u76ee\u6a19
p447
sg5
V[player] <skill> <newvalue> [[GREEN]] - Modify target
p448
sg7
VCommands.mmoedit
p449
ssS'2115570'
p450
(dp451
g3
V[[RED]]\u4f60\u7684\u5c0d\u624b\u6709\u9435\u722a!
p452
sg5
V[[RED]]Your opponent has an iron grip!
p453
sg7
VUnarmed.Ability.IronGrip.Attacker
p454
ssS'791878'
p455
(dp456
g3
V[[RED]]**\u7da0\u5316\u5df2\u7ed3\u675f**
p457
sg5
V[[RED]]**Green Terra has worn off**
p458
sg7
VHerbalism.Skills.GTe.Off
p459
ssS'792056'
p460
(dp461
g3
V[[RED]]\u653e\u8840\u6301\u7e8c\u6642\u9593: [[YELLOW]]{0} \u9031\u671f
p462
sg5
V[[RED]]Bleed Length: [[YELLOW]]{0} ticks
p463
sg7
VSwords.Combat.Bleed.Length
p464
ssS'2115579'
p465
(dp466
g3
V[[RED]][mcMMO \u984d\u5916\u734e\u52f5]
p467
sg5
V[[RED]][mcMMO Perks]
p468
sg7
VMOTD.PerksPrefix
p469
ssS'791967'
p470
(dp471
g3
V\u96d9\u500d\u6389\u843d
p472
sg5
VDouble Drops
p473
sg7
VWoodcutting.Effect.4
p474
ssS'792014'
p475
(dp476
g3
V\u5c0d\u6709\u88dd\u7532\u6575\u4eba\u984d\u5916\u9020\u6210 {0} \u50b7\u5bb3
p477
sg5
VDeal {0} Bonus DMG to armor
p478
sg7
VAxes.Ability.Bonus.3
p479
ssS'792055'
p480
(dp481
g3
V\u7ffb\u6efe
p482
sg5
VRoll
p483
sg7
VAcrobatics.Effect.0
p484
ssS'2124979'
p485
(dp486
g3
V[[GREEN]]\u4f60\u7684 {0} \u7b49\u7d1a\u88ab\u8a2d\u5b9a\u70ba {1}!
p487
sg5
V[[GREEN]]Your level in {0} was set to {1}!
p488
sg7
VCommands.mmoedit.Modified.1
p489
ssS'2190047'
p490
(dp491
g3
V\u4fee\u6539\u73a9\u5bb6McMMO\u7b49\u7d1a
p492
sg5
VEdit mcMMO levels for a user
p493
sg7
VCommands.Description.mmoedit
p494
ssS'2190046'
p495
(dp496
g3
V\u7d66\u4e88\u73a9\u5bb6McMMO\u7b49\u7d1a
p497
sg5
VAdd mcMMO levels to a user
p498
sg7
VCommands.Description.addlevels
p499
ssS'2190045'
p500
(dp501
g3
V[RED]]\u9019\u500b\u6307\u4ee4\u4e26\u4e0d\u9069\u7528\u65bc\u96e2\u7dda\u73a9\u5bb6.
p502
sg5
V[[RED]]This command does not work for offline players.
p503
sg7
VCommands.Offline
p504
ssS'791972'
p505
(dp506
g3
V\u968a\u4f0d\u804a\u5929\u6a21\u5f0f [[GREEN]]\u958b\u555f
p507
sg5
VParty Chat only [[GREEN]]On
p508
sg7
VCommands.Party.Chat.On
p509
ssS'2190043'
p510
(dp511
g3
V\u91cd\u7f6e\u73a9\u5bb6McMMO\u7b49\u7d1a
p512
sg5
VReset mcMMO levels for a user
p513
sg7
VCommands.Description.skillreset
p514
ssS'2190042'
p515
(dp516
g3
V\u5207\u63dbmcMMO\u968a\u4f0d\u804a\u5929(\u958b/\u95dc)\u6216\u767c\u9001\u968a\u4f0d\u804a\u5929\u8a0a\u606f
p517
sg5
VToggle mcMMO party chat on/off or send party chat messages
p518
sg7
VCommands.Description.partychat
p519
ssS'2190041'
p520
(dp521
g3
V[[RED]]\u9019\u500b\u968a\u4f0d\u6709\u5bc6\u78bc\u4fdd\u8b77. \u8acb\u63d0\u4f9b\u5bc6\u78bc\u4f86\u52a0\u5165.
p522
sg5
V[[RED]]This party is password protected. Please provide a password to join.
p523
sg7
VParty.Password.None
p524
ssS'3823880'
p525
(dp526
g3
V[[GOLD]][mcMMO] \u786c\u6d3e\u6a21\u5f0f {0} \u95dc\u9589. {1}
p527
sg5
V[[GOLD]][mcMMO] Hardcore mode {0} disabled for {1}.
p528
sg7
VHardcore.Mode.Disabled
p529
ssS'3785671'
p530
(dp531
g3
V[[GOLD]]\u5c0f\u6280\u5de7: \u7576\u5f97\u5206\u699c\u51fa\u73fe\u6642\u8f38\u5165 [[RED]]/mcscoreboard keep[[GOLD]] \u4f86\u907f\u514d\u5b83\u6d88\u5931.
p532
sg5
V[[GOLD]]Tip: Use [[RED]]/mcscoreboard keep[[GOLD]] while the scoreboard is shown to keep it from going away.
p533
sg7
VCommands.Scoreboard.Tip.Keep
p534
ssS'791975'
p535
(dp536
g3
V[[GRAY]]\u4f60\u7684\u88dd\u5099\u8010\u4e45\u5ea6\u5df2\u6eff!
p537
sg5
V[[GRAY]]That is at full durability.
p538
sg7
VRepair.Skills.FullDurability
p539
ssS'792003'
p540
(dp541
g3
V\u524a\u6e1b\u706b\u7130\u50b7\u5bb3
p542
sg5
VDMG Reduction, Fire Resistance
p543
sg7
VTaming.Effect.9
p544
ssS'2190049'
p545
(dp546
g3
V\u9396\u4f4f\u4f60\u4e00\u500b\u7279\u5b9amcMMO\u6280\u80fd\u7684\u7d93\u9a57\u6b04
p547
sg5
VLock your mcMMO XP bar to a specific mcMMO skill
p548
sg7
VCommands.Description.xplock
p549
ssS'791974'
p550
(dp551
g3
V[[RED]]\u4f10\u6728\u5de5\u6301\u7e8c\u6642\u9593: [[YELLOW]]{0}s
p552
sg5
V[[RED]]Tree Feller Length: [[YELLOW]]{0}s
p553
sg7
VWoodcutting.Ability.Length
p554
ssS'2124949'
p555
(dp556
g3
V[[DARK_RED]]\u4f60\u4e26\u975e\u968a\u9577.
p557
sg5
V[[DARK_RED]]You are not the party leader.
p558
sg7
VParty.NotOwner
p559
ssS'791835'
p560
(dp561
g3
V[[GREEN]]**\u66b4\u8d70\u947d\u982d\u6280\u80fd\u4f7f\u7528**
p562
sg5
V[[GREEN]]**GIGA DRILL BREAKER ACTIVATED**
p563
sg7
VExcavation.Skills.GigaDrillBreaker.On
p564
ssS'3975694'
p565
(dp566
g3
V\u9396\u5b9a\u76f4\u5230\u6280\u80fd {0}+ (\u50ac\u5316)
p567
sg5
VLOCKED UNTIL {0}+ SKILL (CATALYSIS)
p568
sg7
VAlchemy.Ability.Locked.0
p569
ssS'792010'
p570
(dp571
g3
V[[GRAY]]**\u78b0!**
p572
sg5
V[[GRAY]]**BOOM**
p573
sg7
VMining.Blast.Boom
p574
ssS'791830'
p575
(dp576
g3
V[[RED]]\u8d85\u7d1a\u788e\u77f3\u6a5f[[GREEN]] \u5373\u5c07\u7ed3\u675f [[YELLOW]]{0}
p577
sg5
V[[RED]]Super Breaker[[GREEN]] has worn off for [[YELLOW]]{0}
p578
sg7
VMining.Skills.SuperBreaker.Other.Off
p579
ssS'3975693'
p580
(dp581
g3
V[[YELLOW]]\u934a\u91d1\u8853\u6280\u80fd\u4e0a\u5347\u4e86 {0}. \u7e3d\u7b49\u7d1a ({1})
p582
sg5
V[[YELLOW]]Alchemy skill increased by {0}. Total ({1})
p583
sg7
VAlchemy.Skillup
p584
ssS'791832'
p585
(dp586
g3
V[[GRAY]]\u9644\u9b54\u964d\u7d1a\u6a5f\u7387: [[YELLOW]]{0}%
p587
sg5
V[[GRAY]]AF Downgrade Chance: [[YELLOW]]{0}%
p588
sg7
VRepair.Arcane.Chance.Downgrade
p589
ssS'791833'
p590
(dp591
g3
V[[RED]]\u60f3\u4fee\u6539\u7d93\u9a57\u503c\u7372\u5f97\u7387\u8acb\u8f38\u5165 /xprate <integer> <true/false>
p592
sg5
V[[RED]]Proper usage to change the XP rate is /xprate <integer> <true/false>
p593
sg7
VCommands.xprate.proper.0
p594
ssS'2124943'
p595
(dp596
g3
V[[DARK_AQUA]]\u8d0a\u52a9\u8cc7\u8a0a:
p597
sg5
V[[DARK_AQUA]]Donation Info:
p598
sg7
VMOTD.Donate
p599
ssS'792018'
p600
(dp601
g3
V\u9019\u500b\u6307\u4ee4\u4e0d\u53ef\u4f7f\u7528
p602
sg5
VThis command does not support console usage.
p603
sg7
VCommands.NoConsole
p604
ssS'2124945'
p605
(dp606
g3
V[[RED]]\u8acb\u8f38\u5165 /{0} {1} {2}
p607
sg5
V[[RED]]Proper usage is /{0} {1} {2}
p608
sg7
VCommands.Usage.2
p609
ssS'2124944'
p610
(dp611
g3
V[[RED]]\u8acb\u8f38\u5165 /{0} {1} {2} {3}
p612
sg5
V[[RED]]Proper usage is /{0} {1} {2} {3}
p613
sg7
VCommands.Usage.3
p614
ssS'2124947'
p615
(dp616
g3
V[[GOLD]]-=\u500b\u4eba\u6392\u884c=-
p617
sg5
V[[GOLD]]-=PERSONAL RANKINGS=-
p618
sg7
VCommands.mcrank.Heading
p619
ssS'2124946'
p620
(dp621
g3
V\u7d93\u9a57\u503c
p622
sg5
Vxp
p623
sg7
VCommands.Usage.XP
p624
ssS'3655329'
p625
(dp626
g3
V[mcMMO] \u4f60\u7684\u8840\u689d\u986f\u793a\u6a21\u5f0f\u5df2\u66f4\u6539\u70ba [[YELLOW]]\u65b9\u584a[[WHITE]].
p627
sg5
V[mcMMO] Your healthbar display type was changed to [[YELLOW]]Boxes[[WHITE]].
p628
sg7
VCommands.Healthbars.Changed.BAR
p629
ssS'3655328'
p630
(dp631
g3
V\u6280\u80fd\u4f7f\u7528\u5df2\u88ab\u5207\u63db\u70ba [[YELLOW]]{0}
p632
sg5
VAbility use has been toggled for [[YELLOW]]{0}
p633
sg7
VCommands.Ability.Toggle
p634
ssS'792008'
p635
(dp636
g3
V[[RED]]\u8acb\u8f38\u5165 true \u6216 false \u4f86\u8868\u793a\u9019\u662f\u4e00\u500b\u7d93\u9a57\u4e8b\u4ef6
p637
sg5
V[[RED]]Please specify true or false to indicate if this is an xp event or not
p638
sg7
VCommands.xprate.proper.2
p639
ssS'3655327'
p640
(dp641
g3
V\u795e\u4e4b\u6a21\u5f0f\u5df2\u88ab\u5207\u63db\u70ba [[YELLOW]]{0}
p642
sg5
VGod mode has been toggled for [[YELLOW]]{0}
p643
sg7
VCommands.GodMode.Toggle
p644
ssS'3655326'
p645
(dp646
g3
V[mcMMO] \u4f60\u7684\u602a\u7269\u8840\u689d\u5df2 [[GRAY]]\u505c\u7528[[WHITE]].
p647
sg5
V[mcMMO] Your mob healthbars have been [[GRAY]]disabled[[WHITE]].
p648
sg7
VCommands.Healthbars.Changed.DISABLED
p649
ssS'792009'
p650
(dp651
g3
V[[GREEN]][mcMMO] \u7684\u7d71\u8a08\u8a0a\u606f [[YELLOW]]{0}
p652
sg5
V[[GREEN]]mcMMO Stats for [[YELLOW]]{0}
p653
sg7
VInspect.Stats
p654
ssS'2190032'
p655
(dp656
g3
V\u986f\u793a\u8a73\u7d30\u7684{0}mcMMO\u6280\u80fd\u8cc7\u8a0a
p657
sg5
VDisplay detailed mcMMO skill info for {0}
p658
sg7
VCommands.Description.Skill
p659
ssS'2190033'
p660
(dp661
g3
V\u986f\u793a\u4f60\u7684MMO\u7b49\u7d1a\u8207\u7d93\u9a57
p662
sg5
VShow your mcMMO levels and XP
p663
sg7
VCommands.Description.mcstats
p664
ssS'2190030'
p665
(dp666
g3
V[[RED]]\u4f60\u5fc5\u9808\u6307\u5b9a\u4e00\u500b\u968a\u4f0d.
p667
sg5
V[[RED]]You must specify a party.
p668
sg7
VParty.Specify
p669
ssS'2190031'
p670
(dp671
g3
V\u5f9emcMMO\u8cc7\u6599\u5eab\u4e2d\u522a\u9664\u4f7f\u7528\u8005
p672
sg5
VRemove a user from the mcMMO database
p673
sg7
VCommands.Description.mcremove
p674
ssS'2190036'
p675
(dp676
g3
V\u5207\u63dbmcMMo\u795e\u4e4b\u6a21\u5f0f(\u958b/\u95dc)
p677
sg5
VToggle mcMMO god-mode on/off
p678
sg7
VCommands.Description.mcgod
p679
ssS'2190037'
p680
(dp681
g3
V\u7d66\u4e88\u73a9\u5bb6mcMMO\u7d93\u9a57\u503c
p682
sg5
VAdd mcMMO XP to a user
p683
sg7
VCommands.Description.addxp
p684
ssS'2190035'
p685
(dp686
g3
V\u986f\u793amcMMO\u6392\u884c\u699c
p687
sg5
VShow mcMMO leader boards
p688
sg7
VCommands.Description.mctop
p689
ssS'4068746'
p690
(dp691
g16
V[[RED]]\u968a\u4f0d\u50b3\u9001\u5c1a\u672a\u89e3\u9396.
p692
sg18
V[[RED]]Party teleport is not unlocked yet.
p693
sg20
VParty.Feature.Disabled.2
p694
ssS'4068744'
p695
(dp696
g16
V[[RED]]\u968a\u4f0d\u7269\u54c1\u5206\u4eab\u5c1a\u672a\u89e3\u9396.
p697
sg18
V[[RED]]Party item sharing is not unlocked yet.
p698
sg20
VParty.Feature.Disabled.4
p699
ssS'4068745'
p700
(dp701
g16
V\u806f\u76df
p702
sg18
VAlliances
p703
sg20
VParty.Feature.Alliance
p704
ssS'4068742'
p705
(dp706
g16
V\u968a\u4f0d\u50b3\u9001
p707
sg18
VParty Teleport
p708
sg20
VParty.Feature.Teleport
p709
ssS'4068743'
p710
(dp711
g16
V[[RED]]\u968a\u4f0d\u804a\u5929\u5c1a\u672a\u89e3\u9396.
p712
sg18
V[[RED]]Party chat is not unlocked yet.
p713
sg20
VParty.Feature.Disabled.1
p714
ssS'4068740'
p715
(dp716
g16
V[[RED]]\u968a\u4f0d\u806f\u76df\u5c1a\u672a\u89e3\u9396.
p717
sg18
V[[RED]]Party alliances are not unlocked yet.
p718
sg20
VParty.Feature.Disabled.3
p719
ssS'4068741'
p720
(dp721
g16
V\u7269\u54c1\u5206\u4eab
p722
sg18
VItem Sharing
p723
sg20
VParty.Feature.ItemShare
p724
ssS'791809'
p725
(dp726
g3
V[[GRAY]]**\u4f60\u653e\u4e0b\u4e86\u4f60\u7684\u93ac\u5b50**
p727
sg5
V[[GRAY]]**YOU LOWER YOUR PICKAXE**
p728
sg7
VMining.Ability.Lower
p729
ssS'797003'
p730
(dp731
g3
V[[RED]]\u6f02\u4eae\u7ffb\u6efe\u6a5f\u7387: [[YELLOW]]{0}
p732
sg5
V[[RED]]Graceful Roll Chance: [[YELLOW]]{0}
p733
sg7
VAcrobatics.Roll.GraceChance
p734
ssS'797002'
p735
(dp736
g3
V[[RED]]\u7ffb\u6efe\u6a5f\u7387: [[YELLOW]]{0}
p737
sg5
V[[RED]]Roll Chance: [[YELLOW]]{0}
p738
sg7
VAcrobatics.Roll.Chance
p739
ssS'797001'
p740
(dp741
g3
V[[RED]]\u6688\u7729\u6a5f\u7387: [[YELLOW]]{0}
p742
sg5
V[[RED]]Chance to Daze: [[YELLOW]]{0}
p743
sg7
VArchery.Combat.DazeChance
p744
ssS'791808'
p745
(dp746
g3
V[[YELLOW]]\u6316\u6398\u6280\u80fd\u4e0a\u5347\u4e86 {0}. \u7e3d\u7b49\u7d1a ({1})
p747
sg5
V[[YELLOW]]Excavation skill increased by {0}. Total ({1})
p748
sg7
VExcavation.Skillup
p749
ssS'3633772'
p750
(dp751
g3
V[[DARK_AQUA]]\u4ec0\u9ebc\u662f\u6f01\u4eba\u4fbf\u7576?[[YELLOW]]\u9019\u662f\u4e00\u500b\u88ab\u52d5\u6280\u80fd\u8b93\u4f60\u80fd\u5728\u5403\u9b5a\u6642\u6709[[YELLOW]]\u66f4\u591a\u7684\u98fd\u98df\u5ea6.
p752
sg5
V[[DARK_AQUA]]How does Fisherman's Diet work?\u005cn[[YELLOW]]This passive skill increases the amount of hunger restored \u005cn[[YELLOW]]from eating fish.
p753
sg7
VGuides.Fishing.Section.5
p754
ssS'2094874'
p755
(dp756
g3
V\u780d\u6a39
p757
sg5
VChopping down trees
p758
sg7
VCommands.XPGain.Woodcutting
p759
ssS'3380520'
p760
(dp761
g3
V[[GOLD]][mcMMO] [[YELLOW]]{0}[[DARK_RED]]\u5f9e\u4f60\u9019\u5077\u53d6\u4e86[[BLUE]]{1}[[DARK_RED]]\u500b\u7b49\u7d1a!
p762
sg5
V[[GOLD]][mcMMO] [[YELLOW]]{0}[[DARK_RED]] has stolen [[BLUE]]{1}[[DARK_RED]] levels from you!
p763
sg7
VHardcore.Vampirism.Victim.Success
p764
ssS'792016'
p765
(dp766
g3
V\u734e\u52f5 {0} \u50b7\u5bb3
p767
sg5
VBonus {0} damage
p768
sg7
VAxes.Ability.Bonus.1
p769
ssS'3607278'
p770
(dp771
g3
V[[RED]]mcMMO\u7121\u6cd5\u8f09\u5165\u4f60\u7684\u8cc7\u6599,\u4f60\u53ef\u80fd\u9700\u8981\u806f\u7e6b[[AQUA]]\u904a\u6232\u7ba1\u7406\u54e1\u005cn[[YELLOW]]\u4f60\u53ef\u4ee5\u7e7c\u7e8c\u904a\u6232,\u4f46\u4f60[[BOLD]]\u7121\u6cd5\u5f97\u5230mcMMO\u7b49\u7d1a[[YELLOW]]\u548c\u4efb\u4f55\u7d93\u9a57[[BOLD]]\u6240\u6709\u8cc7\u6599\u4e0d\u6703\u88ab\u5132\u5b58[[YELLOW]].
p772
sg5
V[[RED]]mcMMO still cannot load your data. You may want to [[AQUA]]contact the server owner.\u005cn[[YELLOW]]You can still play on the server, but you will have [[BOLD]]no mcMMO levels[[YELLOW]] and any XP you get [[BOLD]]will not be saved[[YELLOW]].
p773
sg7
VRecovery.Failure
p774
ssS'3607279'
p775
(dp776
g3
V[[RED]]\u6ce8\u610f: mcMMO[[DARK_RED]]\u7121\u6cd5\u8f09\u5165\u4f60\u7684\u8cc7\u6599.[[RED]] \u91cd\u8a665\u6b21...
p777
sg5
V[[RED]]Notice: mcMMO was [[DARK_RED]]unable to load your data.[[RED]] Retrying 5 times...
p778
sg7
VRecovery.Notice
p779
ssS'791900'
p780
(dp781
g3
V[[RED]]\u4f60\u4e0d\u80fd\u53ec\u63db\u5c71\u8c93\u56e0\u70ba\u4f60\u5df2\u7d93\u53ec\u559a\u592a\u591a\u4e86.
p782
sg5
V[[RED]]You have too many ocelots nearby to summon any more.
p783
sg7
VTaming.Summon.Fail.Ocelot
p784
ssS'791901'
p785
(dp786
g3
V\u6703\u5fc3\u4e00\u64ca
p787
sg5
VCritical Strikes
p788
sg7
VAxes.Effect.2
p789
ssS'791902'
p790
(dp791
g3
V\u9020\u6210\u7bc4\u570d\u50b7\u5bb3
p792
sg5
VDeal AoE Damage
p793
sg7
VAxes.Effect.1
p794
ssS'791903'
p795
(dp796
g3
V\u5288\u9871\u65ac (\u4e3b\u52d5\u6280\u80fd)
p797
sg5
VSkull Splitter (Ability)
p798
sg7
VAxes.Effect.0
p799
ssS'3613482'
p800
(dp801
g3
V[[GRAY]]\u4ec0\u9ebc\u6771\u897f,\u805e\u8d77\u4f86\u597d\u81ed\u554a...
p802
sg5
V[[GRAY]]Something doesn't smell quite right...
p803
sg7
VFishing.Ability.TH.Poison
p804
ssS'791905'
p805
(dp806
g3
V\u5f37\u529b\u653b\u64ca
p807
sg5
VGreater Impact
p808
sg7
VAxes.Effect.8
p809
ssS'792060'
p810
(dp811
g3
V[[RED]]**\u66b4\u8d70\u947d\u982d\u5df2\u7ed3\u675f**
p812
sg5
V[[RED]]**Giga Drill Breaker has worn off**
p813
sg7
VExcavation.Skills.GigaDrillBreaker.Off
p814
ssS'791907'
p815
(dp816
g3
V\u4f10\u6728:
p817
sg5
VWoodcutting:
p818
sg7
VWoodcutting.Listener
p819
ssS'3219351'
p820
(dp821
g3
V\u7da0\u624b\u6307 (\u5927\u91cf)
p822
sg5
VGreen Thumb (Blocks)
p823
sg7
VHerbalism.Effect.4
p824
ssS'791862'
p825
(dp826
g3
V\u65a7\u982d\u7cbe\u901a
p827
sg5
VAxe Mastery
p828
sg7
VAxes.Ability.Bonus.0
p829
ssS'791805'
p830
(dp831
g3
V\u4f60\u904e\u5ea6\u75b2\u52de\u5fc5\u9808\u7b49\u5f85\u4e00\u6bb5\u6642\u9593\u5f8c\u624d\u53ef\u4f7f\u7528. [[YELLOW]]({0}s)
p832
sg5
VYou were injured recently and must wait to use this. [[YELLOW]]({0}s)
p833
sg7
VItem.Injured.Wait
p834
ssS'796998'
p835
(dp836
g3
V[[RED]]\u6280\u8853\u5c04\u64ca\u734e\u52f5\u50b7\u5bb3: [[YELLOW]]{0}
p837
sg5
V[[RED]]Skill Shot Bonus Damage: [[YELLOW]]{0}
p838
sg7
VArchery.Combat.SkillshotBonus
p839
ssS'796999'
p840
(dp841
g3
V[[RED]]\u8ff4\u907f\u6a5f\u7387: [[YELLOW]]{0}
p842
sg5
V[[RED]]Dodge Chance: [[YELLOW]]{0}
p843
sg7
VAcrobatics.DodgeChance
p844
ssS'3587670'
p845
(dp846
g3
V[[DARK_AQUA]]\u4ec0\u9ebc\u662f\u66b4\u8d70\u947d\u982d?[[YELLOW]]\u66b4\u8d70\u947d\u982d\u662f\u4e3b\u52d5\u6280\u80fd,\u6301\u7e8c\u6642\u9593\u95dc\u4fc2\u5230[[YELLOW]]\u6316\u6398\u6280\u80fd\u7b49\u7d1a,\u5b83\u53ef \u4ee5\u8b93\u4f60\u6709\u6a5f\u7387\u7372\u5f97\u5bf6\u7269[[YELLOW]]\u9084\u6709\u76f4\u63a5\u6467\u6bc0\u6307\u5b9a\u65b9\u584a.
p847
sg5
V[[DARK_AQUA]]What is Giga Drill Breaker?\u005cn[[YELLOW]]Giga Drill Breaker is an ability with a cooldown\u005cn[[YELLOW]]tied to Excavation skill. It triples your chance\u005cn[[YELLOW]]of finding treasures and enables instant break\u005cn[[YELLOW]]on Excavation materials.
p848
sg7
VGuides.Excavation.Section.3
p849
ssS'791807'
p850
(dp851
g3
V[[RED]]\u72c2\u66b4\u6301\u7e8c\u6642\u9593: [[YELLOW]]{0}s
p852
sg5
V[[RED]]Berserk Length: [[YELLOW]]{0}s
p853
sg7
VUnarmed.Ability.Berserk.Length
p854
ssS'3398944'
p855
(dp856
g3
V\u8f49\u63db\u8cc7\u6599\u5eab\u7684\u7a2e\u985e\u6216\u7d93\u9a57\u503c\u516c\u5f0f\u7684\u7a2e\u985e
p857
sg5
VConverts database types or experience formula types
p858
sg7
VCommands.Description.mcconvert
p859
ssS'791806'
p860
(dp861
g16
V[[RED]]- \u8acb\u95b1\u8b80\u63d2\u4ef6\u63cf\u8ff0
p862
sg18
V[[RED]]- Read brief mod description
p863
sg20
VCommands.ModDescription
p864
ssS'796997'
p865
(dp866
g3
V[[RED]]\u56de\u6536\u7bad\u77e2\u7684\u6a5f\u7387: [[YELLOW]]{0}
p867
sg5
V[[RED]]Chance to Retrieve Arrows: [[YELLOW]]{0}
p868
sg7
VArchery.Combat.RetrieveChance
p869
ssS'2138166'
p870
(dp871
g3
V\u6316\u539f\u7926\u6642\u6709\u6a5f\u7387\u76f4\u63a5\u6389\u51fa\u51b6\u7149\u597d\u7684\u7926\u7269
p872
sg5
VChance for ores to be instantly smelted while mining
p873
sg7
VSmelting.Effect.7
p874
ssS'2138167'
p875
(dp876
g3
V\u589e\u52a0\u51b6\u7149\u6642\u7684\u4e00\u822c\u7d93\u9a57
p877
sg5
VIncrease vanilla XP gained while smelting
p878
sg7
VSmelting.Effect.5
p879
ssS'2138164'
p880
(dp881
g3
V\u589e\u52a0\u71c3\u6599\u5728\u7194\u7210\u88e1\u71c3\u71d2\u7684\u6642\u9593
p882
sg5
VIncrease the burn time of fuel used in furnaces when smelting
p883
sg7
VSmelting.Effect.1
p884
ssS'2138165'
p885
(dp886
g3
V\u71c3\u6599\u6548\u7387
p887
sg5
VFuel Efficiency
p888
sg7
VSmelting.Effect.0
p889
ssS'2138162'
p890
(dp891
g3
V\u51b6\u7149\u7926\u7269\u52a0\u500d
p892
sg5
VDouble the resources gained from smelting
p893
sg7
VSmelting.Effect.3
p894
ssS'2138163'
p895
(dp896
g3
V\u518d\u51b6\u7149
p897
sg5
VSecond Smelt
p898
sg7
VSmelting.Effect.2
p899
ssS'2138161'
p900
(dp901
g3
V\u4e00\u822c\u7d93\u9a57\u52a0\u4e58
p902
sg5
VVanilla XP Boost
p903
sg7
VSmelting.Effect.4
p904
ssS'2160044'
p905
(dp906
g3
V[[GRAY]]\u7d93\u9a57\u503c [[DARK_AQUA]]({0})
p907
sg5
V[[GRAY]]EXP [[DARK_AQUA]]({0})
p908
sg7
VCommands.Party.ExpShare
p909
ssS'2138168'
p910
(dp911
g3
V\u51b6\u7149
p912
sg5
VSMELTING
p913
sg7
VSmelting.SkillName
p914
ssS'791813'
p915
(dp916
g3
V[[GREEN]]**\u7da0\u624b\u6307**
p917
sg5
V[[GREEN]]**GREEN THUMB**
p918
sg7
VHerbalism.Ability.GTh
p919
ssS'792000'
p920
(dp921
g3
V\u99b4\u7378\u4e4b\u80fd
p922
sg5
VBeast Lore
p923
sg7
VTaming.Effect.0
p924
ssS'2115595'
p925
(dp926
g3
V\u9632\u5177\u7834\u58de\u8005
p927
sg5
VArmor Impact
p928
sg7
VAxes.Ability.Bonus.2
p929
ssS'791768'
p930
(dp931
g3
V\u653b\u64ca\u602a\u7269
p932
sg5
VAttacking Monsters
p933
sg7
VCommands.XPGain.Swords
p934
ssS'791769'
p935
(dp936
g3
V[[RED]]\u6ce8\u610f: [[GREEN]]\u4f60\u6536\u5230\u4e86\u4f86\u81ea {1} \u7684\u968a\u4f0d\u9080\u8acb {0} 
p937
sg5
V[[RED]]ALERT: [[GREEN]]You have received a party invite for {0} from {1}
p938
sg7
VCommands.Party.Invite.0
p939
ssS'791764'
p940
(dp941
g3
V\u4fee\u7406
p942
sg5
VREPAIR
p943
sg7
VRepair.SkillName
p944
ssS'791765'
p945
(dp946
g3
V[[GREEN]]**\u5288\u9871\u65ac\u5df2\u4f7f\u7528**
p947
sg5
V[[GREEN]]**Skull Splitter ACTIVATED**
p948
sg7
VAxes.Skills.SS.On
p949
ssS'791766'
p950
(dp951
g3
V[[GRAY]]{0}
p952
sg5
V[[GRAY]]{0}
p953
sg7
VAbility.Generic.Template.Lock
p954
ssS'792160'
p955
(dp956
g3
V\u6e1b\u5c11\u4f86\u81eaTNT\u7684\u50b7\u5bb3
p957
sg5
VDecreases damage from TNT explosions
p958
sg7
VMining.Effect.9
p959
ssS'791762'
p960
(dp961
g3
V\u4fee\u7406\uff1a
p962
sg5
VRepair:
p963
sg7
VRepair.Listener
p964
ssS'791763'
p965
(dp966
g3
V[[GREEN]]{0}[[DARK_GREEN]] \u4f7f\u7528\u4e86 [[RED]]\u5272\u88c2\u65ac!
p967
sg5
V[[GREEN]]{0}[[DARK_GREEN]] has used [[RED]]Serrated Strikes!
p968
sg7
VSwords.Skills.SS.Other.On
p969
ssS'3436694'
p970
(dp971
g3
V[[GOLD]][mcMMO] [[DARK_AQUA]]\u786c\u6d3e\u6a21\u5f0f\u5df2\u555f\u7528: [[DARK_RED]]{0}
p972
sg5
V[[GOLD]][mcMMO] [[DARK_AQUA]]Hardcore Mode enabled: [[DARK_RED]]{0}
p973
sg7
VMOTD.Hardcore.Enabled
p974
ssS'3436692'
p975
(dp976
g3
V[[GOLD]][mcMMO] [[DARK_AQUA]]\u6b7b\u4ea1\u6280\u80fd\u61f2\u7f70: [[DARK_RED]]{0}%
p977
sg5
V[[GOLD]][mcMMO] [[DARK_AQUA]]Skill Death Penalty: [[DARK_RED]]{0}%
p978
sg7
VMOTD.Hardcore.DeathStatLoss.Stats
p979
ssS'3436693'
p980
(dp981
g3
V[[GOLD]][mcMMO] [[DARK_AQUA]]\u5438\u8840\u7372\u5f97\u72c0\u614b: [[DARK_RED]]{0}%
p982
sg5
V[[GOLD]][mcMMO] [[DARK_AQUA]]Vampirism Stat Leech: [[DARK_RED]]{0}%
p983
sg7
VMOTD.Hardcore.Vampirism.Stats
p984
ssS'2737045'
p985
(dp986
g3
V\u5f9e\u820a\u7684 mcMMO \u8cc7\u6599\u5eab\u9077\u79fb\u5230\u76ee\u524d\u4f7f\u7528\u7684\u8cc7\u6599\u5eab
p987
sg5
VMigrate mcMMO database from an old database into the current one
p988
sg7
VCommands.Description.mmoupdate
p989
ssS'2737042'
p990
(dp991
g3
V\u985e\u5225\u540d\u7a31
p992
sg5
Vclassname
p993
sg7
VCommands.Usage.FullClassName
p994
ssS'2737043'
p995
(dp996
g3
V[[YELLOW]]\u76ee\u524d\u4f7f\u7528\u7684\u8cc7\u6599\u5eab\u662f [[GREEN]]{0}
p997
sg5
V[[YELLOW]]The currently used database is [[GREEN]]{0}
p998
sg7
VCommands.mmoshowdb
p999
ssS'3607281'
p1000
(dp1001
g3
V[[GREEN]]\u6210\u529f!\u4f60\u7684mcMMO\u8cc7\u6599\u5df2\u8f09\u5165.
p1002
sg5
V[[GREEN]]Success! Your mcMMO data was loaded.
p1003
sg7
VRecovery.Success
p1004
ssS'2737048'
p1005
(dp1006
g3
V\u986f\u793a\u76ee\u524d\u7684\u8cc7\u6599\u5eab\u985e\u5225 (\u70ba\u4e86\u4e4b\u5f8c\u5728 /mmoupdate \u4e2d\u4f7f\u7528)
p1007
sg5
VShow the name of the current database type (for later use with /mmoupdate)
p1008
sg7
VCommands.Description.mmoshowdb
p1009
ssS'3607280'
p1010
(dp1011
g3
V[[DARK_RED]][A][[RED]]mcMMO\u7121\u6cd5\u8f09\u5165\u73a9\u5bb6[[YELLOW]]{0}[[RED]]\u7684\u8cc7\u6599. [[LIGHT_PURPLE]]\u8acb\u6aa2\u67e5\u4f60\u7684\u8cc7\u6599\u5eab\u6216\u8a2d\u5b9a.
p1012
sg5
V[[DARK_RED]][A][[RED]] mcMMO was unable to load the player data for [[YELLOW]]{0}[[RED]]. [[LIGHT_PURPLE]]Please inspect your database setup.
p1013
sg7
VRecovery.AdminFailureNotice
p1014
ssS'3380466'
p1015
(dp1016
g3
V[[GOLD]][mcMMO] [[DARK_AQUA]]\u4f60\u5f9e[[YELLOW]]{1}[[DARK_AQUA]]\u90a3\u5077\u53d6\u4e86[[BLUE]]{0}[[DARK_AQUA]]\u500b\u7b49\u7d1a .
p1017
sg5
V[[GOLD]][mcMMO] [[DARK_AQUA]]You have stolen [[BLUE]]{0}[[DARK_AQUA]] levels from [[YELLOW]]{1}.
p1018
sg7
VHardcore.Vampirism.Killer.Success
p1019
ssS'3380462'
p1020
(dp1021
g3
V\u5438\u8840\u6a21\u5f0f
p1022
sg5
VVampirism
p1023
sg7
VHardcore.Vampirism.Name
p1024
ssS'2215960'
p1025
(dp1026
g3
V\u6563\u64ad\u83cc\u7d72\u9ad4\u81f3\u571f\u548c\u8349
p1027
sg5
VSpread mycelium to dirt & grass
p1028
sg7
VHerbalism.Effect.13
p1029
ssS'791921'
p1030
(dp1031
g3
V[[GREEN]]**\u767c\u52d5\u7da0\u5316**
p1032
sg5
V[[GREEN]]**GREEN TERRA ACTIVATED**
p1033
sg7
VHerbalism.Skills.GTe.On
p1034
ssS'2115614'
p1035
(dp1036
g3
V[[YELLOW]]\u6574\u9ad4[[GREEN]] - [[GOLD]]\u6392\u884c [[WHITE]]#[[GREEN]]{0}
p1037
sg5
V[[YELLOW]]Overall[[GREEN]] - [[GOLD]]Rank [[WHITE]]#[[GREEN]]{0}
p1038
sg7
VCommands.mcrank.Overall
p1039
ssS'792153'
p1040
(dp1041
g3
V\u901f\u5ea6+, 3\u500d\u6389\u843d\u7387
p1042
sg5
VSpeed+, Triple Drop Chance
p1043
sg7
VMining.Effect.1
p1044
ssS'791735'
p1045
(dp1046
g3
V[[RED]]**\u72c2\u66b4\u5df2\u7ed3\u675f**
p1047
sg5
V[[RED]]**Berserk has worn off**
p1048
sg7
VUnarmed.Skills.Berserk.Off
p1049
ssS'791734'
p1050
(dp1051
g3
V[[DARK_RED]]\u6230\u9b25\u529b: [[GREEN]]{0}
p1052
sg5
V[[DARK_RED]]POWER LEVEL: [[GREEN]]{0}
p1053
sg7
VCommands.PowerLevel
p1054
ssS'792118'
p1055
(dp1056
g3
V[[GREEN]]\u4f60\u6210\u529f\u5730\u4fdd\u7559\u4e86\u9019\u4ef6\u7269\u54c1\u7684\u9644\u9b54.
p1057
sg5
V[[GREEN]]You have sustained the arcane energies in this item.
p1058
sg7
VRepair.Arcane.Perfect
p1059
ssS'2115596'
p1060
(dp1061
g3
V[[RED]]\u66b4\u64ca\u6a5f\u7387: [[YELLOW]]{0}%
p1062
sg5
V[[RED]]Chance to critically strike: [[YELLOW]]{0}
p1063
sg7
VAxes.Combat.CritChance
p1064
ssS'792117'
p1065
(dp1066
g3
V[[RED]]\u9019\u500b\u968a\u4f0d\u5df2\u9396\u5b9a!\u53ea\u6709\u968a\u9577\u53ef\u4ee5\u9080\u8acb!
p1067
sg5
V[[RED]]Party is locked, only party leader may invite.
p1068
sg7
VParty.Locked
p1069
ssS'792114'
p1070
(dp1071
g3
V\u6316\u51fa\u5bf6\u85cf\u7684\u80fd\u529b
p1072
sg5
VAbility to dig for treasure
p1073
sg7
VExcavation.Effect.3
p1074
ssS'792115'
p1075
(dp1076
g3
V\u66b4\u8d70\u947d\u982d (\u4e3b\u52d5\u6280\u80fd)
p1077
sg5
VGiga Drill Breaker (ABILITY)
p1078
sg7
VExcavation.Effect.0
p1079
ssS'792112'
p1080
(dp1081
g3
V[[DARK_RED]]\u4f60\u7684\u6280\u80fd\u7b49\u7d1a\u4e0d\u8db3\u4ee5\u4fee\u7406\u9435\u88fd\u88dd\u5099!
p1082
sg5
V[[DARK_RED]]You're not skilled enough to repair Iron.
p1083
sg7
VRepair.Skills.AdeptIron
p1084
ssS'792113'
p1085
(dp1086
g3
V\u5bf6\u7269\u7375\u4eba
p1087
sg5
VTreasure Hunter
p1088
sg7
VExcavation.Effect.2
p1089
ssS'792111'
p1090
(dp1091
g3
V[[GREEN]]\u9080\u8acb\u8a0a\u606f\u767c\u9001\u6210\u529f
p1092
sg5
V[[GREEN]]Invite sent successfully.
p1093
sg7
VCommands.Invite.Success
p1094
ssS'791705'
p1095
(dp1096
g3
V[[GREEN]]**\u4f60\u63e1\u7dca\u8457\u4f60\u7684\u93ac\u5b50**
p1097
sg5
V[[GREEN]]**YOU READY YOUR PICKAXE**
p1098
sg7
VMining.Ability.Ready
p1099
ssS'791730'
p1100
(dp1101
g3
V[[GOLD]]mcMMO\u73fe\u6b63\u8655\u65bc\u7d93\u9a57\u503c\u52a0\u500d\u968e\u6bb5!\u7d93\u9a57\u503c\u6bd4\u4f8b\u70ba{0}!
p1102
sg5
V[[GOLD]]mcMMO is currently in an XP rate event! XP rate is {0}x!
p1103
sg7
VXPRate.Event
p1104
ssS'791703'
p1105
(dp1106
g3
V[[YELLOW]]\u6316\u7926\u6280\u80fd\u4e0a\u5347\u4e86 {0}. \u7e3d\u7b49\u7d1a  ({1})
p1107
sg5
V[[YELLOW]]Mining skill increased by {0}. Total ({1})
p1108
sg7
VMining.Skillup
p1109
ssS'3595881'
p1110
(dp1111
g3
V\u6709\u65b0\u7684\u7248\u672cBukkitDev\u3002
p1112
sg5
VThere is a new version available on BukkitDev.
p1113
sg7
VUpdateChecker.NewAvailable
p1114
ssS'3595880'
p1115
(dp1116
g3
V\u8010\u529b
p1117
sg5
VEndurance
p1118
sg7
VPerks.ActivationTime.Name
p1119
ssS'3889104'
p1120
(dp1121
g3
V[[DARK_AQUA]]mcMMO \u5f97\u5206\u699c\u5f9e\u73fe\u5728\u958b\u59cb\u5c07\u6703\u6e05\u9664 [[GOLD]]{0}[[DARK_AQUA]] \u79d2.
p1122
sg5
V[[DARK_AQUA]]The mcMMO scoreboard will clear [[GOLD]]{0}[[DARK_AQUA]] seconds from now.
p1123
sg7
VCommands.Scoreboard.Timer
p1124
ssS'3595882'
p1125
(dp1126
g3
V\u5feb\u901f\u56de\u5fa9
p1127
sg5
VFast Recovery
p1128
sg7
VPerks.Cooldowns.Name
p1129
ssS'3588435'
p1130
(dp1131
g3
V[[RED]]\u518d\u6b21\u4f7f\u7528\u6b64\u547d\u4ee4\u4e4b\u524d,\u4f60\u5fc5\u9808\u7b49\u4e0a1\u79d2.
p1132
sg5
V[[RED]]You must wait 1 second before using this command again.
p1133
sg7
VCommands.Database.Cooldown
p1134
ssS'792091'
p1135
(dp1136
g3
V\u653e\u8840
p1137
sg5
VBleed
p1138
sg7
VSwords.Effect.6
p1139
ssS'792002'
p1140
(dp1141
g3
V\u6bdb\u76ae\u5f37\u5316
p1142
sg5
VThick Fur
p1143
sg7
VTaming.Effect.8
p1144
ssS'2649390'
p1145
(dp1146
g3
V\u5947\u7f8e\u62c9\u4e4b\u7ffc
p1147
sg5
VChimaera Wing
p1148
sg7
VItem.ChimaeraWing.Name
p1149
ssS'2649391'
p1150
(dp1151
g3
V\u9396\u5b9a\u76f4\u5230\u6280\u80fd {0}+ (\u51b0\u91e3)
p1152
sg5
VLOCKED UNTIL {0}+ SKILL (ICE FISHING)
p1153
sg7
VFishing.Ability.Locked.1
p1154
ssS'2649392'
p1155
(dp1156
g3
V\u4f10\u6728
p1157
sg5
VWoodcutting
p1158
sg7
VParty.ItemShare.Category.Woodcutting
p1159
ssS'2649393'
p1160
(dp1161
g3
V\u4fee\u7406
p1162
sg5
VRepair
p1163
sg7
VRepair.Pretty.Name
p1164
ssS'2649394'
p1165
(dp1166
g3
V[[GRAY]]\u5373\u5c07\u5728 [[GOLD]]({0}) [[GRAY]]\u79d2\u5f8c\u50b3\u9001, \u8acb\u4e0d\u8981\u4e82\u52d5...
p1167
sg5
V[[GRAY]]Commencing teleport in [[GOLD]]({0}) [[GRAY]]seconds, please stand still...
p1168
sg7
VTeleport.Commencing
p1169
ssS'2649395'
p1170
(dp1171
g3
V\u62fe\u53d6
p1172
sg5
VLoot
p1173
sg7
VParty.ItemShare.Category.Loot
p1174
ssS'2649396'
p1175
(dp1176
g3
V[[GRAY]]\u50b3\u9001\u4f60\u5230\u4f60\u7684\u5e8a\u908a.
p1177
sg5
V[[GRAY]]Teleports you to your bed.
p1178
sg7
VItem.ChimaeraWing.Lore
p1179
ssS'2649397'
p1180
(dp1181
g3
V[[RED]]\u4f7f\u7528 [[DARK_AQUA]]{0} [[RED]]\u4f86\u548c\u968a\u54e1\u5206\u4eab\u7269\u54c1
p1182
sg5
V[[RED]]Use [[DARK_AQUA]]{0} [[RED]]to share items with party members
p1183
sg7
VParty.Help.9
p1184
ssS'2649398'
p1185
(dp1186
g3
V\u6316\u7926
p1187
sg5
VMining
p1188
sg7
VParty.ItemShare.Category.Mining
p1189
ssS'2649399'
p1190
(dp1191
g3
V[[RED]]\u4f60\u5fc5\u9808\u7b49\u5f85\u76f4\u5230\u53ef\u4ee5\u518d\u6b21\u4f7f\u7528! [[YELLOW]]({0}s)
p1192
sg5
V[[RED]]You need to wait before you can use this again! [[YELLOW]]({0}s)
p1193
sg7
VItem.Generic.Wait
p1194
ssS'791738'
p1195
(dp1196
g3
V[[GREEN]]\u4f60\u7684[[YELLOW]] \u8d85\u7d1a\u788e\u77f3\u6a5f [[GREEN]]\u80fd\u529b\u5df2\u53ef\u518d\u6b21\u4f7f\u7528\uff01
p1197
sg5
V[[GREEN]]Your [[YELLOW]]Super Breaker [[GREEN]]ability is refreshed!
p1198
sg7
VMining.Skills.SuperBreaker.Refresh
p1199
ssS'791948'
p1200
(dp1201
g3
V\u589e\u52a0{0}\u50b7\u5bb3
p1202
sg5
V+{0} DMG Upgrade
p1203
sg7
VUnarmed.Ability.Bonus.1
p1204
ssS'3587632'
p1205
(dp1206
g3
V[[DARK_AQUA]]\u4ec0\u9ebc\u662f\u5f37\u529b\u653b\u64ca?[[YELLOW]]\u5728\u653b\u64ca\u73a9\u5bb6\u6216\u602a\u7269\u6642\u6709\u88ab\u52d5\u6a5f\u7387\u70b8\u98db\u5c0d\u624b[[YELLOW]]\u9810\u8a2d\u6a5f\u7387\u70ba25%. \u70b8\u98db\u6548\u679c\u76f8\u7576\u65bc\u64ca\u9000II\u7684\u9644\u9b54[[YELLOW]]\u5916\u52a0\u5c0d\u76ee\u6a19\u7684\u52a0\u4e58\u653b\u64ca.
p1207
sg5
V[[DARK_AQUA]]How does Greater Impact work?\u005cn[[YELLOW]]You have a passive chance to achieve a greater impact when\u005cn[[YELLOW]]hitting mobs or players with your axe.\u005cn[[YELLOW]]By default this chance is 25%. This passive ability has an\u005cn[[YELLOW]]extreme knockback effect, similar to the Knockback II\u005cn[[YELLOW]]enchantment. In addition, it deals bonus damage to the target.
p1208
sg7
VGuides.Axes.Section.5
p1209
ssS'3587679'
p1210
(dp1211
g3
V[[DARK_AQUA]]\u4ec0\u9ebc\u662f\u79d8\u6cd5\u935b\u9020?[[YELLOW]]\u79d8\u6cd5\u935b\u9020\u8b93\u4f60\u6709\u6a5f\u7387\u7559\u4f4f\u5de5\u5177\u7684\u9644\u9b54.[[YELLOW]]\u9644\u9b54\u53ef\u80fd\u5728\u4fee\u5fa9\u6642\u964d\u7d1a\u6216\u6d88\u5931.
p1212
sg5
V[[DARK_AQUA]]How does Arcane Forging work?\u005cn[[YELLOW]]This passive ability allows you to repair items with a certain\u005cn[[YELLOW]]chance of maintaining its enchantments. The enchants may be\u005cn[[YELLOW]]kept at their existing levels, downgraded to a lower level,\u005cn[[YELLOW]]or lost entirely.
p1213
sg7
VGuides.Repair.Section.4
p1214
ssS'3587678'
p1215
(dp1216
g3
V[[DARK_AQUA]]\u4fee\u5fa9:[[YELLOW]]\u4fee\u5fa9\u6280\u80fd\u8b93\u4f60\u53ef\u4ee5\u4f7f\u7528\u9435\u78da(MMO\u9435\u7827)[[YELLOW]]\u4fee\u5fa9\u5de5\u5177,\u6216\u4f7f\u7528\u91d1\u78da\u56de\u6536\u5de5\u5177.[[DARK_AQUA]]\u7d93\u9a57\u7372\u53d6:[[YELLOW]]\u7528MMO\u9435\u7827\u4fee\u5fa9\u5de5\u5177.[[YELLOW]]\u9810\u8a2d\u662f\u9435\u78da,\u4e0d\u8981\u548c\u4e00\u822c\u7684\u9435\u7827\u641e\u6df7.
p1217
sg5
V[[DARK_AQUA]]About Repair:\u005cn[[YELLOW]]Repair allows you to use an iron block to repair armor and\u005cn[[YELLOW]]tools, or a gold block to salvage armor and tools.\u005cn\u005cn[[DARK_AQUA]]XP GAIN:\u005cn[[YELLOW]]Repair tools or armor using the mcMMO Anvil. This is an\u005cn[[YELLOW]]iron block by default and should not be confused with\u005cn[[YELLOW]]the Vanilla Minecraft Anvil.
p1218
sg7
VGuides.Repair.Section.0
p1219
ssS'791784'
p1220
(dp1221
g3
V[[GREEN]]\u4f60\u7684 [[YELLOW]]\u7da0\u5316 [[GREEN]]\u80fd\u529b\u5df2\u53ef\u4f7f\u7528!
p1222
sg5
V[[GREEN]]Your [[YELLOW]]Green Terra [[GREEN]]ability is refreshed!
p1223
sg7
VHerbalism.Skills.GTe.Refresh
p1224
ssS'792029'
p1225
(dp1226
g3
V[[WHITE]]**\u64ca\u843d\u5f13\u7bad**
p1227
sg5
V[[WHITE]]**ARROW DEFLECT**
p1228
sg7
VCombat.ArrowDeflect
p1229
ssS'791783'
p1230
(dp1231
g3
V[[GREEN]]**\u4f60\u63e1\u7dca\u8457\u4f60\u7684\u528d**
p1232
sg5
V[[GREEN]]**YOU READY YOUR SWORD**
p1233
sg7
VSwords.Ability.Ready
p1234
ssS'3633767'
p1235
(dp1236
g3
V[[DARK_AQUA]]\u4ec0\u9ebc\u662f\u5bf6\u7269\u7375\u4eba?[[YELLOW]]\u9019\u500b\u6280\u80fd\u8b93\u4f60\u5728\u91e3\u9b5a\u6642\u91e3\u5230\u5bf6\u7269[[YELLOW]]\u6709\u5c0f\u6a5f\u7387\u91e3\u5230\u9644\u9b54\u9053\u5177.[[YELLOW]]\u6bcf\u7a2e\u5bf6\u7269\u7684\u51fa\u73fe\u95dc\u4fc2\u5230[[YELLOW]]\u4f60\u7684\u91e3\u9b5a\u7b49\u7d1a. \u91e3\u9b5a\u7b49\u7d1a\u6108\u9ad8,[[YELLOW]]\u5c31\u80fd\u91e3\u5230\u6108\u591a\u6108\u597d\u7684\u5bf6\u7269.
p1237
sg5
V[[DARK_AQUA]]How does Treasure Hunter work?\u005cn[[YELLOW]]This ability allows you to find treasure from fishing \u005cn[[YELLOW]]with a small chance of the items being enchanted.\u005cn[[YELLOW]]Every possible treasure for Fishing has a chance\u005cn[[YELLOW]]to drop on any level. It depends however\u005cn[[YELLOW]]what the rarity of the item is how often it will drop.\u005cn[[YELLOW]]The higher your Fishing skill is, the better\u005cn[[YELLOW]]your chances are to find better treasures.
p1238
sg7
VGuides.Fishing.Section.1
p1239
ssS'791781'
p1240
(dp1241
g3
V[[RED]]\u72c2\u66b4[[GREEN]] \u5373\u5c07\u7ed3\u675f [[YELLOW]]{0}
p1242
sg5
V[[RED]]Berserk[[GREEN]] has worn off for [[YELLOW]]{0}
p1243
sg7
VUnarmed.Skills.Berserk.Other.Off
p1244
ssS'3587671'
p1245
(dp1246
g3
V[[DARK_AQUA]]\u5982\u4f55\u7528\u66b4\u8d70\u947d\u982d:[[YELLOW]]\u624b\u6301\u93df\u5b50\u4e26\u9ede\u53f3\u9375.[[YELLOW]]\u9032\u5165\u6b64\u72c0\u614b\u7d04\u80fd\u7dad\u63014\u79d2[[YELLOW]]\u4e00\u65e6\u63a5\u89f8\u5230\u76f8\u5bb9\u7684\u7269\u8cea\u4fbf\u80fd[[YELLOW]]\u89f8\u767c\u66b4\u8d70\u947d\u982d.
p1247
sg5
V[[DARK_AQUA]]How to use Giga Drill Breaker:\u005cn[[YELLOW]]With a shovel in hand right click to ready your tool.\u005cn[[YELLOW]]Once in this state you have about 4 seconds to make\u005cn[[YELLOW]]contact with Excavation compatible materials this will\u005cn[[YELLOW]]activate Giga Drill Breaker.
p1248
sg7
VGuides.Excavation.Section.2
p1249
ssS'3633768'
p1250
(dp1251
g3
V[[DARK_AQUA]]\u91e3\u9b5a\u7684\u6ce8\u610f\u4e8b\u9805:[[YELLOW]]\u6389\u843d\u8a2d\u5b9a\u662f\u53ef\u8abf\u6574\u7684,[[YELLOW]]\u5404\u4f3a\u670d\u5668\u53ef\u80fd\u6709\u6240\u4e0d\u540c.
p1252
sg5
V[[DARK_AQUA]]Notes about Fishing:\u005cn[[YELLOW]]Fishing drops are completely customizable,\u005cn[[YELLOW]]so results vary server to server.
p1253
sg7
VGuides.Fishing.Section.6
p1254
ssS'3587673'
p1255
(dp1256
g3
V[[DARK_AQUA]]\u95dc\u65bc\u6316\u6398:[[YELLOW]]\u6316\u6398\u662f\u4e00\u500b\u95dc\u65bc\u6316\u571f\u8207\u6316\u5bf6\u7684\u6280\u80fd.[[YELLOW]]\u6316\u6398\u5730\u9762\u53ef\u4ee5\u627e\u5230\u5bf6\u7269.[[YELLOW]]\u6316\u6108\u591a\u5bf6\u7269\u6108\u591a.[[DARK_AQUA]]\u7372\u53d6\u7d93\u9a57:[[YELLOW]]\u8981\u7372\u53d6\u7d93\u9a57\u5fc5\u9808\u6301\u6709\u93df\u5b50.[[YELLOW]]\u53ea\u6709\u7279\u5b9a\u7269\u8cea\u624d\u80fd\u6316\u5230\u5bf6\u7269\u6216\u7d93\u9a57.
p1257
sg5
V[[DARK_AQUA]]About Excavation:\u005cn[[YELLOW]]Excavation is the act of digging up dirt to find treasures.\u005cn[[YELLOW]]By excavating the land you will find treasures.\u005cn[[YELLOW]]The more you do this the more treasures you can find.\u005cn\u005cn[[DARK_AQUA]]XP GAIN:\u005cn[[YELLOW]]To gain XP in this skill you must dig with a shovel in hand.\u005cn[[YELLOW]]Only certain materials can be dug up for treasures and XP.
p1258
sg7
VGuides.Excavation.Section.0
p1259
ssS'3587672'
p1260
(dp1261
g3
V[[DARK_AQUA]]\u76f8\u5bb9\u7684\u7269\u8cea:[[YELLOW]]\u8349\u76ae, \u571f, \u6c99, \u9ecf\u571f, \u792b\u77f3, \u83cc\u7d72\u9ad4, \u9748\u9b42\u6c99
p1262
sg5
V[[DARK_AQUA]]Compatible Materials:\u005cn[[YELLOW]]Grass, Dirt, Sand, Clay, Gravel, Mycelium, Soul Sand
p1263
sg7
VGuides.Excavation.Section.1
p1264
ssS'792026'
p1265
(dp1266
g3
V\u7bad\u8853
p1267
sg5
VARCHERY
p1268
sg7
VArchery.SkillName
p1269
ssS'792027'
p1270
(dp1271
g3
V[[RED]]**\u5288\u9871\u65ac\u5df2\u7d50\u675f**
p1272
sg5
V[[RED]]**Skull Splitter has worn off**
p1273
sg7
VAxes.Skills.SS.Off
p1274
ssS'791861'
p1275
(dp1276
g3
V\u528d\u8853
p1277
sg5
VSWORDS
p1278
sg7
VSwords.SkillName
p1279
ssS'791860'
p1280
(dp1281
g16
V[[RED]]- \u7528\u6ed1\u9f20\u53f3\u9375\u5207\u63db\u6280\u80fd\u4f7f\u7528\u6a21\u5f0f
p1282
sg18
V[[RED]]- Toggle ability activation with right click
p1283
sg20
VCommands.ToggleAbility
p1284
ssS'3785638'
p1285
(dp1286
g3
V[[GOLD]]--= [[GREEN]]mcMMO \u80fd\u529b\u51b7\u537b\u6642\u9593[[GOLD]] =--
p1287
sg5
V[[GOLD]]--= [[GREEN]]mcMMO Ability Cooldowns[[GOLD]] =--
p1288
sg7
VCommands.Cooldowns.Header
p1289
ssS'3785637'
p1290
(dp1291
g3
V[[YELLOW]]mcMMO \u51b7\u537b\u6642\u9593
p1292
sg5
V[[YELLOW]]mcMMO Cooldowns
p1293
sg7
VScoreboard.Header.PlayerCooldowns
p1294
ssS'893583'
p1295
(dp1296
g3
V[[RED]]\u4fee\u7406\u7cbe\u901a: [[YELLOW]]\u984d\u5916\u56de\u5fa9 {0}% \u8010\u4e45\u5ea6
p1297
sg5
V[[RED]]Repair Mastery: [[YELLOW]]Extra {0} durability restored
p1298
sg7
VRepair.Skills.Mastery
p1299
ssS'893582'
p1300
(dp1301
g3
V\u4fee\u7406\u77f3\u982d ({0}+ SKILL)
p1302
sg5
VStone Repair ({0}+ SKILL)
p1303
sg7
VRepair.Effect.14
p1304
ssS'893581'
p1305
(dp1306
g3
V\u4fee\u7406\u77f3\u88fd\u5de5\u5177
p1307
sg5
VRepair Stone Tools
p1308
sg7
VRepair.Effect.15
p1309
ssS'893580'
p1310
(dp1311
g3
V\u4fee\u7406\u9435 ({0}+ SKILL)
p1312
sg5
VIron Repair ({0}+ SKILL)
p1313
sg7
VRepair.Effect.12
p1314
ssS'893587'
p1315
(dp1316
g3
V\u4f7f\u7528\u7a2e\u5b50\u8b93\u9d5d\u5375\u77f3\u8b8a\u9752\u82d4\u77f3,\u6216\u8b93\u6ce5\u571f\u8b8a\u8349\u5730
p1317
sg5
VMake bricks mossy, or make grass grow
p1318
sg7
VHerbalism.Effect.5
p1319
ssS'893585'
p1320
(dp1321
g3
V[[RED]]\u96d9\u500d\u6389\u843d\u6a5f\u7387: [[YELLOW]]{0}
p1322
sg5
V[[RED]]Double Drop Chance: [[YELLOW]]{0}
p1323
sg7
VMining.Effect.DropChance
p1324
ssS'893584'
p1325
(dp1326
g3
V[[RED]]\u96d9\u500d\u6389\u843d\u6a5f\u7387: [[YELLOW]]{0}
p1327
sg5
V[[RED]]Double Drop Chance: [[YELLOW]]{0}
p1328
sg7
VHerbalism.Ability.DoubleDropChance
p1329
ssS'893588'
p1330
(dp1331
g3
V[[RED]]\u4f60\u6c92\u6709\u67e5\u8a62\u96e2\u7dda\u73a9\u5bb6\u8a0a\u606f\u7684\u6b0a\u9650!
p1332
sg5
V[[RED]]You do not have permission to inspect offline players!
p1333
sg7
VInspect.Offline
p1334
ssS'791799'
p1335
(dp1336
g3
V[[YELLOW]]\u65a7\u6280\u4e0a\u5347\u4e86 {0}. \u7e3d\u7b49\u7d1a ({1})
p1337
sg5
V[[YELLOW]]Axes skill increased by {0}. Total ({1})
p1338
sg7
VAxes.Skillup
p1339
ssS'791919'
p1340
(dp1341
g3
V\u4f60\u7684\u8a0a\u606f
p1342
sg5
VYOUR STATS
p1343
sg7
VCommands.Stats.Self
p1344
ssS'3864601'
p1345
(dp1346
g16
V\u7d93\u9a57\u503c
p1347
sg18
VXP
p1348
sg20
VParty.ShareType.Xp
p1349
ssS'792021'
p1350
(dp1351
g3
V\u99b4\u7378
p1352
sg5
VTAMING
p1353
sg7
VTaming.SkillName
p1354
ssS'791798'
p1355
(dp1356
g3
V[[DARK_RED]]\u88ab\u5272\u88c2\u65ac\u653b\u64ca\uff01
p1357
sg5
V[[DARK_RED]]Struck by SERRATED STRIKES!
p1358
sg7
VSwords.Combat.SS.Struck
p1359
ssS'2127529'
p1360
(dp1361
g3
V\u6d77\u502b\u7684\u795d\u798f
p1362
sg5
VHylian Luck
p1363
sg7
VHerbalism.Effect.10
p1364
ssS'2239117'
p1365
(dp1366
g3
V[[RED]]\u4f60\u5728{0}\u79d2\u524d\u88ab\u653b\u64ca\u6240\u4ee5\u7121\u6cd5\u50b3\u9001.
p1367
sg5
V[[RED]]You have been hurt in the last {0} seconds and cannot teleport.
p1368
sg7
VParty.Teleport.Hurt
p1369
ssS'2093998'
p1370
(dp1371
g3
V\u6f01\u4eba\u4fbf\u7576
p1372
sg5
VFisherman's Diet
p1373
sg7
VFishing.Effect.6
p1374
ssS'2215959'
p1375
(dp1376
g3
V\u8611\u83c7\u624b
p1377
sg5
VShroom Thumb
p1378
sg7
VHerbalism.Effect.12
p1379
ssS'2215958'
p1380
(dp1381
g3
V[[RED]]\u8611\u83c7\u624b\u89f8\u767c\u6a5f\u7387: [[YELLOW]]{0}
p1382
sg5
V[[RED]]Shroom Thumb Chance: [[YELLOW]]{0}
p1383
sg7
VHerbalism.Ability.ShroomThumb.Chance
p1384
ssS'2215957'
p1385
(dp1386
g3
V[[RED]]**\u78e8\u83c7\u624b\u4f7f\u7528\u5931\u6557**
p1387
sg5
V[[RED]]**SHROOM THUMB FAIL**
p1388
sg7
VHerbalism.Ability.ShroomThumb.Fail
p1389
ssS'2093992'
p1390
(dp1391
g3
V\u9396\u5b9a\u76f4\u5230\u6280\u80fd {0}+  (\u6bdb\u76ae\u5f37\u5316)
p1392
sg5
VLOCKED UNTIL {0}+ SKILL (THICK FUR)
p1393
sg7
VTaming.Ability.Locked.1
p1394
ssS'2093991'
p1395
(dp1396
g3
V\u9396\u5b9a\u76f4\u5230\u6280\u80fd {0}+  (\u885d\u64ca\u683c\u64cb)
p1397
sg5
VLOCKED UNTIL {0}+ SKILL (SHOCK PROOF)
p1398
sg7
VTaming.Ability.Locked.2
p1399
ssS'2093990'
p1400
(dp1401
g3
V\u9396\u5b9a\u76f4\u5230\u6280\u80fd {0}+  (\u5229\u722a)
p1402
sg5
VLOCKED UNTIL {0}+ SKILL (SHARPENED CLAWS)
p1403
sg7
VTaming.Ability.Locked.3
p1404
ssS'2093997'
p1405
(dp1406
g3
V\u98df\u7528\u9b5a\u98df\u54c1\u6642\u984d\u5916\u6062\u5fa9\u98fd\u98df\u5ea6
p1407
sg5
VImproves hunger restored from fished foods
p1408
sg7
VFishing.Effect.7
p1409
ssS'2093996'
p1410
(dp1411
g3
V[[DARK_RED]]\u6230\u9b25\u529b: [[GREEN]]{0} [[DARK_RED]]\u6700\u9ad8\u7b49\u7d1a: [[YELLOW]]{1}
p1412
sg5
V[[DARK_RED]]POWER LEVEL: [[GREEN]]{0} [[DARK_RED]]MAX LEVEL: [[YELLOW]]{1}
p1413
sg7
VCommands.PowerLevel.Capped
p1414
ssS'2093995'
p1415
(dp1416
g16
V[[RED]]\u8a2d\u5b9a\u6280\u80fd\u7b49\u7d1a\u70ba0
p1417
sg18
V[[RED]]Reset a skill's level to 0
p1418
sg20
VCommands.Reset
p1419
ssS'2093994'
p1420
(dp1421
g3
V\u9396\u5b9a\u76f4\u5230\u6280\u80fd {0}+  (\u5feb\u9910\u670d\u52d9)
p1422
sg5
VLOCKED UNTIL {0}+ SKILL (FAST FOOD SERVICE)
p1423
sg7
VTaming.Ability.Locked.4
p1424
ssS'3595870'
p1425
(dp1426
g3
V\u6e1b\u5c11\u51b7\u537b\u6642\u9593 {0}
p1427
sg5
VCuts cooldown duration by {0}.
p1428
sg7
VPerks.Cooldowns.Desc
p1429
ssS'3595871'
p1430
(dp1431
g3
V\u67d0\u6a23\u6280\u80fd\u7372\u5f97\u5927\u91cf\u7d93\u9a57\u503c.
p1432
sg5
VReceive boosted XP in certain skills.
p1433
sg7
VPerks.XP.Desc
p1434
ssS'3595872'
p1435
(dp1436
g3
V\u7d66\u4e88 {0} \u6280\u80fd\u9ad8\u65bc33.3%\u4ee5\u4e0a\u7684\u6a5f\u7387\u89f8\u767c
p1437
sg5
VGives {0} skills and abilities a 33.3% better chance to activate.
p1438
sg7
VPerks.Lucky.Desc
p1439
ssS'3595873'
p1440
(dp1441
g3
V\u63d0\u9ad8\u80fd\u529b \u6301\u7e8c\u6642\u9593: {0} \u79d2
p1442
sg5
VIncreases ability activation time by {0} seconds.
p1443
sg7
VPerks.ActivationTime.Desc
p1444
ssS'3595874'
p1445
(dp1446
g3
V\u7d93\u9a57\u503c
p1447
sg5
VExperience
p1448
sg7
VPerks.XP.Name
p1449
ssS'3595875'
p1450
(dp1451
g3
V[[GOLD]] ({0}\u5f88\u8d70\u904b)
p1452
sg5
V[[GOLD]] ({0} with Lucky Perk)
p1453
sg7
VPerks.Lucky.Bonus
p1454
ssS'3595876'
p1455
(dp1456
g3
V\u60a8\u4f7f\u7528\u7684\u662f\u904e\u6642\u7684\u7248\u672cmcMMO\uff01
p1457
sg5
VYou are using an outdated version of mcMMO!
p1458
sg7
VUpdateChecker.Outdated
p1459
ssS'3595877'
p1460
(dp1461
g3
V\u7d66\u4e88\u6280\u80fd\u9ad8\u65bc33.3%\u4ee5\u4e0a\u7684\u6a5f\u7387\u89f8\u767c
p1462
sg5
VGives certain skills and abilities a 33.3% better chance to activate.
p1463
sg7
VPerks.Lucky.Desc.Login
p1464
ssS'3595878'
p1465
(dp1466
g3
V\u5e78\u904b
p1467
sg5
VLuck
p1468
sg7
VPerks.Lucky.Name
p1469
ssS'3595879'
p1470
(dp1471
g3
V[[GOLD]] ({0}\u8010\u4e45\u52a0\u4e58)
p1472
sg5
V[[GOLD]] ({0}s with Endurance Perk)
p1473
sg7
VPerks.ActivationTime.Bonus
p1474
ssS'3587674'
p1475
(dp1476
g3
V[[DARK_AQUA]]\u4ec0\u9ebc\u662f\u7da0\u624b\u6307(\u4f5c\u7269)?[[YELLOW]]\u9019\u662f\u4e00\u500b\u88ab\u52d5\u6280\u80fd,\u8b93\u4f5c\u7269\u5728\u63a1\u6536\u6642[[YELLOW]]\u81ea\u52d5\u7a2e\u56de\u53bb.[[YELLOW]]\u6210\u529f\u7387\u95dc\u4fc2\u5230\u4f60\u7684\u8349\u85e5\u5b78\u6280\u80fd\u7b49\u7d1a.
p1477
sg5
V[[DARK_AQUA]]How does Green Thumb (Crops) work?\u005cn[[YELLOW]]This passive ability will automatically replant crops when\u005cn[[YELLOW]]harvesting.\u005cn[[YELLOW]]Your chance of success depends on your Herbalism skill.
p1478
sg7
VGuides.Herbalism.Section.3
p1479
ssS'2093967'
p1480
(dp1481
g3
V[[GREEN]]\u4f60\u5168\u90e8\u7684\u6280\u80fd\u7b49\u7d1a\u4ee5\u91cd\u7f6e\u6210\u529f.
p1482
sg5
V[[GREEN]]All of your skill levels have been reset successfully.
p1483
sg7
VCommands.Reset.All
p1484
ssS'2093964'
p1485
(dp1486
g3
V[[YELLOW]]\u528d\u8853\u6280\u80fd\u4e0a\u5347\u4e86 {0}. \u7e3d\u7b49\u7d1a ({1})
p1487
sg5
V[[YELLOW]]Swords skill increased by {0}. Total ({1})
p1488
sg7
VSwords.Skillup
p1489
ssS'2093965'
p1490
(dp1491
g3
V\u9396\u5b9a\u76f4\u5230\u6280\u80fd {0}+ \uff08\u6416\u6643\uff09
p1492
sg5
VLOCKED UNTIL {0}+ SKILL (SHAKE)
p1493
sg7
VFishing.Ability.Locked.0
p1494
ssS'2093962'
p1495
(dp1496
g3
V[[DARK_RED]]\u4f60\u653e\u7f6e\u4e86\u4e00\u500b\u56de\u6536\u53f0,\u4f7f\u7528\u5b83\u4f86\u56de\u6536\u5de5\u5177\u548c\u88dd\u7532
p1497
sg5
V[[DARK_RED]]You have placed a Salvage anvil, use this to Salvage tools and armor.
p1498
sg7
VRepair.Listener.Anvil2
p1499
ssS'2093963'
p1500
(dp1501
g3
V[[GREEN]]\u4f60\u7684 {0} \u6280\u80fd\u7b49\u7d1a\u4ee5\u91cd\u7f6e\u6210\u529f.
p1502
sg5
V[[GREEN]]Your {0} skill level has been reset successfully.
p1503
sg7
VCommands.Reset.Single
p1504
ssS'2093969'
p1505
(dp1506
g3
V\u9396\u5b9a\u76f4\u5230\u6280\u80fd {0}+ (\u79cb\u98a8\u6383\u843d\u8449)
p1507
sg5
VLOCKED UNTIL {0}+ SKILL (LEAF BLOWER)
p1508
sg7
VWoodcutting.Ability.Locked.0
p1509
ssS'3380428'
p1510
(dp1511
g3
V[[GOLD]][mcMMO] [[YELLOW]]{0}[[GRAY]]\u592a\u4e0d\u7d14\u719f\u4ee5\u81f3\u65bc\u7121\u6cd5\u8b93\u4f60\u7372\u5f97\u4efb\u4f55\u7684\u77e5\u8b58.
p1512
sg5
V[[GOLD]][mcMMO] [[YELLOW]]{0}[[GRAY]] was too unskilled to grant you any knowledge.
p1513
sg7
VHardcore.Vampirism.Killer.Failure
p1514
ssS'2138159'
p1515
(dp1516
g3
V[[RED]]\u6d41\u80fd\u6316\u7926\u6a5f\u7387: [[YELLOW]]{0}
p1517
sg5
V[[RED]]Flux Mining Chance: [[YELLOW]]{0}
p1518
sg7
VSmelting.Ability.FluxMining
p1519
ssS'3380530'
p1520
(dp1521
g3
V[[GOLD]][mcMMO] \u72c0\u614b\u5438\u6536\u7387\u8b8a\u66f4\u70ba {0}.
p1522
sg5
V[[GOLD]][mcMMO] The stat leech percentage was changed to {0}.
p1523
sg7
VHardcore.Vampirism.PercentageChanged
p1524
ssS'2138157'
p1525
(dp1526
g3
V[[GREEN]]\u7926\u7269\u81ea\u52d5\u51b6\u7149!
p1527
sg5
V[[GREEN]]That ore smelted itself!
p1528
sg7
VSmelting.FluxMining.Success
p1529
ssS'2138156'
p1530
(dp1531
g3
V\u51b6\u7149:
p1532
sg5
VSmelting:
p1533
sg7
VSmelting.Listener
p1534
ssS'2138155'
p1535
(dp1536
g3
V\u9396\u5b9a\u76f4\u5230\u6280\u80fd {0}+ (\u6d41\u80fd\u6316\u7926)
p1537
sg5
VLOCKED UNTIL {0}+ SKILL (FLUX MINING)
p1538
sg7
VSmelting.Ability.Locked.1
p1539
ssS'2138154'
p1540
(dp1541
g3
V\u9396\u5b9a\u76f4\u5230\u6280\u80fd {0}+ (\u4e00\u822c\u7d93\u9a57\u52a0\u6210)
p1542
sg5
VLOCKED UNTIL {0}+ SKILL (VANILLA XP BOOST)
p1543
sg7
VSmelting.Ability.Locked.0
p1544
ssS'792024'
p1545
(dp1546
g3
V\u653b\u64ca\u602a\u7269
p1547
sg5
VAttacking Monsters
p1548
sg7
VCommands.XPGain.Unarmed
p1549
ssS'791737'
p1550
(dp1551
g3
V[[GOLD]]-=\u63a1\u96c6\u6280\u80fd=-
p1552
sg5
V[[GOLD]]-=GATHERING SKILLS=-
p1553
sg7
VStats.Header.Gathering
p1554
ssS'791736'
p1555
(dp1556
g3
V[[DARK_RED]]\u4f60\u7684\u6280\u80fd\u7b49\u7d1a\u4e0d\u8db3\u4ee5\u4fee\u7406\u9ec4\u91d1\u88dd\u5099!
p1557
sg5
V[[DARK_RED]]You're not skilled enough to repair Gold.
p1558
sg7
VRepair.Skills.AdeptGold
p1559
ssS'792099'
p1560
(dp1561
g3
V\u627e\u5230\u9644\u9b54\u7269\u54c1
p1562
sg5
VFind Enchanted Items
p1563
sg7
VFishing.Effect.3
p1564
ssS'792098'
p1565
(dp1566
g3
V\u5bf6\u7269\u7375\u4eba (\u88ab\u52d5\u6280\u80fd)
p1567
sg5
VTreasure Hunter (Passive)
p1568
sg7
VFishing.Effect.0
p1569
ssS'792156'
p1570
(dp1571
g3
V\u6316\u7926\u7206\u767c
p1572
sg5
VBlast Mining
p1573
sg7
VMining.Effect.4
p1574
ssS'792157'
p1575
(dp1576
g3
V\u4f7f\u7528TNT\u6316\u7926\u6703\u7372\u5f97\u984d\u5916\u734e\u52f5
p1577
sg5
VBonuses to mining with TNT
p1578
sg7
VMining.Effect.5
p1579
ssS'792154'
p1580
(dp1581
g3
V\u96d9\u500d\u6389\u843d
p1582
sg5
VDouble Drops
p1583
sg7
VMining.Effect.2
p1584
ssS'792155'
p1585
(dp1586
g3
V\u96d9\u500d\u6389\u843d\u7269\u54c1
p1587
sg5
VDouble the normal loot
p1588
sg7
VMining.Effect.3
p1589
ssS'792093'
p1590
(dp1591
g3
V[[RED]]\u9019\u4ef6\u7269\u54c1\u7684\u9644\u9b54\u7b49\u7d1a\u5df2\u4e0b\u964d
p1592
sg5
V[[RED]]Arcane power has decreased for this item.
p1593
sg7
VRepair.Arcane.Downgrade
p1594
ssS'792092'
p1595
(dp1596
g3
V[[GOLD]]mcMMO \u7d93\u9a57\u503c\u73fe\u5728\u52a0\u500d {0}x!
p1597
sg5
V[[GOLD]]mcMMO XP RATE IS NOW {0}x!
p1598
sg7
VCommands.xprate.started.1
p1599
ssS'792158'
p1600
(dp1601
g3
V\u589e\u52a0TNT\u7206\u70b8\u7bc4\u570d
p1602
sg5
VIncreases TNT explosion radius
p1603
sg7
VMining.Effect.7
p1604
ssS'792159'
p1605
(dp1606
g3
V\u7206\u7834\u5c08\u5bb6
p1607
sg5
VDemolitions Expertise
p1608
sg7
VMining.Effect.8
p1609
ssS'792097'
p1610
(dp1611
g3
V\u6389\u5230\u96dc\u7269
p1612
sg5
VFish up misc. objects
p1613
sg7
VFishing.Effect.1
p1614
ssS'792096'
p1615
(dp1616
g3
V\u6416\u6643 (\u5c0d\u602a\u7269\u4f7f\u7528)
p1617
sg5
VShake (vs. Entities)
p1618
sg7
VFishing.Effect.4
p1619
ssS'792095'
p1620
(dp1621
g3
V\u7528\u91e3\u7aff\u628a\u602a\u7269\u7684\u7269\u54c1\u53d6\u4e0b\u4f86
p1622
sg5
VShake items off of mobs w/ fishing pole
p1623
sg7
VFishing.Effect.5
p1624
ssS'792094'
p1625
(dp1626
g3
V[mcMMO] \u795e\u4e4b\u6a21\u5f0f\u4e0d\u5141\u8a31\u5728\u9019\u4e16\u754c\u958b\u555f (\u8acb\u89c0\u770b\u6b0a\u9650\u8a2d\u5b9a)
p1627
sg5
V[mcMMO] God Mode not permitted on this world (See Permissions)
p1628
sg7
VCommands.GodMode.Forbidden
p1629
ssS'2127526'
p1630
(dp1631
g3
V[[GREEN]]\u8c50\u6536\u5973\u795e\u4eca\u65e5\u8207\u4f60\u540c\u5728!
p1632
sg5
V[[GREEN]]The luck of Hyrule is with you today!
p1633
sg7
VHerbalism.HylianLuck
p1634
ssS'2127527'
p1635
(dp1636
g3
V[[RED]]\u6d77\u502b\u7684\u795d\u798f\u6a5f\u7387: [[YELLOW]]{0}
p1637
sg5
V[[RED]]Hylian Luck Chance: [[YELLOW]]{0}
p1638
sg7
VHerbalism.Ability.HylianLuck
p1639
ssS'2195758'
p1640
(dp1641
g3
V[[RED]]\u8981\u5275\u5efa\u4e00\u500b\u968a\u4f0d\uff0c\u8acb\u4f7f\u7528[[DARK_AQUA]] {0} <name> [password].
p1642
sg5
V[[RED]]To create a party, use [[DARK_AQUA]]{0} <name> [password].
p1643
sg7
VParty.Help.1
p1644
ssS'2195759'
p1645
(dp1646
g3
V[[RED]]\u4f7f\u7528 [[DARK_AQUA]]{0} <player> [password] [[RED]]\u4f86\u52a0\u5165\u6216\u4f7f\u7528 [[DARK_AQUA]]{1} [[RED]]\u4f86\u96e2\u958b
p1647
sg5
V[[RED]]Use [[DARK_AQUA]]{0} <player> [password] [[RED]]to join or [[DARK_AQUA]]{1} [[RED]]to quit
p1648
sg7
VParty.Help.3
p1649
ssS'2195756'
p1650
(dp1651
g3
V[[RED]]\u968a\u4f0d\u7d93\u9a57\u5171\u4eab\u5df2\u505c\u7528.
p1652
sg5
V[[RED]]Party experience sharing is disabled.
p1653
sg7
VParty.ExpShare.Disabled
p1654
ssS'792025'
p1655
(dp1656
g3
V[[YELLOW]]mcMMO \u795e\u4e4b\u6a21\u5f0f\u958b\u555f
p1657
sg5
V[[YELLOW]]mcMMO Godmode Enabled
p1658
sg7
VCommands.GodMode.Enabled
p1659
ssS'2195750'
p1660
(dp1661
g3
V\u8abf\u6574mcMMO\u786c\u6d3e\u6bd4\u4f8b\u6216\u5207\u63db\u786c\u6d3e\u6a21\u5f0f (\u958b/\u95dc)
p1662
sg5
VModify the mcMMO hardcore percentage or toggle hardcore mode on/off
p1663
sg7
VCommands.Description.hardcore
p1664
ssS'2195753'
p1665
(dp1666
g3
V[[RED]]\u6b63\u78ba\u7528\u6cd5\u70ba[[DARK_AQUA]]{0} <player> [password].
p1667
sg5
V[[RED]]Proper usage is [[DARK_AQUA]]{0} <player> [password].
p1668
sg7
VParty.Help.0
p1669
ssS'3823879'
p1670
(dp1671
g3
V[[GOLD]][mcMMO] \u786c\u6d3e\u6a21\u5f0f {0} \u958b\u555f. {1}
p1672
sg5
V[[GOLD]][mcMMO] Hardcore mode {0} enabled for {1}.
p1673
sg7
VHardcore.Mode.Enabled
p1674
ssS'3785659'
p1675
(dp1676
g3
V[[DARK_AQUA]]/mcscoreboard[[AQUA]] \u6642\u9593 [n] [[WHITE]] - \u5728 [[LIGHT_PURPLE]]n[[WHITE]] \u79d2\u4e4b\u5f8c\u6e05\u9664 McMMO \u5f97\u5206\u699c
p1677
sg5
V[[DARK_AQUA]]/mcscoreboard[[AQUA]] time [n] [[WHITE]] - clear the McMMO scoreboard after [[LIGHT_PURPLE]]n[[WHITE]] seconds
p1678
sg7
VCommands.Scoreboard.Help.3
p1679
ssS'3785658'
p1680
(dp1681
g3
V[[GOLD]] == [[RED]]/mcscoreboard [[GREEN]]\u8aaa\u660e [[GOLD]]==
p1682
sg5
V[[GOLD]] == [[GREEN]]Help for [[RED]]/mcscoreboard[[GOLD]] ==
p1683
sg7
VCommands.Scoreboard.Help.0
p1684
ssS'3785657'
p1685
(dp1686
g3
V[[DARK_AQUA]]/mcscoreboard[[AQUA]] clear [[WHITE]] - \u6e05\u9664 McMMO \u5f97\u5206\u699c
p1687
sg5
V[[DARK_AQUA]]/mcscoreboard[[AQUA]] clear [[WHITE]] - clear the McMMO scoreboard
p1688
sg7
VCommands.Scoreboard.Help.1
p1689
ssS'791851'
p1690
(dp1691
g3
V\u6280\u8853\u5c04\u64ca
p1692
sg5
VSkill Shot
p1693
sg7
VArchery.Effect.0
p1694
ssS'3785656'
p1695
(dp1696
g3
V[[YELLOW]]\u5269\u9918\u7d93\u9a57\u503c
p1697
sg5
V[[YELLOW]]Remaining XP
p1698
sg7
VScoreboard.Misc.RemainingXP
p1699
ssS'3785655'
p1700
(dp1701
g3
V[[GOLD]]\u5c0f\u6280\u5de7: \u8f38\u5165 [[RED]]/mcscoreboard clear[[GOLD]] \u4f86\u6e05\u9664\u5f97\u5206\u699c.
p1702
sg5
V[[GOLD]]Tip: Use [[RED]]/mcscoreboard clear[[GOLD]] to get rid of the scoreboard.
p1703
sg7
VCommands.Scoreboard.Tip.Clear
p1704
ssS'2124957'
p1705
(dp1706
g3
V\u7b49\u7d1a
p1707
sg5
Vlevel
p1708
sg7
VCommands.Usage.Level
p1709
ssS'2124954'
p1710
(dp1711
g3
V\u8a0a\u606f
p1712
sg5
Vmessage
p1713
sg7
VCommands.Usage.Message
p1714
ssS'2124955'
p1715
(dp1716
g3
V[[RED]]\u76ee\u6a19: [[WHITE]]{0}
p1717
sg5
V[[RED]]TARGET: [[WHITE]]{0}
p1718
sg7
VCommands.mcrank.Player
p1719
ssS'2190050'
p1720
(dp1721
g3
V\u66f4\u63db\u4f60\u7684McMMO HUD\u98a8\u683c
p1722
sg5
VChange your mcMMO HUD style
p1723
sg7
VCommands.Description.mchud
p1724
ssS'2124953'
p1725
(dp1726
g3
V[[RED]]\u4f60\u9700\u8981\u66f4\u591a\u7a2e\u5b50\u624d\u53ef\u7da0\u5316.
p1727
sg5
V[[RED]]You need more seeds to spread Green Terra.
p1728
sg7
VHerbalism.Ability.GTe.NeedMore
p1729
ssS'2190052'
p1730
(dp1731
g3
V\u986f\u793a\u6240\u6709mcMMO\u7684\u6392\u540d
p1732
sg5
VShow mcMMO ranking for a player
p1733
sg7
VCommands.Description.mcrank
p1734
ssS'2124951'
p1735
(dp1736
g3
V[[GREEN]]\u4f60\u6210\u70ba\u4e86\u968a\u9577.
p1737
sg5
V[[GREEN]]You are now the party leader.
p1738
sg7
VParty.Owner.Player
p1739
ssS'3633769'
p1740
(dp1741
g3
V[[DARK_AQUA]]\u4ec0\u9ebc\u662f\u6416\u6643?[[YELLOW]]\u9019\u500b\u6280\u80fd\u8b93\u4f60\u53ef\u4ee5\u5f9e\u602a\u7269\u8eab\u4e0a\u626f\u4e0b\u5bf6\u7269.[[YELLOW]]\u53ea\u8981\u4f7f\u7528\u91e3\u7aff\u91e3\u602a\u7269,[[YELLOW]]\u80fd\u91e3\u51fa\u602a\u7269\u6b7b\u4ea1\u6642\u6703\u6389\u7684\u5bf6\u7269.[[YELLOW]]\u9019\u6280\u80fd\u751a\u81f3\u80fd\u91e3\u51fa\u8eab\u5b58\u6a21\u5f0f\u7121\u6cd5\u7372\u5f97\u7684[[YELLOW]]\u602a\u7269\u982d\u9871.
p1742
sg5
V[[DARK_AQUA]]How does Shake work?\u005cn[[YELLOW]]This active ability allows you to shake items loose from mobs\u005cn[[YELLOW]]by hooking them with the fishing rod. \u005cn[[YELLOW]]Mobs will drop items they would normally drop on death.\u005cn[[YELLOW]]It is also possible to acquire mob skulls, which are normally \u005cn[[YELLOW]]unobtainable in survival mode.
p1743
sg7
VGuides.Fishing.Section.4
p1744
ssS'792042'
p1745
(dp1746
g3
V\u96e2\u7dda\u73a9\u5bb6\u7684 [mcMMO] \u7d71\u8a08\u8a0a\u606f [[YELLOW]]{0}
p1747
sg5
VmcMMO Stats for Offline Player [[YELLOW]]{0}
p1748
sg7
VInspect.OfflineStats
p1749
ssS'2124958'
p1750
(dp1751
g3
V[[GREEN]]\u6578\u64da\u5df2\u91cd\u7f6e!
p1752
sg5
V[[GREEN]]The database was successfully purged!
p1753
sg7
VCommands.mcpurge.Success
p1754
ssS'2124959'
p1755
(dp1756
g3
V[[GREEN]]{1}\u6280\u80fd\u5df2\u589e\u52a0{0}\u7b49!
p1757
sg5
V[[GREEN]]You were awarded {0} levels in {1}!
p1758
sg7
VCommands.addlevels.AwardSkill.1
p1759
ssS'791823'
p1760
(dp1761
g3
V\u5df2\u589e\u52a0\u4fee\u7406\u6578\u91cf
p1762
sg5
VIncreased repair amount
p1763
sg7
VRepair.Effect.3
p1764
ssS'791822'
p1765
(dp1766
g3
V\u4fee\u7406
p1767
sg5
VRepair
p1768
sg7
VRepair.Effect.0
p1769
ssS'791820'
p1770
(dp1771
g3
V\u947d\u77f3\u4fee\u7406 ({0}+ SKILL)
p1772
sg5
VDiamond Repair ({0}+ SKILL)
p1773
sg7
VRepair.Effect.6
p1774
ssS'791827'
p1775
(dp1776
g3
V[[RED]]\u4f60\u7684\u6280\u80fd\u7b49\u7d1a\u4e0d\u8db3\u4ee5\u4fdd\u7559\u9644\u9b54\u5c6c\u6027.
p1777
sg5
V[[RED]]You were not skilled enough to keep any enchantments.
p1778
sg7
VRepair.Arcane.Lost
p1779
ssS'3587638'
p1780
(dp1781
g3
V[[DARK_AQUA]]\u4ec0\u9ebc\u662f\u91ce\u6027\u547c\u558a?[[YELLOW]]\u91ce\u6027\u547c\u558a\u662f\u4e00\u500b\u4e3b\u52d5\u6280\u80fd\u8b93\u4f60[[YELLOW]]\u53ef\u4ee5\u53ec\u559a\u4e00\u96bb\u72fc\u6216\u8c79\u8c93,[[YELLOW]]\u53ea\u8981\u624b\u630110\u8ddf\u9aa8\u982d\u6216\u751f\u9b5a,\u9ede\u5de6\u9375.
p1782
sg5
V[[DARK_AQUA]]How does Call of the Wild work?\u005cn[[YELLOW]]Call of the Wild is an active ability that will allow you to summon\u005cn[[YELLOW]]a wolf or an ocelot by your side. You can do this by\u005cn[[YELLOW]]left-clicking while holding bones or fish.
p1783
sg7
VGuides.Taming.Section.1
p1784
ssS'791825'
p1785
(dp1786
g3
V\u528d\u8853:
p1787
sg5
VSwords:
p1788
sg7
VSwords.Listener
p1789
ssS'791824'
p1790
(dp1791
g3
V\u4fee\u7406\u7cbe\u901a
p1792
sg5
VRepair Mastery
p1793
sg7
VRepair.Effect.2
p1794
ssS'3587635'
p1795
(dp1796
g3
V[[DARK_AQUA]]\u4ec0\u9ebc\u662f\u6703\u5fc3\u4e00\u64ca?[[YELLOW]]\u6703\u5fc3\u4e00\u64ca\u662f\u4e00\u500b\u53ef\u4ee5\u9020\u6210\u52a0\u4e58\u50b7\u5bb3\u7684\u88ab\u52d5\u6280\u80fd.[[YELLOW]]\u9810\u8a2d\u65a7\u6280\u6bcf\u5347\u5169\u7b49,\u53ef\u589e\u52a00.1%\u66b4\u64ca\u7387[[YELLOW]]\u5c0d\u602a\u7269\u67092\u500d\u653b\u64ca\u529b\u5c0d\u73a9\u5bb6\u67091.5\u500d.
p1797
sg5
V[[DARK_AQUA]]How does Critical Strikes work?\u005cn[[YELLOW]]Critical Strikes is a passive ability which gives players a\u005cn[[YELLOW]]chance to deal additional damage.\u005cn[[YELLOW]]With the default settings, every 2 skill levels in Axes awards a\u005cn[[YELLOW]]0.1% chance to deal a Critical Strike, causing 2.0 times damage\u005cn[[YELLOW]]to mobs or 1.5 times damage against other players.
p1798
sg7
VGuides.Axes.Section.2
p1799
ssS'3587634'
p1800
(dp1801
g3
V[[DARK_AQUA]]\u4ec0\u9ebc\u662f\u5288\u9871\u65ac?[[YELLOW]]\u9019\u662f\u4e00\u500b\u4e3b\u52d5\u6280\u80fd(\u7bc4\u570d\u6280).[[YELLOW]]\u9031\u906d\u88ab\u6ce2\u53ca\u7684\u50b7\u5bb3\u70ba\u4e3b\u8981\u76ee\u6a19\u7684\u4e00\u534a[[YELLOW]]\u662f\u7528\u4f86\u6e05\u9664\u4e00\u5768\u602a\u7269\u7684\u5fc5\u5099\u7d55\u62db.
p1802
sg5
V[[DARK_AQUA]]How does Skull Splitter work?\u005cn[[YELLOW]]This ability allows you to deal an AoE (Area of Effect) hit.\u005cn[[YELLOW]]This AoE hit will deal half as much damage as you did to the\u005cn[[YELLOW]]main target, so it's great for clearing out large piles of mobs.
p1803
sg7
VGuides.Axes.Section.1
p1804
ssS'3587637'
p1805
(dp1806
g3
V[[DARK_AQUA]]\u5982\u4f55\u4fee\u5fa9?[[YELLOW]]\u624b\u6301\u8981\u4fee\u5fa9\u7684\u5de5\u5177\u5c0d\u9435\u78da\u9ede\u64ca\u53f3\u9375[[YELLOW]]\u6703\u6d88\u80171\u500b\u4e3b\u539f\u6599.
p1807
sg5
V[[DARK_AQUA]]How can I use Repair?\u005cn[[YELLOW]]Place down a mcMMO Anvil and right-click to repair the item \u005cn[[YELLOW]]you're currently holding. This consumes 1 item on every use.
p1808
sg7
VGuides.Repair.Section.1
p1809
ssS'791828'
p1810
(dp1811
g3
V\u96d9\u500d\u50b7\u5bb3
p1812
sg5
VDouble Damage
p1813
sg7
VAxes.Effect.3
p1814
ssS'3587631'
p1815
(dp1816
g3
V[[DARK_AQUA]]\u4ec0\u9ebc\u662f\u8d85\u7d1a\u4fee\u7406?[[YELLOW]]\u8d85\u7d1a\u4fee\u7406\u662f\u88ab\u52d5\u6280\u80fd. \u7576\u4fee\u7406\u4e00\u500b\u7269\u54c1\u6642,[[YELLOW]]\u73a9\u5bb6\u6709\u6a5f\u7387\u4fee\u5fa9\u5169\u500d\u8010\u4e45\u5ea6.
p1817
sg5
V[[DARK_AQUA]]How does Super Repair work?\u005cn[[YELLOW]]Super Repair is a passive ability. When repairing an item,\u005cn[[YELLOW]]it grants players a chance to repair an item with\u005cn[[YELLOW]]double effectiveness.
p1818
sg7
VGuides.Repair.Section.3
p1819
ssS'2211651'
p1820
(dp1821
g3
V\u795e\u72ac
p1822
sg5
VHoly Hound
p1823
sg7
VTaming.Ability.Bonus.10
p1824
ssS'791986'
p1825
(dp1826
g3
V\u72fc\u6703\u907f\u958b\u5371\u96aa
p1827
sg5
VWolves avoid danger
p1828
sg7
VTaming.Ability.Bonus.1
p1829
ssS'2211653'
p1830
(dp1831
g3
V\u6cd5\u8853&\u4e2d\u6bd2\u5c07\u6703\u89f8\u767c\u6cbb\u7642.
p1832
sg5
VHealed by Magic & Poison
p1833
sg7
VTaming.Effect.19
p1834
ssS'791953'
p1835
(dp1836
g3
V[[RED]]\u9b54\u6cd5\u7375\u4eba: [[GRAY]] ** \u96a8\u8457\u5bf6\u85cf\u7375\u4eba\u7b49\u7d1a\u63d0\u9ad8 **
p1837
sg5
V[[RED]]Magic Hunter: [[GRAY]] **Improves With Treasure Hunter Rank**
p1838
sg7
VFishing.Ability.Info
p1839
ssS'791843'
p1840
(dp1841
g3
V\u70ba\u4f60\u81ea\u5df1\u53ec\u559a\u4e00\u96bb\u52d5\u7269
p1842
sg5
VSummon an animal to your side
p1843
sg7
VTaming.Effect.13
p1844
ssS'3655332'
p1845
(dp1846
g3
V\u4e0d\u6b63\u78ba\u7684\u8840\u689d\u985e\u578b!
p1847
sg5
VInvalid healthbar type!
p1848
sg7
VCommands.Healthbars.Invalid
p1849
ssS'3655330'
p1850
(dp1851
g3
V[mcMMO] \u4f60\u7684\u8840\u689d\u986f\u793a\u6a21\u5f0f\u5df2\u66f4\u6539\u70ba  [[RED]]\u611b\u5fc3[[WHITE]].
p1852
sg5
V[mcMMO] Your healthbar display type was changed to [[RED]]Hearts[[WHITE]].
p1853
sg7
VCommands.Healthbars.Changed.HEARTS
p1854
ssS'3655331'
p1855
(dp1856
g3
V[[DARK_AQUA]]\u4ec0\u9ebc\u662f\u5782\u91e3\u5927\u5e2b?[[YELLOW]]\u9019\u500b\u88ab\u52d5\u6280\u80fd\u5c07\u589e\u52a0\u4e0a\u9264\u7684\u6a5f\u7387.[[YELLOW]]\u7576\u4f60\u7372\u5f97\u9019\u500b\u80fd\u529b, \u5728\u8239\u4e0a\u6216\u6d77\u6d0b\u751f\u614b[[YELLOW]]\u91e3\u9b5a\u5c07\u6703\u7372\u5f97\u96d9\u500d\u4e0a\u9264\u6a5f\u7387.
p1857
sg5
V[[DARK_AQUA]]How does Master Angler work?\u005cn[[YELLOW]]This passive skill increases the bite chance while fishing.\u005cn[[YELLOW]]When you've unlocked this ability, fishing while in\u005cn[[YELLOW]]a boat or when an ocean biome doubles the bite chance.
p1858
sg7
VGuides.Fishing.Section.3
p1859
ssS'791951'
p1860
(dp1861
g3
V\u653b\u64ca\u602a\u7269
p1862
sg5
VAttacking Monsters
p1863
sg7
VCommands.XPGain.Archery
p1864
ssS'791884'
p1865
(dp1866
g3
V[[GREEN]]**\u4f60\u63e1\u7dca\u4e86\u4f60\u7684\u93df\u5b50**
p1867
sg5
V[[GREEN]]**YOU READY YOUR SHOVEL**
p1868
sg7
VExcavation.Ability.Ready
p1869
ssS'791962'
p1870
(dp1871
g3
V\u56de\u6536\u5f13\u7bad
p1872
sg5
VArrow Retrieval
p1873
sg7
VArchery.Effect.4
p1874
ssS'4068739'
p1875
(dp1876
g16
V[[RED]]\u968a\u4f0d\u7d93\u9a57\u5206\u4eab\u5c1a\u672a\u89e3\u9396.
p1877
sg18
V[[RED]]Party XP sharing is not unlocked yet.
p1878
sg20
VParty.Feature.Disabled.5
p1879
ssS'4068738'
p1880
(dp1881
g16
V[[RED]] \u5982\u6b32\u806f\u76df\u8acb\u8f38\u5165 [[DARK_AQUA]]/party alliance invite <player>[[RED]].
p1882
sg18
V[[RED]] to an alliance with [[DARK_AQUA]]/party alliance invite <player>[[RED]].
p1883
sg20
VCommands.Party.Alliance.Help.1
p1884
ssS'2209328'
p1885
(dp1886
g3
V[[RED]] [mcMMO]\u60a8\u6c92\u6709\u6b0a\u9650\u50b3\u9001\u5230\u4e16\u754c{0}.
p1887
sg5
V[[RED]][mcMMO] You do not have permission to teleport to the world {0}.
p1888
sg7
VCommands.ptp.NoWorldPermissions
p1889
ssS'791963'
p1890
(dp1891
g3
V\u4f10\u6728\u5de5(\u6280\u80fd)
p1892
sg5
VTree Feller (ABILITY)
p1893
sg7
VWoodcutting.Effect.0
p1894
ssS'791957'
p1895
(dp1896
g3
V**\u5947\u7f8e\u62c9\u4e4b\u7ffc\u4f7f\u7528\u5931\u6557\u4e86!**
p1897
sg5
V**CHIMAERA WING FAILED!**
p1898
sg7
VItem.ChimaeraWing.Fail
p1899
ssS'4068737'
p1900
(dp1901
g16
V[[RED]]\u9019\u500b\u968a\u4f0d\u4e26\u4e0d\u5c6c\u65bc\u4efb\u4f55\u806f\u76df. \u9080\u8acb\u4e00\u500b\u968a\u9577
p1902
sg18
V[[RED]]This party hasn't formed an alliance. Invite a party leader
p1903
sg20
VCommands.Party.Alliance.Help.0
p1904
ssS'4068736'
p1905
(dp1906
g16
V\u968a\u4f0d\u804a\u5929
p1907
sg18
VParty Chat
p1908
sg20
VParty.Feature.Chat
p1909
ssS'4068735'
p1910
(dp1911
g16
V\u7d93\u9a57\u5206\u4eab
p1912
sg18
VXP Sharing
p1913
sg20
VParty.Feature.XpShare
p1914
ssS'791956'
p1915
(dp1916
g3
V[[RED]]\u66b4\u8d70\u947d\u982d[[GREEN]] \u5373\u5c07\u7ed3\u675f [[YELLOW]]{0}
p1917
sg5
V[[RED]]Giga Drill Breaker[[GREEN]] has worn off for [[YELLOW]]{0}
p1918
sg7
VExcavation.Skills.GigaDrillBreaker.Other.Off
p1919
ssS'3790746'
p1920
(dp1921
g16
V[[WHITE]]{0} [[DARK_GRAY]] \u8207 [[WHITE]]{1} [[DARK_GRAY]]\u7d50\u76df
p1922
sg18
V[[WHITE]]{0} [[DARK_GRAY]]IS ALLIED WITH: [[WHITE]]{1}
p1923
sg20
VCommands.Party.Alliance.Ally
p1924
ssS'3790744'
p1925
(dp1926
g16
V[[GREEN]]\u5df2\u63a5\u53d7\u806f\u76df\u9080\u8acb.
p1927
sg18
V[[GREEN]]Alliance invite Accepted.
p1928
sg20
VCommands.Party.Alliance.Invite.Accepted
p1929
ssS'3790743'
p1930
(dp1931
g16
V[[RED]]-----[][[GREEN]]\u806f\u76df\u6210\u54e1[[RED]][]-----
p1932
sg18
V[[RED]]-----[][[GREEN]]ALLIANCE MEMBERS[[RED]][]-----
p1933
sg20
VCommands.Party.Alliance.Members.Header
p1934
ssS'945278'
p1935
(dp1936
g3
V[[DARK_RED]] \u4f60\u6b63\u5728\u6d41\u8840!
p1937
sg5
V[[DARK_RED]] You're bleeding!
p1938
sg7
VSwords.Combat.Bleeding.Started
p1939
ssS'3587654'
p1940
(dp1941
g3
V[[DARK_AQUA]]\u53ef\u4f5c\u7528\u7684\u8349\u85e5/\u690d\u7269[[YELLOW]]\u5c0f\u9ea5, \u99ac\u9234\u85af, \u80e1\u863f\u8514, \u897f\u74dc, [[YELLOW]]\u5357\u74dc, \u7518\u8517, \u53ef\u53ef\u8c46, \u82b1, \u4ed9\u4eba\u638c, \u9999\u83c7,[[YELLOW]]\u5730\u7344\u7599\u7629, \u84ee\u8449, \u8207\u85e4.
p1942
sg5
V[[DARK_AQUA]]Compatible Blocks\u005cn[[YELLOW]]Wheat, Potatoes, Carrots, Melons, \u005cn[[YELLOW]]Pumpkins, Sugar Canes, Cocoa Beans, Flowers, Cacti, Mushrooms,\u005cn[[YELLOW]]Nether Wart, Lily Pads, and Vines.
p1943
sg7
VGuides.Herbalism.Section.1
p1944
ssS'791966'
p1945
(dp1946
g3
V\u6383\u9664\u8449\u5b50
p1947
sg5
VBlow Away Leaves
p1948
sg7
VWoodcutting.Effect.3
p1949
ssS'2124968'
p1950
(dp1951
g3
V\u6280\u80fd
p1952
sg5
Vskill
p1953
sg7
VCommands.Usage.Skill
p1954
ssS'3790749'
p1955
(dp1956
g16
V[[DARK_RED]]{0} \u4e0d\u662f\u968a\u9577.
p1957
sg18
V[[DARK_RED]]{0} is not the party leader.
p1958
sg20
VParty.Target.NotOwner
p1959
ssS'3790748'
p1960
(dp1961
g16
V[[DARK_GRAY]]\u806f\u76df: [[WHITE]]{0}
p1962
sg18
V[[DARK_GRAY]]ALLY: [[WHITE]]{0}
p1963
sg20
VCommands.Party.Status.Alliance
p1964
ssS'2124967'
p1965
(dp1966
g3
V[[GREEN]]\u4f60\u5728 {1} \u4e2d\u88ab\u734e\u52f5\u4e86 {0} \u7d93\u9a57\u503c!
p1967
sg5
V[[GREEN]]You were awarded {0} experience in {1}!
p1968
sg7
VCommands.addxp.AwardSkill
p1969
ssS'791964'
p1970
(dp1971
g3
V\u7206\u767c\u780d\u6a39
p1972
sg5
VMake trees explode
p1973
sg7
VWoodcutting.Effect.1
p1974
ssS'791786'
p1975
(dp1976
g3
V\u6bdb\u76ae\u5f37\u5316
p1977
sg5
VThick Fur
p1978
sg7
VTaming.Ability.Bonus.2
p1979
ssS'792150'
p1980
(dp1981
g3
V\u7da0\u624b\u6307 (\u5c0f\u9ea5)
p1982
sg5
VGreen Thumb (Wheat)
p1983
sg7
VHerbalism.Effect.2
p1984
ssS'791965'
p1985
(dp1986
g3
V\u79cb\u98a8\u6383\u843d\u8449
p1987
sg5
VLeaf Blower
p1988
sg7
VWoodcutting.Effect.2
p1989
ssS'2124965'
p1990
(dp1991
g3
V[[GREEN]]\u5728\u5168\u90e8\u7684\u6280\u80fd\u88e1\u4f60\u9084\u5dee {0} \u7b49\u7d1a!
p1992
sg5
V[[GREEN]]You were awarded {0} levels in all skills!
p1993
sg7
VCommands.addlevels.AwardAll.1
p1994
ssS'2190051'
p1995
(dp1996
g3
V\u89c0\u770b\u5176\u5b83\u4f7f\u7528\u8005\u7684\u8a73\u7d30mcMMO\u8cc7\u8a0a
p1997
sg5
VView detailed mcMMO info on another player
p1998
sg7
VCommands.Description.inspect
p1999
ssS'792074'
p2000
(dp2001
g3
V\u76ee\u6a19\u5df2\u88ab [[DARK_RED]] \u64ca\u6688
p2002
sg5
VTarget was [[DARK_RED]]Dazed
p2003
sg7
VCombat.TargetDazed
p2004
ssS'791854'
p2005
(dp2006
g3
V\u6709\u6a5f\u7387\u5f9e\u5c4d\u9ad4\u4e0a\u53d6\u5f97\u7bad\u77e2
p2007
sg5
VChance to retrieve arrows from corpses
p2008
sg7
VArchery.Effect.5
p2009
ssS'791855'
p2010
(dp2011
g3
V[[DARK_RED]]\u4f60\u6253\u51fa\u4e86\u6703\u5fc3\u4e00\u64ca!
p2012
sg5
V[[DARK_RED]]You were CRITICALLY hit!
p2013
sg7
VAxes.Combat.CritStruck
p2014
ssS'2124950'
p2015
(dp2016
g3
V[[RED]]\u968a\u4f0d\u5bc6\u78bc\u932f\u8aa4.
p2017
sg5
V[[RED]]Party password is incorrect.
p2018
sg7
VParty.Password.Incorrect
p2019
ssS'792073'
p2020
(dp2021
g16
V[[RED]]- \u5207\u63db\u968a\u4f0d\u804a\u5929
p2022
sg18
V[[RED]]- Toggle Party Chat
p2023
sg20
VCommands.Party.Toggle
p2024
ssS'791918'
p2025
(dp2026
g3
V[[GREEN]]{0}[[DARK_GREEN]] \u4f7f\u7528\u4e86 [[RED]]\u6316\u7926\u7206\u767c!
p2027
sg5
V[[GREEN]]{0}[[DARK_GREEN]] has used [[RED]]Blast Mining!
p2028
sg7
VMining.Blast.Other.On
p2029
ssS'791917'
p2030
(dp2031
g3
V[[RED]]\u5272\u88c2\u65ac\u6301\u7e8c\u6642\u9593: [[YELLOW]]{0}s
p2032
sg5
V[[RED]]Serrated Strikes Length: [[YELLOW]]{0}s
p2033
sg7
VSwords.SS.Length
p2034
ssS'791916'
p2035
(dp2036
g3
V[[DARK_AQUA]]\u64c1\u6709\u8005 ([[RED]]{0}[[DARK_AQUA]])
p2037
sg5
V[[DARK_AQUA]]Owner ([[RED]]{0}[[DARK_AQUA]])
p2038
sg7
VCombat.BeastLoreOwner
p2039
ssS'791915'
p2040
(dp2041
g3
V[[GRAY]]**\u4f60\u653e\u4e0b\u4e86\u4f60\u7684\u93df\u5b50**
p2042
sg5
V[[GRAY]]**YOU LOWER YOUR SHOVEL**
p2043
sg7
VExcavation.Ability.Lower
p2044
ssS'791914'
p2045
(dp2046
g3
V[[GREEN]]\u53ec\u63db\u5b8c\u7562
p2047
sg5
V[[GREEN]]Summoning complete
p2048
sg7
VTaming.Summon.Complete
p2049
ssS'791913'
p2050
(dp2051
g3
V[[GREEN]]**\u6280\u80fd\u51b7\u537b\u5b8c\u7562!**
p2052
sg5
V[[GREEN]]**ABILITIES REFRESHED!**
p2053
sg7
VAbility.Generic.Refresh
p2054
ssS'791858'
p2055
(dp2056
g3
V[[YELLOW]]\u4f10\u6728\u6280\u80fd\u4e0a\u5347\u4e86 {0}. \u7e3d\u7b49\u7d1a ({1})
p2057
sg5
V[[YELLOW]]Woodcutting skill increased by {0}. Total ({1})
p2058
sg7
VWoodcutting.Skillup
p2059
ssS'791859'
p2060
(dp2061
g3
V[[DARK_RED]]\u4f60\u53cd\u64ca\u4e86\u5c0d\u624b!
p2062
sg5
V[[DARK_RED]]Hit with a counter-attack!
p2063
sg7
VSwords.Combat.Counter.Hit
p2064
ssS'3785666'
p2065
(dp2066
g3
V[[GOLD]]\u6230\u9b25\u529b
p2067
sg5
V[[GOLD]]Power Level
p2068
sg7
VScoreboard.Misc.PowerLevel
p2069
ssS'3785667'
p2070
(dp2071
g3
V[[DARK_AQUA]]\u5df2\u6e05\u9664 mcMMO \u5f97\u5206\u699c.
p2072
sg5
V[[DARK_AQUA]]mcMMO scoreboard cleared.
p2073
sg7
VCommands.Scoreboard.Clear
p2074
ssS'3785664'
p2075
(dp2076
g3
V\u005c  [[RED]]{0}[[WHITE]] - [[GOLD]]\u5c1a\u9918 {1} \u79d2
p2077
sg5
V\u005c  [[RED]]{0}[[WHITE]] - [[GOLD]]{1} seconds left
p2078
sg7
VCommands.Cooldowns.Row.N
p2079
ssS'3785665'
p2080
(dp2081
g3
V[[YELLOW]]mcMMO \u72c0\u614b: {0}
p2082
sg5
V[[YELLOW]]mcMMO Stats: {0}
p2083
sg7
VScoreboard.Header.PlayerInspect
p2084
ssS'3785662'
p2085
(dp2086
g3
V\u67e5\u770b\u6240\u6709 mcMMO \u80fd\u529b\u7684\u51b7\u537b\u6642\u9593
p2087
sg5
VView all of the mcMMO ability cooldowns
p2088
sg7
VCommands.Description.mccooldown
p2089
ssS'2124961'
p2090
(dp2091
g3
V[[RED]]\u8acb\u8f38\u5165 /{0} {1}
p2092
sg5
V[[RED]]Proper usage is /{0} {1}
p2093
sg7
VCommands.Usage.1
p2094
ssS'3785660'
p2095
(dp2096
g3
V[[DARK_AQUA]]/mcscoreboard[[AQUA]] keep [[WHITE]] - \u6301\u7e8c\u986f\u793a mcMMO \u5f97\u5206\u699c
p2097
sg5
V[[DARK_AQUA]]/mcscoreboard[[AQUA]] keep [[WHITE]] - keep the mcMMO scoreboard up
p2098
sg7
VCommands.Scoreboard.Help.2
p2099
ssS'2209180'
p2100
(dp2101
g3
V\u5207\u63dbmcMMO\u7684\u804a\u5929\u986f\u793a\u901a\u77e5 (\u958b/\u95dc)
p2102
sg5
VToggle mcMMO abilities chat display notifications on/off
p2103
sg7
VCommands.Description.mcnotify
p2104
ssS'3790738'
p2105
(dp2106
g16
V[[RED]]- \u52a0\u5165\u73a9\u5bb6\u7684\u968a\u4f0d\u88e1
p2107
sg18
V[[RED]]- Join a players party
p2108
sg20
VCommands.Party.2
p2109
ssS'3587669'
p2110
(dp2111
g3
V[[DARK_AQUA]]\u4ec0\u9ebc\u662f\u5bf6\u7269\u7375\u4eba?[[YELLOW]]\u6240\u6709\u5bf6\u7269\u90fd\u6709\u81ea\u5df1\u7684\u6700\u4f4e\u6389\u843d\u7b49\u7d1a[[YELLOW]]\u6240\u4ee5\u5bf6\u7269\u5c0d\u4f60\u4e0d\u898b\u5f97\u6709\u7528.[[YELLOW]]\u53ea\u9700\u8981 \u8a18\u5f97\u6108\u6316\u6398\u7b49\u7d1a\u6108\u9ad8,[[YELLOW]]\u5c31\u80fd\u6316\u9053\u6108\u591a\u5bf6.[[YELLOW]]\u9084\u6709\u6bcf\u4e00\u7a2e\u4e0d\u540c\u7684\u6750\u8cea,[[YELLOW]]\u53ef\u80fd\u6389\u51fa\u4f86\u7684\u5bf6\u7269\u90fd\u4e0d\u540c.[[YELLOW]]\u63db\u53e5\u8a71\u8aaa\u4f60\u80fd\u5f9e\u571f\u88e1\u6316\u51fa\u6bd4\u792b\u77f3[[YELLOW]]\u66f4\u591a\u7a2e\u985e\u7684\u5bf6\u7269.
p2112
sg5
V[[DARK_AQUA]]How does Treasure Hunter work?\u005cn[[YELLOW]]Every possible treasure for Excavation has its own\u005cn[[YELLOW]]skill level requirement for it to drop, as a result it's\u005cn[[YELLOW]]difficult to say how much it is helping you.\u005cn[[YELLOW]]Just keep in mind that the higher your Excavation skill\u005cn[[YELLOW]]is, the more treasures that can be found.\u005cn[[YELLOW]]And also keep in mind that each type of Excavation\u005cn[[YELLOW]]compatible material has its own unique list of treasures.\u005cn[[YELLOW]]In other words you will find different treasures in Dirt\u005cn[[YELLOW]]than you would in Gravel.
p2113
sg7
VGuides.Excavation.Section.4
p2114
ssS'4083329'
p2115
(dp2116
g249
V[[RED]]\u8abf\u914d\u7b49\u7d1a: [[YELLOW]]{0}/{1}
p2117
sg251
V[[RED]]Concoctions Rank: [[YELLOW]]{0}/{1}
p2118
sg253
VAlchemy.Concoctions.Rank
p2119
ssS'4078493'
p2120
(dp2121
g3
V[[GREEN]]\u5982\u6b32\u50b3\u9001, \u8f38\u5165 [[YELLOW]]/ptp accept[[GREEN]]. \u8acb\u6c42\u5c07\u5728 [[RED]]{0} [[GREEN]]\u79d2\u5f8c\u5931\u6548.
p2122
sg5
V[[GREEN]]To teleport, type [[YELLOW]]/ptp accept[[GREEN]]. Request expires in [[RED]]{0} [[GREEN]]seconds.
p2123
sg7
VCommands.ptp.Request2
p2124
ssS'791795'
p2125
(dp2126
g3
V**\u5947\u7f8e\u62c9\u4e4b\u7ffc**
p2127
sg5
V**CHIMAERA WING**
p2128
sg7
VItem.ChimaeraWing.Pass
p2129
ssS'791797'
p2130
(dp2131
g3
V\u6316\u7926:
p2132
sg5
VMining:
p2133
sg7
VMining.Listener
p2134
ssS'792044'
p2135
(dp2136
g16
V[[GREEN]]--\u5176\u4ed6\u6307\u4ee4--
p2137
sg18
V[[GREEN]]--OTHER COMMANDS--
p2138
sg20
VCommands.Other
p2139
ssS'791796'
p2140
(dp2141
g3
V[[GREEN]][mcMMO] \u72c0\u614b
p2142
sg5
V[[GREEN]][mcMMO] Stats
p2143
sg7
VStats.Own.Stats
p2144
ssS'2160035'
p2145
(dp2146
g3
V\u7d93\u9a57\u503c
p2147
sg5
VEXP
p2148
sg7
VParty.ShareType.Exp
p2149
ssS'2260266'
p2150
(dp2151
g3
V[[GOLD]](\u5b50\u6280\u80fd)
p2152
sg5
V[[GOLD]](CHILD SKILL)
p2153
sg7
VSkills.Child
p2154
ssS'791989'
p2155
(dp2156
g16
V[[GREEN]]--\u7d44\u968a\u6307\u4ee4--
p2157
sg18
V[[GREEN]]--PARTY COMMANDS--
p2158
sg20
VCommands.Party.Commands
p2159
ssS'791785'
p2160
(dp2161
g3
V[[RED]]\u4f60\u7684\u65a7\u982d\u8b8a\u6210\u4e86\u4e00\u5806\u788e\u7247\uff01
p2162
sg5
V[[RED]]YOUR AXE SPLINTERS INTO DOZENS OF PIECES!
p2163
sg7
VWoodcutting.Skills.TreeFeller.Splinter
p2164
ssS'792030'
p2165
(dp2166
g3
V[[GREEN]]**\u4f60\u7dca\u63e1\u8457\u4f60\u7684\u62f3\u982d**
p2167
sg5
V[[GREEN]]**YOU READY YOUR FISTS**
p2168
sg7
VUnarmed.Ability.Ready
p2169
ssS'3587639'
p2170
(dp2171
g3
V[[DARK_AQUA]]\u4ec0\u9ebc\u662f\u5feb\u9910\u670d\u52d9?[[YELLOW]]\u9019\u662f\u4e00\u500b\u88ab\u52d5\u6280\u80fd,\u8b93\u72fc\u7fa4\u5728\u653b\u64ca\u6642[[YELLOW]]\u6709\u6a5f\u7387\u56de\u5fa9\u8840\u91cf.
p2172
sg5
V[[DARK_AQUA]]How does Fast Food Service work?\u005cn[[YELLOW]]This passive ability gives wolves a chance to heal whenever\u005cn[[YELLOW]]they perform an attack.
p2173
sg7
VGuides.Taming.Section.8
p2174
ssS'2158640'
p2175
(dp2176
g3
V[[RED]]-----[][[GREEN]]\u6210\u54e1[[RED]][]-----
p2177
sg5
V[[RED]]-----[][[GREEN]]MEMBERS[[RED]][]-----
p2178
sg7
VCommands.Party.Members.Header
p2179
ssS'791826'
p2180
(dp2181
g3
V\u589e\u52a0\u984d\u5916\u50b7\u5bb3
p2182
sg5
VAdds bonus DMG
p2183
sg7
VAxes.Effect.5
p2184
ssS'791779'
p2185
(dp2186
g3
V[[RED]]\u5272\u88c2\u65ac[[GREEN]] \u5373\u5c07\u7d50\u675f [[YELLOW]]{0}
p2187
sg5
V[[RED]]Serrated Strikes[[GREEN]] has worn off for [[YELLOW]]{0}
p2188
sg7
VSwords.Skills.SS.Other.Off
p2189
ssS'791778'
p2190
(dp2191
g3
V[[RED]]\u4f60\u96e2\u958b\u4e86\u9019\u652f\u968a\u4f0d
p2192
sg5
V[[RED]]You have left that party
p2193
sg7
VCommands.Party.Leave
p2194
ssS'791773'
p2195
(dp2196
g3
V[[GREEN]]\u4f60\u7684 [[YELLOW]]\u5288\u9871\u65ac [[GREEN]]\u80fd\u529b\u5df2\u53ef\u4f7f\u7528\uff01
p2197
sg5
V[[GREEN]]Your [[YELLOW]]Skull Splitter [[GREEN]]ability is refreshed!
p2198
sg7
VAxes.Skills.SS.Refresh
p2199
ssS'792035'
p2200
(dp2201
g3
V[[RED]]-----[][[GREEN]]{0}[[RED]][]-----
p2202
sg5
V[[RED]]-----[][[GREEN]]{0}[[RED]][]-----
p2203
sg7
VSkills.Header
p2204
ssS'791771'
p2205
(dp2206
g3
V[[GREEN]]\u63a5\u53d7\u9080\u8acb\uff0c\u4f60\u52a0\u5165\u4e86\u968a\u4f0d {0}
p2207
sg5
V[[GREEN]]Invite Accepted. You have joined party {0}
p2208
sg7
VCommands.Invite.Accepted
p2209
ssS'2093993'
p2210
(dp2211
g3
V\u9396\u5b9a\u76f4\u5230\u6280\u80fd {0}+  (\u5371\u6a5f\u610f\u8b58)
p2212
sg5
VLOCKED UNTIL {0}+ SKILL (ENVIRONMENTALLY AWARE)
p2213
sg7
VTaming.Ability.Locked.0
p2214
ssS'791776'
p2215
(dp2216
g3
V\u640f\u64ca:
p2217
sg5
VUnarmed:
p2218
sg7
VUnarmed.Listener
p2219
ssS'791775'
p2220
(dp2221
g3
V[[DARK_AQUA]]\u751f\u547d\u503c ([[GREEN]]{0}[[DARK_AQUA]]/{1})
p2222
sg5
V[[DARK_AQUA]]Health ([[GREEN]]{0}[[DARK_AQUA]]/{1})
p2223
sg7
VCombat.BeastLoreHealth
p2224
ssS'791774'
p2225
(dp2226
g3
V[[RED]]\u9019\u500b\u6307\u4ee4\u88ab\u7981\u7528\u4e86.
p2227
sg5
V[[RED]]This command is disabled.
p2228
sg7
VCommands.Disabled
p2229
ssS'2211654'
p2230
(dp2231
g3
V\u9396\u5b9a\u76f4\u5230\u6280\u80fd {0}+ (\u795e\u72ac)
p2232
sg5
VLOCKED UNTIL {0}+ SKILL (HOLY HOUND)
p2233
sg7
VTaming.Ability.Locked.5
p2234
ssS'3633770'
p2235
(dp2236
g3
V[[DARK_AQUA]]\u4ec0\u9ebc\u662f\u51b0\u91e3?[[YELLOW]]\u9019\u500b\u88ab\u52d5\u6280\u80fd\u8b93\u4f60\u5728\u51b0\u6e56\u4e0a\u6355\u9b5a![[YELLOW]]\u5728\u51b0\u6e56\u4e0a\u7529\u52d5\u4f60\u7684\u91e3\u7aff[[YELLOW]]\u5c07\u6703\u5728\u51b0\u4e0a\u88fd\u9020\u51fa\u53ef\u4f9b\u91e3\u9b5a\u7684\u5c0f\u6d1e.
p2237
sg5
V[[DARK_AQUA]]How does Ice Fishing work?\u005cn[[YELLOW]]This passive skill allows you to fish in ice lakes!\u005cn[[YELLOW]]Cast your fishing rod in an ice lake and the ability will\u005cn[[YELLOW]]create a small hole in the ice to fish in.
p2238
sg7
VGuides.Fishing.Section.2
p2239
ssS'791815'
p2240
(dp2241
g3
V[[RED]]\u5288\u9871\u65ac\u6301\u7e8c\u6642\u9593: [[YELLOW]]{0}s
p2242
sg5
V[[RED]]Skull Splitter Length: [[YELLOW]]{0}s
p2243
sg7
VAxes.Combat.SS.Length
p2244
ssS'2093979'
p2245
(dp2246
g3
V\u6536\u6210\u6642\u81ea\u52d5\u7a2e\u690d\u5c0f\u9ea5
p2247
sg5
VAuto-Plants crops when harvesting
p2248
sg7
VHerbalism.Effect.3
p2249
ssS'791983'
p2250
(dp2251
g3
V\u5feb\u9910\u670d\u52d9
p2252
sg5
VFast Food Service
p2253
sg7
VTaming.Ability.Bonus.8
p2254
ssS'2211650'
p2255
(dp2256
g3
V\u7576\u88ab\u6cd5\u8853\u653b\u64ca\u6216\u4e2d\u6bd2\u6642\u6062\u5fa9\u751f\u547d\u503c
p2257
sg5
VRegain health when damaged by magic or poison
p2258
sg7
VTaming.Ability.Bonus.11
p2259
ssS'3587630'
p2260
(dp2261
g3
V[[DARK_AQUA]]\u5982\u4f55\u4f7f\u7528\u7206\u7834\u6316\u6398:[[YELLOW]]\u624b\u6301\u6253\u706b\u77f3, \u9810\u8a2d\u7531\u71e7\u77f3\u53ca\u9435\u9320\u7d44\u6210,[[YELLOW]]\u8e72\u4e0b\u4e26\u7528\u53f3\u9375\u9ede\u53caTNT. \u9019\u6703\u4f7fTNT[[YELLOW]]\u76f4\u63a5\u7206\u70b8, \u6700\u597d\u7ad9\u9060\u4e00\u9ede.
p2262
sg5
V[[DARK_AQUA]]How to use Blast Mining:\u005cn[[YELLOW]]With a detonator in hand, which is a flint & steel by default,\u005cn[[YELLOW]]crouch and right-click on TNT from a distance. This will cause the TNT\u005cn[[YELLOW]]to instantly explode.
p2263
sg7
VGuides.Mining.Section.4
p2264
ssS'2211652'
p2265
(dp2266
g3
V\u795e\u72ac
p2267
sg5
VHoly Hound
p2268
sg7
VTaming.Effect.18
p2269
ssS'791987'
p2270
(dp2271
g3
V\u5371\u6a5f\u610f\u8b58
p2272
sg5
VEnvironmentally Aware
p2273
sg7
VTaming.Ability.Bonus.0
p2274
ssS'2115602'
p2275
(dp2276
g3
V[[RED]]\u6b64\u6280\u80fd\u6b63\u8655\u65bc\u51b7\u537b\u6642\u9593. [[YELLOW]]({0}s)
p2277
sg5
V[[RED]]You are too tired to use that ability again. [[YELLOW]]({0}s)
p2278
sg7
VSkills.TooTired
p2279
ssS'791708'
p2280
(dp2281
g3
V[[GOLD]]-=\u683c\u9b25\u6280\u80fd=-
p2282
sg5
V[[GOLD]]-=COMBAT SKILLS=-
p2283
sg7
VStats.Header.Combat
p2284
ssS'791709'
p2285
(dp2286
g3
V[[GRAY]]\u653e\u8840\u5df2[[GREEN]]\u505c\u6b62[[GRAY]]!
p2287
sg5
V[[GRAY]]The bleeding has [[GREEN]]stopped[[GRAY]]!
p2288
sg7
VSwords.Combat.Bleeding.Stopped
p2289
ssS'791706'
p2290
(dp2291
g3
V\u96dc\u6280
p2292
sg5
VACROBATICS
p2293
sg7
VAcrobatics.SkillName
p2294
ssS'791707'
p2295
(dp2296
g3
V\u6316\u6398\u77f3\u982d\u548c\u7926\u7269
p2297
sg5
VMining Stone & Ore
p2298
sg7
VCommands.XPGain.Mining
p2299
ssS'791704'
p2300
(dp2301
g3
V[[GRAY]]\u968a\u4f0d\u5df2\u89e3\u9396!
p2302
sg5
V[[GRAY]]Party is unlocked
p2303
sg7
VParty.Unlocked
p2304
ssS'792106'
p2305
(dp2306
g3
V[[RED]]\u6703\u5fc3\u4e00\u64ca!
p2307
sg5
V[[RED]]CRITICAL HIT!
p2308
sg7
VAxes.Combat.CriticalHit
p2309
ssS'791702'
p2310
(dp2311
g3
V[[RED]]\u9019\u4ef6\u7269\u54c1\u7684\u9644\u9b54\u5df2\u6d88\u5931!
p2312
sg5
V[[RED]]Arcane power has permanently left the item.
p2313
sg7
VRepair.Arcane.Fail
p2314
ssS'792100'
p2315
(dp2316
g3
V\u9b54\u6cd5\u7375\u4eba
p2317
sg5
VMagic Hunter
p2318
sg7
VFishing.Effect.2
p2319
ssS'792103'
p2320
(dp2321
g3
V[[GREEN]]{0}[[DARK_GREEN]] \u4f7f\u7528\u4e86 [[RED]]\u8d85\u7d1a\u788e\u77f3\u6a5f!
p2322
sg5
V[[GREEN]]{0}[[DARK_GREEN]] has used [[RED]]Super Breaker!
p2323
sg7
VMining.Skills.SuperBreaker.Other.On
p2324
ssS'791701'
p2325
(dp2326
g3
V[[RED]]{0}: [[YELLOW]]{1}
p2327
sg5
V[[RED]]{0}: [[YELLOW]]{1}
p2328
sg7
VAbility.Generic.Template
p2329
ssS'2093975'
p2330
(dp2331
g3
V\u56de\u6536 ({0}+ SKILL)
p2332
sg5
VSalvage ({0}+ SKILL)
p2333
sg7
VRepair.Effect.16
p2334
ssS'791817'
p2335
(dp2336
g3
V\u96d9\u500d\u6548\u679c
p2337
sg5
VDouble effectiveness
p2338
sg7
VRepair.Effect.5
p2339
ssS'2127513'
p2340
(dp2341
g3
V\u9019\u9801\u4e0d\u5b58\u5728, \u7e3d\u5171\u53ea\u6709 {0} \u9801.
p2342
sg5
VThat page does not exist, there are only {0} total pages.
p2343
sg7
VGuides.Page.OutOfRange
p2344
ssS'3746608'
p2345
(dp2346
g3
V[[GOLD]][mcMMO] [[DARK_RED]]\u56e0\u70ba\u6b7b\u4ea1\u4f60\u5931\u53bb\u4e86[[BLUE]]{0}[[DARK_RED]].
p2347
sg5
V[[GOLD]][mcMMO] [[DARK_RED]]You have lost [[BLUE]]{0}[[DARK_RED]] levels from death.
p2348
sg7
VHardcore.DeathStatLoss.PlayerDeath
p2349
ssS'2093974'
p2350
(dp2351
g3
V\u56de\u6536\u5de5\u5177\u548c\u88dd\u7532
p2352
sg5
VSalvage Tools & Armor
p2353
sg7
VRepair.Effect.17
p2354
ssS'3506431'
p2355
(dp2356
g3
V{0}s {1}
p2357
sg5
V{0}''s {1}
p2358
sg7
VTaming.Summon.Name.Format
p2359
ssS'791863'
p2360
(dp2361
g3
V\u7bad\u8853:
p2362
sg5
VArchery:
p2363
sg7
VArchery.Listener
p2364
ssS'3399049'
p2365
(dp2366
g3
V[[RED]]{0}\u4e0d\u662f\u4e00\u500b\u6b63\u78ba\u7684\u8cc7\u6599\u5eab\u7a2e\u985e.
p2367
sg5
V[[RED]]{0} is not a valid database type.
p2368
sg7
VCommands.mcconvert.Database.InvalidType
p2369
ssS'3399048'
p2370
(dp2371
g3
V[[RED]]\u4f60\u6b63\u5728\u4f7f\u7528{0}\u8cc7\u6599\u5eab!
p2372
sg5
V[[RED]]You are already using the {0} database!
p2373
sg7
VCommands.mcconvert.Database.Same
p2374
ssS'3399047'
p2375
(dp2376
g3
V[[GRAY]]\u958b\u59cb\u5f9e{0}\u8f49\u63db\u5230{1}\u66f2\u7dda
p2377
sg5
V[[GRAY]]Starting conversion from {0} to {1} curve
p2378
sg7
VCommands.mcconvert.Experience.Start
p2379
ssS'3399046'
p2380
(dp2381
g3
V[[GRAY]]\u958b\u59cb\u5f9e{0}\u8f49\u63db\u81f3{1}...
p2382
sg5
V[[GRAY]]Starting conversion from {0} to {1}...
p2383
sg7
VCommands.mcconvert.Database.Start
p2384
ssS'3399045'
p2385
(dp2386
g3
V[[GRAY]]\u8cc7\u6599\u5eab\u9077\u79fb\u5b8c\u6210; {1}\u8cc7\u6599\u5eab\u73fe\u5728\u64c1\u6709{0}\u8cc7\u6599\u5eab\u7684\u6240\u6709\u8cc7\u6599.
p2387
sg5
V[[GRAY]]Database migration complete; the {1} database now has all data from the {0} database.
p2388
sg7
VCommands.mcconvert.Database.Finish
p2389
ssS'3785653'
p2390
(dp2391
g3
V[[RED]]\u6230\u9b25\u529b
p2392
sg5
V[[RED]]Power Level
p2393
sg7
VScoreboard.Header.PowerLevel
p2394
ssS'3785652'
p2395
(dp2396
g3
V[[YELLOW]]mcMMO \u72c0\u614b
p2397
sg5
V[[YELLOW]]mcMMO Stats
p2398
sg7
VScoreboard.Header.PlayerStats
p2399
ssS'3785651'
p2400
(dp2401
g3
V[[LIGHT_PURPLE]]\u51b7\u537b\u6642\u9593
p2402
sg5
V[[LIGHT_PURPLE]]Cooldown
p2403
sg7
VScoreboard.Misc.Cooldown
p2404
ssS'3785650'
p2405
(dp2406
g3
V\u6574\u9ad4
p2407
sg5
V[[GOLD]]Overall
p2408
sg7
VScoreboard.Misc.Overall
p2409
ssS'3587666'
p2410
(dp2411
g3
V[[DARK_AQUA]]\u4ec0\u9ebc\u662f\u99b4\u7378\u4e4b\u80fd?[[YELLOW]]\u99b4\u7378\u4e4b\u80fd\u8b93\u4f60\u5bdf\u89ba\u5bf5\u7269\u7684\u72c0\u614b,[[YELLOW]]\u5c0d\u5bf5\u7269\u9ede\u64ca\u5de6\u9375\u5c31\u80fd\u4f7f\u7528\u9019\u9805\u80fd\u529b.
p2412
sg5
V[[DARK_AQUA]]How does Beast Lore work?\u005cn[[YELLOW]]Beast Lore allows players to inspect pets and to check the\u005cn[[YELLOW]]stats of wolves and ocelots. Left-click a wolf or ocelot to use\u005cn[[YELLOW]]Beast Lore.
p2413
sg7
VGuides.Taming.Section.2
p2414
ssS'3587667'
p2415
(dp2416
g3
V[[DARK_AQUA]]\u4ec0\u9ebc\u662f\u7da0\u624b\u6307(\u5375\u77f3/\u77f3\u78da/\u571f)?[[YELLOW]]\u9019\u662f\u4e00\u500b\u4e3b\u52d5\u6280\u80fd,\u8b93\u4f60\u5728\u624b\u62ff\u8457\u7a2e\u5b50\u6642,[[YELLOW]]\u5c0d\u5375\u77f3/\u77f3\u78da/\u571f,\u9ede\u64ca\u53f3\u9375,\u53ef\u4f7f\u5b83\u5011\u8b8a\u6210[[YELLOW]]\u690d\u7269\u5f62\u614b,\u6703\u6d88\u8017\u4e00\u9846\u7a2e\u5b50.
p2417
sg5
V[[DARK_AQUA]]How does Green Thumb (Cobble/Stone Brick/Dirt) work?\u005cn[[YELLOW]]This active ability allows you to turn blocks into their\u005cn[[YELLOW]]"plant-related" counterparts. You can do this by right-clicking\u005cn[[YELLOW]]a block, while holding seeds. This will consume 1 seed.
p2418
sg7
VGuides.Herbalism.Section.4
p2419
ssS'3587664'
p2420
(dp2421
g3
V[[DARK_AQUA]]\u4ec0\u9ebc\u662f\u5229\u722a?[[YELLOW]]\u5229\u722a\u4f7f\u72fc\u7684\u653b\u64ca\u529b\u96a8\u8457\u99b4\u7378\u7b49\u7d1a[[YELLOW]]\u589e\u52a0\u800c\u589e\u52a0.
p2422
sg5
V[[DARK_AQUA]]How does Sharpened Claws work?\u005cn[[YELLOW]]Sharpened Claws provides a damage bonus to damage dealt\u005cn[[YELLOW]]by wolves. The damage bonus depends on your Taming level.
p2423
sg7
VGuides.Taming.Section.4
p2424
ssS'3587665'
p2425
(dp2426
g3
V[[DARK_AQUA]]\u4ec0\u9ebc\u662f\u8840\u8165\u653b\u64ca?[[YELLOW]]\u8840\u8165\u653b\u64ca\u662f\u4e00\u500b\u4e3b\u52d5\u6280\u80fd,\u80fd\u9020\u6210[[YELLOW]]\u72fc\u7684\u653b\u64ca\u76ee\u6a19\u6709\u6a5f\u7387\u9677\u5165\u6d41\u8840\u72c0\u614b.
p2427
sg5
V[[DARK_AQUA]]How does Gore work?\u005cn[[YELLOW]]Gore is a passive ability that has a chance of inflicting a\u005cn[[YELLOW]]bleeding effect on your wolves' targets.
p2428
sg7
VGuides.Taming.Section.3
p2429
ssS'3587662'
p2430
(dp2431
g3
V[[DARK_AQUA]]\u4ec0\u9ebc\u662f\u6bdb\u76ae\u5f37\u5316?[[YELLOW]]\u9019\u662f\u4e00\u500b\u88ab\u52d5\u6280\u80fd\u80fd\u8b93\u72fc[[YELLOW]]\u53d7\u5230\u653b\u64ca\u6216\u71c3\u71d2\u6642\u6e1b\u514d\u50b7\u5bb3.
p2432
sg5
V[[DARK_AQUA]]How does Thick Fur work?\u005cn[[YELLOW]]This passive ability will reduce damage and make wolves\u005cn[[YELLOW]]fire resistant.
p2433
sg7
VGuides.Taming.Section.6
p2434
ssS'3587663'
p2435
(dp2436
g3
V[[DARK_AQUA]]\u4ec0\u9ebc\u662f\u5371\u6a5f\u610f\u8b58?[[YELLOW]]\u9019\u500b\u88ab\u52d5\u6280\u80fd\u80fd\u8b93\u72fc\u5728\u9047\u5230\u5371\u96aa\u6642[[YELLOW]]\u8fc5\u901f\u56de\u5230\u4f60\u8eab\u908a(\u5982\u4ed9\u4eba\u638c\u6216\u5ca9\u6f3f),[[YELLOW]]\u4e5f\u53ef\u4ee5\u6e1b\u514d\u6454\u843d\u50b7\u5bb3.
p2437
sg5
V[[DARK_AQUA]]How does Environmentally Aware work?\u005cn[[YELLOW]]This passive ability will allow wolves to teleport to you when\u005cn[[YELLOW]]they get near hazards, such as Cacti/Lava. It will also give\u005cn[[YELLOW]]wolves fall damage immunity.
p2438
sg7
VGuides.Taming.Section.5
p2439
ssS'2124969'
p2440
(dp2441
g3
V[[RED]]\u4f60\u7121\u6cd5\u50b3\u9001\u5230\u4f60\u81ea\u5df1\u8eab\u65c1!
p2442
sg5
V[[RED]]You can't teleport to yourself!
p2443
sg7
VParty.Teleport.Self
p2444
ssS'3587661'
p2445
(dp2446
g3
V[[DARK_AQUA]]\u4ec0\u9ebc\u662f\u885d\u64ca\u683c\u64cb?[[YELLOW]]\u9019\u662f\u4e00\u500b\u88ab\u52d5\u6280\u80fd,\u8b93\u72fc\u7fa4[[YELLOW]]\u6e1b\u514d\u7206\u70b8\u50b7\u5bb3.
p2447
sg5
V[[DARK_AQUA]]How does Shock Proof work?\u005cn[[YELLOW]]This passive ability reduces damage done to wolves\u005cn[[YELLOW]]from explosions.
p2448
sg7
VGuides.Taming.Section.7
p2449
ssS'3665278'
p2450
(dp2451
g3
V[[YELLOW]]{0}[[GREEN]]{1}
p2452
sg5
V[[YELLOW]]{0}[[GREEN]]{1}
p2453
sg7
VSkills.ChildStats
p2454
ssS'2124966'
p2455
(dp2456
g3
V[[RED]]\u6240\u6709\u6280\u80fd\u7b49\u7d1a\u5df2\u88ab\u8a2d\u5b9a\u70ba {0}.
p2457
sg5
V[[RED]]All skills have been modified for {0}.
p2458
sg7
VCommands.addlevels.AwardAll.2
p2459
ssS'791959'
p2460
(dp2461
g3
V\u8349\u85e5\u5b78
p2462
sg5
VHERBALISM
p2463
sg7
VHerbalism.SkillName
p2464
ssS'2124964'
p2465
(dp2466
g3
V\u9801\u6578
p2467
sg5
Vpage
p2468
sg7
VCommands.Usage.Page
p2469
ssS'2124963'
p2470
(dp2471
g3
V[[RED]]\u7d93\u9a57\u503c\u500d\u6578\u5df2\u88ab\u8a2d\u5b9a\u70ba {0}
p2472
sg5
V[[RED]]The XP RATE was modified to {0}
p2473
sg7
VCommands.xprate.modified
p2474
ssS'2124962'
p2475
(dp2476
g3
V[[DARK_RED]]mcMMO \u5728\u4fee\u6b63\u6642\u767c\u751f\u4e86\u932f\u8aa4!
p2477
sg5
V[[DARK_RED]]mcMMO encountered an error attempting to repair this item!
p2478
sg7
VRepair.Error
p2479
ssS'3587668'
p2480
(dp2481
g3
V[[DARK_AQUA]]\u99b4\u7378[[YELLOW]]\u99b4\u7378\u6280\u80fd\u8b93\u73a9\u5bb6\u80fd\u5728\u7528\u72fc\u6230\u9b25\u6642[[YELLOW]]\u6642\u6709\u52a0\u4e58\u6548\u679c.[[DARK_AQUA]]\u7d93\u9a57\u7372\u53d6:[[YELLOW]]\u8981\u7372\u53d6\u7d93\u9a57,\u9808\u8a13\u670d\u72fc\u6216\u8c79\u8c93,[[YELLOW]]\u6216\u8207\u4f60\u7684\u72fc\u4e00\u540c\u6230\u9b25.
p2482
sg5
V[[DARK_AQUA]]About Taming:\u005cn[[YELLOW]]Taming will give players various combat bonuses when using\u005cn[[YELLOW]]tamed wolves.\u005cn\u005cn[[DARK_AQUA]]XP GAIN:\u005cn[[YELLOW]]To gain XP in this skill, you need to tame wolves/ocelots or\u005cn[[YELLOW]]get into combat with your wolves.
p2483
sg7
VGuides.Taming.Section.0
p2484
ssS'2124960'
p2485
(dp2486
g3
V[[RED]]{0} \u56e0\u70ba {1} \u800c\u4fee\u6539.
p2487
sg5
V[[RED]]{0} has been modified for {1}.
p2488
sg7
VCommands.addlevels.AwardSkill.2
p2489
ssS'792039'
p2490
(dp2491
g3
V[[RED]]\u4f60\u6c92\u6709\u6536\u5230\u4efb\u4f55\u968a\u4f0d\u9080\u8acb
p2492
sg5
V[[RED]]You have no invites at this time
p2493
sg7
VmcMMO.NoInvites
p2494
ssS'792038'
p2495
(dp2496
g3
V[[RED]]**\u4f60\u958b\u59cb\u6d41\u8840\u4e86**
p2497
sg5
V[[RED]]**YOU HAVE BEEN GORED**
p2498
sg7
VCombat.StruckByGore
p2499
ssS'791818'
p2500
(dp2501
g3
V\u8d85\u7d1a\u4fee\u7406
p2502
sg5
VSuper Repair
p2503
sg7
VRepair.Effect.4
p2504
ssS'791819'
p2505
(dp2506
g3
V\u4fee\u7406\u947d\u77f3\u5de5\u5177\u548c\u88dd\u5099
p2507
sg5
VRepair Diamond Tools & Armor
p2508
sg7
VRepair.Effect.7
p2509
ssS'791791'
p2510
(dp2511
g3
V[[GRAY]]**\u4f60\u653e\u4e0b\u4e86\u4f60\u7684\u528d**
p2512
sg5
V[[GRAY]]**YOU LOWER YOUR SWORD**
p2513
sg7
VSwords.Ability.Lower
p2514
ssS'791790'
p2515
(dp2516
g3
V\u96dc\u6280:
p2517
sg5
VAcrobatics:
p2518
sg7
VAcrobatics.Listener
p2519
ssS'791793'
p2520
(dp2521
g3
V[[GREEN]]\u4f60\u7684 [[YELLOW]]\u4f10\u6728\u5de5 [[GREEN]]\u5df2\u53ef\u4f7f\u7528\uff01
p2522
sg5
V[[GREEN]]Your [[YELLOW]]Tree Feller [[GREEN]]ability is refreshed!
p2523
sg7
VWoodcutting.Skills.TreeFeller.Refresh
p2524
ssS'791792'
p2525
(dp2526
g3
V\u91e3\u9b5a!(\u53bb\u60f3\u60f3\u5427!)
p2527
sg5
VFishing (Go figure!)
p2528
sg7
VCommands.XPGain.Fishing
p2529
ssS'792031'
p2530
(dp2531
g3
V\u6389\u843d
p2532
sg5
VFalling
p2533
sg7
VCommands.XPGain.Acrobatics
p2534
ssS'2115592'
p2535
(dp2536
g3
V[[GOLD]][mcMMO] [[GREEN]]{0}[[YELLOW]] - mcMMO \u9996\u9801
p2537
sg5
V[[GOLD]][mcMMO] [[GREEN]]{0}[[YELLOW]] - mcMMO Website
p2538
sg7
VMOTD.Website
p2539
ssS'792033'
p2540
(dp2541
g3
V[[GRAY]]\u6ce8\u610f: [[YELLOW]]\u6bcf\u5169\u79d2\u6e1b\u4e00\u6ef4\u8840
p2542
sg5
V[[GRAY]]NOTE: [[YELLOW]]1 Tick happens every 2 seconds
p2543
sg7
VSwords.Combat.Bleed.Note
p2544
ssS'792032'
p2545
(dp2546
g3
V[[RED]]\u66b4\u8d70\u947d\u982d\u6301\u7e8c\u6642\u9593: [[YELLOW]]{0}s
p2547
sg5
V[[RED]]Giga Drill Breaker Length: [[YELLOW]]{0}s
p2548
sg7
VExcavation.Effect.Length
p2549
ssS'791816'
p2550
(dp2551
g3
V\u79d8\u6cd5\u935b\u9020
p2552
sg5
VArcane Forging
p2553
sg7
VRepair.Effect.8
p2554
ssS'3633773'
p2555
(dp2556
g3
V[[RED]] \u6389\u843d\u6a5f\u7387: [[DARK_RED]]\u9677\u9631: [[YELLOW]]{0} [[GRAY]]\u666e\u901a: [[YELLOW]]{1} [[GREEN]]\u7f55\u898b: [[YELLOW]]{2} [[BLUE]]\u7a00\u6709: [[YELLOW]]{3} [[LIGHT_PURPLE]]\u53f2\u8a69: [[YELLOW]]{4} [[GOLD]]\u50b3\u8aaa: [[YELLOW]]{5} [[AQUA]]\u524d\u6240\u672a\u6709: [[YELLOW]]{6}
p2557
sg5
V[[RED]] Drop Rate: [[DARK_RED]]Trap: [[YELLOW]]{0} [[GRAY]]Common: [[YELLOW]]{1} [[GREEN]]Uncommon: [[YELLOW]]{2}\u005cn[[BLUE]]Rare: [[YELLOW]]{3} [[LIGHT_PURPLE]]Epic: [[YELLOW]]{4} [[GOLD]]Legendary: [[YELLOW]]{5} [[AQUA]]Record: [[YELLOW]]{6}
p2558
sg7
VFishing.Ability.TH.DropRate
p2559
ssS'791814'
p2560
(dp2561
g16
V[[RED]]- \u63a5\u53d7\u968a\u4f0d\u9080\u8acb
p2562
sg18
V[[RED]]- Accept party invite
p2563
sg20
VCommands.Party.Accept
p2564
ssS'2115593'
p2565
(dp2566
g3
V{0} \u4e00\u5b9a\u6a5f\u7387\u5728\u653b\u64ca\u6642\u6062\u5fa9\u8840\u91cf
p2567
sg5
V{0} Chance for heal on attack
p2568
sg7
VTaming.Ability.Bonus.9
p2569
ssS'791888'
p2570
(dp2571
g3
V[[RED]]**\u4f10\u6728\u5de5\u5df2\u7ed3\u675f**
p2572
sg5
V[[RED]]**Tree Feller has worn off**
p2573
sg7
VWoodcutting.Skills.TreeFeller.Off
p2574
ssS'893578'
p2575
(dp2576
g3
V\u4fee\u7406\u9ec3\u91d1 ({0}+ SKILL)
p2577
sg5
VGold Repair ({0}+ SKILL)
p2578
sg7
VRepair.Effect.10
p2579
ssS'893579'
p2580
(dp2581
g3
V\u4fee\u7406\u9435\u88fd\u5de5\u5177\u548c\u88dd\u5099
p2582
sg5
VRepair Iron Tools & Armor
p2583
sg7
VRepair.Effect.13
p2584
ssS'893577'
p2585
(dp2586
g3
V\u4fee\u7406\u91d1\u88fd\u5de5\u5177\u548c\u88dd\u5099
p2587
sg5
VRepair Gold Tools & Armor
p2588
sg7
VRepair.Effect.11
p2589
ssS'893575'
p2590
(dp2591
g3
V[[RED]]\u7206\u7834\u5c08\u5bb6\u50b7\u5bb3\u6e1b\u5c11: [[YELLOW]]{0}
p2592
sg5
V[[RED]]Demolitions Expert Damage Decrease: [[YELLOW]]{0}
p2593
sg7
VMining.Effect.Decrease
p2594
ssS'893572'
p2595
(dp2596
g3
V[[RED]]\u96d9\u500d\u6389\u843d\u6a5f\u7387: [[YELLOW]]{0}
p2597
sg5
V[[RED]]Double Drop Chance: [[YELLOW]]{0}
p2598
sg7
VWoodcutting.Ability.Chance.DDrop
p2599
ssS'893573'
p2600
(dp2601
g3
V\u4fee\u7406\u5de5\u5177\u548c\u88dd\u5099
p2602
sg5
VRepair Tools & Armor
p2603
sg7
VRepair.Effect.1
p2604
ssS'893570'
p2605
(dp2606
g3
V[[RED]]\u64ca\u843d\u5f13\u7bad\u6a5f\u7387: [[YELLOW]]{0}
p2607
sg5
V[[RED]]Arrow Deflect Chance: [[YELLOW]]{0}
p2608
sg7
VUnarmed.Ability.Chance.ArrowDeflect
p2609
ssS'791926'
p2610
(dp2611
g3
V[[GOLD]]\u4f60\u7684\u7d93\u9a57\u503c\u9396\u5b9a\u5728 {0}!
p2612
sg5
V[[GOLD]]Your XP BAR is now locked to {0}!
p2613
sg7
VCommands.xplock.locked
p2614
ssS'791927'
p2615
(dp2616
g3
V[[RED]]\u4f60\u4e0d\u5728\u968a\u4f0d\u4e2d.
p2617
sg5
V[[RED]]You are not in a party.
p2618
sg7
VCommands.Party.None
p2619
ssS'791777'
p2620
(dp2621
g16
V[[RED]]- \u5207\u63db\u7ba1\u7406\u54e1\u804a\u5929\u6a21\u5f0f
p2622
sg18
V[[RED]]- Toggle admin chat
p2623
sg20
VCommands.AdminToggle
p2624
ssS'791925'
p2625
(dp2626
g3
V[[RED]]\u9019\u68f5\u6a39\u592a\u5927\u4e86!
p2627
sg5
V[[RED]]That tree is too large!
p2628
sg7
VWoodcutting.Skills.TreeFellerThreshold
p2629
ssS'791922'
p2630
(dp2631
g3
V[[GREEN]]**\u66b4\u529b\u6253\u64ca**
p2632
sg5
V[[GREEN]]**STRUCK WITH GREAT FORCE**
p2633
sg7
VAxes.Combat.GI.Proc
p2634
ssS'791923'
p2635
(dp2636
g3
V[[GRAY]]**\u4f60\u653e\u9b06\u4e86\u4f60\u7684\u62f3\u982d**
p2637
sg5
V[[GRAY]]**YOU LOWER YOUR FISTS**
p2638
sg7
VUnarmed.Ability.Lower
p2639
ssS'791920'
p2640
(dp2641
g3
V\u6280\u80fd\u4f7f\u7528 [[GREEN]]\u555f\u52d5
p2642
sg5
VAbility use toggled [[GREEN]]on
p2643
sg7
VCommands.Ability.On
p2644
ssS'791729'
p2645
(dp2646
g3
V\u7ba1\u7406\u54e1\u804a\u5929\u6a21\u5f0f [[RED]]\u95dc\u9589
p2647
sg5
VAdmin Chat only [[RED]]Off
p2648
sg7
VCommands.AdminChat.Off
p2649
ssS'3380505'
p2650
(dp2651
g3
V[[GOLD]][mcMMO] [[YELLOW]]{0}[[GRAY]]\u7121\u6cd5\u5f9e\u4f60\u9019\u5077\u53d6\u4efb\u4f55\u7684\u77e5\u8b58!
p2652
sg5
V[[GOLD]][mcMMO] [[YELLOW]]{0}[[GRAY]] was unable to steal knowledge from you!
p2653
sg7
VHardcore.Vampirism.Victim.Failure
p2654
ssS'791928'
p2655
(dp2656
g3
V[[GRAY]]**\u4f60\u653e\u4e0b\u4e86\u4f60\u7684\u92e4\u982d**
p2657
sg5
V[[GRAY]]**YOU LOWER YOUR HOE**
p2658
sg7
VHerbalism.Ability.Lower
p2659
ssS'791929'
p2660
(dp2661
g3
V[[GRAY]]\u90a3\u770b\u8d77\u4f86\u5f88\u7c21\u55ae.
p2662
sg5
V[[GRAY]]That felt easy.
p2663
sg7
VRepair.Skills.FeltEasy
p2664
ssS'3587692'
p2665
(dp2666
g3
V[[DARK_AQUA]]\u4ec0\u9ebc\u662f\u79cb\u98a8\u6383\u843d\u8449?[[YELLOW]]\u79cb\u98a8\u6383\u843d\u8449\u662f\u4e00\u500b\u88ab\u52d5\u6280\u80fd,[[YELLOW]]\u7576\u4f60\u7528\u65a7\u982d\u7834\u58de\u6a39\u8449\u6642,\u6a39\u8449\u5c07\u76f4\u63a5\u6467\u6bc0.[[YELLOW]]\u9019\u500b\u6280\u80fd\u9810\u8a2d\u5728100\u7b49\u958b\u653e.
p2667
sg5
V[[DARK_AQUA]]How does Leaf Blower work?\u005cn[[YELLOW]]Leaf Blower is a passive ability that will cause leaf\u005cn[[YELLOW]]blocks to break instantly when hit with an axe. By default,\u005cn[[YELLOW]]this ability unlocks at level 100.
p2668
sg7
VGuides.Woodcutting.Section.2
p2669
ssS'3587691'
p2670
(dp2671
g3
V[[DARK_AQUA]]\u4ec0\u9ebc\u662f\u96d9\u500d\u6389\u843d?[[YELLOW]]\u9019\u500b\u88ab\u52d5\u6280\u80fd\u53ef\u4ee5\u8b93\u4f60\u6709\u6a5f\u7387\u5728\u4f10\u6728[[YELLOW]]\u6642\u6a39\u6728\u6389\u843d\u66f4\u591a\u539f\u6728.
p2672
sg5
V[[DARK_AQUA]]How do Double Drops work?\u005cn[[YELLOW]]This passive ability gives you a chance to obtain an extra\u005cn[[YELLOW]]block for every log you chop.
p2673
sg7
VGuides.Woodcutting.Section.3
p2674
ssS'3587690'
p2675
(dp2676
g3
V[[DARK_AQUA]]\u95dc\u65bc\u4f10\u6728:[[YELLOW]]\u4f10\u6728\u5c31\u662f\u628a\u6a39\u780d\u5012.[[DARK_AQUA]]\u7372\u53d6\u7d93\u9a57:[[YELLOW]]\u7834\u58de\u6a39\u5e79\u53ef\u7372\u53d6\u7d93\u9a57.
p2677
sg5
V[[DARK_AQUA]]About Woodcutting:\u005cn[[YELLOW]]Woodcutting is all about chopping down trees.\u005cn\u005cn[[DARK_AQUA]]XP GAIN:\u005cn[[YELLOW]]XP is gained whenever you break log blocks.
p2678
sg7
VGuides.Woodcutting.Section.0
p2679
ssS'2093988'
p2680
(dp2681
g3
V[[RED]]\u6f01\u4eba\u4fbf\u7576: [[YELLOW]]\u7b49\u7d1a {0}
p2682
sg5
V[[RED]]Fisherman''s Diet: [[YELLOW]]Rank {0}
p2683
sg7
VFishing.Ability.FD
p2684
ssS'2093989'
p2685
(dp2686
g3
V[[GRAY]]\u7269\u54c1\u5df2\u56de\u6536!
p2687
sg5
V[[GRAY]]Item salvaged!
p2688
sg7
VRepair.Skills.SalvageSuccess
p2689
ssS'791979'
p2690
(dp2691
g3
V[[YELLOW]]\u8349\u85e5\u5b78\u4e0a\u5347\u4e86 {0}. \u7e3d\u7b49\u7d1a ({1})
p2692
sg5
V[[YELLOW]]Herbalism skill increased by {0}. Total ({1})
p2693
sg7
VHerbalism.Skillup
p2694
ssS'2093980'
p2695
(dp2696
g3
V\u9396\u5b9a\u76f4\u5230\u6280\u80fd {0}+  (\u5de8\u5927\u7206\u7834)
p2697
sg5
VLOCKED UNTIL {0}+ SKILL (BIGGER BOMBS)
p2698
sg7
VMining.Ability.Locked.1
p2699
ssS'2093981'
p2700
(dp2701
g3
V\u9396\u5b9a\u76f4\u5230\u6280\u80fd {0}+  (\u6316\u7926\u7206\u767c)
p2702
sg5
VLOCKED UNTIL {0}+ SKILL (BLAST MINING)
p2703
sg7
VMining.Ability.Locked.0
p2704
ssS'2093982'
p2705
(dp2706
g3
V\u9396\u5b9a\u76f4\u5230\u6280\u80fd {0}+ (\u7206\u7834\u5c08\u5bb6)
p2707
sg5
VLOCKED UNTIL {0}+ SKILL (DEMOLITIONS EXPERTISE)
p2708
sg7
VMining.Ability.Locked.2
p2709
ssS'792088'
p2710
(dp2711
g3
V\u53cd\u64ca
p2712
sg5
VCounter Attack
p2713
sg7
VSwords.Effect.0
p2714
ssS'792054'
p2715
(dp2716
g3
V\u6e1b\u5c11\u6216\u53d6\u6d88\u6389\u843d\u50b7\u5bb3
p2717
sg5
VReduces or Negates fall damage
p2718
sg7
VAcrobatics.Effect.1
p2719
ssS'3790742'
p2720
(dp2721
g16
V[[RED]]- \u5275\u5efa\u65b0\u7684\u968a\u4f0d
p2722
sg18
V[[RED]]- Create a new party
p2723
sg20
VCommands.Party.1
p2724
ssS'791716'
p2725
(dp2726
g3
V[[GREEN]]**\u8ff4\u907f**
p2727
sg5
V[[GREEN]]**Dodged**
p2728
sg7
VAcrobatics.Combat.Proc
p2729
ssS'791757'
p2730
(dp2731
g3
V[[RED]]\u7da0\u5316[[GREEN]] \u5373\u5c07\u7ed3\u675f [[YELLOW]]{0}
p2732
sg5
V[[RED]]Green Terra[[GREEN]] has worn off for [[YELLOW]]{0}
p2733
sg7
VHerbalism.Skills.GTe.Other.Off
p2734
ssS'3531195'
p2735
(dp2736
g3
V[[GRAY]]\u53ec\u559a (\u99ac): \u6309\u4f4fshift\u540c\u6642\u4e26\u6309\u4f4f\u5de6\u9375 \u9084\u9700\u8981\u62ff {0} \u500b\u860b\u679c\u5728\u624b\u88e1
p2737
sg5
V[[GRAY]]COTW (Horse): Crouch and left-click with {0} Apples in hand
p2738
sg7
VTaming.Effect.20
p2739
ssS'3531194'
p2740
(dp2741
g3
V[[RED]]\u4f60\u4e0d\u80fd\u53ec\u63db\u99ac\u56e0\u70ba\u4f60\u5df2\u7d93\u53ec\u559a\u592a\u591a\u4e86.
p2742
sg5
V[[RED]]You have too many horses nearby to summon any more.
p2743
sg7
VTaming.Summon.Fail.Horse
p2744
ssS'791756'
p2745
(dp2746
g3
V[[DARK_RED]]\u4f60\u7684\u6280\u80fd\u7b49\u7d1a\u4e0d\u8db3\u4ee5\u4fee\u7406\u947d\u77f3\u88dd\u5099!
p2747
sg5
V[[DARK_RED]]You're not skilled enough to repair Diamond.
p2748
sg7
VRepair.Skills.AdeptDiamond
p2749
ssS'792053'
p2750
(dp2751
g3
V\u6f02\u4eae\u7ffb\u6efe
p2752
sg5
VGraceful Roll
p2753
sg7
VAcrobatics.Effect.2
p2754
ssS'791727'
p2755
(dp2756
g3
V[[YELLOW]]\u7bad\u8853\u6280\u80fd\u4e0a\u5347\u4e86 {0}. \u7e3d\u7b49\u7ea7 ({1})
p2757
sg5
V[[YELLOW]]Archery skill increased by {0}. Total ({1})
p2758
sg7
VArchery.Skillup
p2759
ssS'791788'
p2760
(dp2761
g3
V[[RED]]\u7206\u70b8\u534a\u5f91\u63d0\u5347: [[YELLOW]]+{0}
p2762
sg5
V[[RED]]Blast Radius Increase: [[YELLOW]]+{0}
p2763
sg7
VMining.Blast.Radius.Increase
p2764
ssS'2158619'
p2765
(dp2766
g16
V[[GREEN]]\u4f60\u50b3\u9001\u7684\u8a71\u8acb\u8f38\u5165[[YELLOW]]/ptp accept. [[GREEN]]\u5728[[RED]]{0} [[GREEN]]\u79d2\u5167\u5fc5\u9808\u5b8c\u6210
p2767
sg18
V[[GREEN]]To teleport, type [[YELLOW]]/ptp accept. [[GREEN]]Request expires in [[RED]]{0} [[GREEN]]seconds.
p2768
sg20
VCommands.ptp.Request2
p2769
ssS'791742'
p2770
(dp2771
g3
V[[GREEN]]{0}[[DARK_GREEN]]\u4f7f\u7528\u4e86 [[RED]]\u5288\u9871\u65ac!
p2772
sg5
V[[GREEN]]{0}[[DARK_GREEN]] has used [[RED]]Skull Splitter!
p2773
sg7
VAxes.Skills.SS.Other.On
p2774
ssS'792140'
p2775
(dp2776
g3
V\u64ca\u843d\u5f13\u7bad
p2777
sg5
VArrow Deflect
p2778
sg7
VUnarmed.Effect.6
p2779
ssS'792143'
p2780
(dp2781
g3
V\u96d9\u500d\u6389\u843d\u7269\u54c1
p2782
sg5
VDouble the normal loot
p2783
sg7
VHerbalism.Effect.9
p2784
ssS'792142'
p2785
(dp2786
g3
V\u96d9\u500d\u6389\u843d (\u6240\u6709\u7684\u690d\u7269)
p2787
sg5
VDouble Drops (All Herbs)
p2788
sg7
VHerbalism.Effect.8
p2789
ssS'791747'
p2790
(dp2791
g3
V[[GRAY]]\u81ea\u52d5\u7784\u6e96\u7684\u6210\u529f\u7387: [[YELLOW]]{0}%
p2792
sg5
V[[GRAY]]AF Success Rate: [[YELLOW]]{0}%
p2793
sg7
VRepair.Arcane.Chance.Success
p2794
ssS'792147'
p2795
(dp2796
g3
V\u98df\u7528\u8fb2\u98df\u54c1\u6642\u984d\u5916\u6062\u5fa9\u98fd\u98df\u5ea6
p2797
sg5
VImproves hunger restored from farmed foods
p2798
sg7
VHerbalism.Effect.7
p2799
ssS'792146'
p2800
(dp2801
g3
V\u8fb2\u592b\u79c1\u623f\u83dc
p2802
sg5
VFarmer's Diet
p2803
sg7
VHerbalism.Effect.6
p2804
ssS'792149'
p2805
(dp2806
g3
V\u6563\u64ad\u4e0a\u5e1d\u7684\u6069\u60e0,3\u500d\u6389\u843d\u7269
p2807
sg5
VSpread the Terra, 3x Drops
p2808
sg7
VHerbalism.Effect.1
p2809
ssS'792148'
p2810
(dp2811
g3
V\u7da0\u5316 (\u4e3b\u52d5\u6280\u80fd)
p2812
sg5
VGreen Terra (ABILITY)
p2813
sg7
VHerbalism.Effect.0
p2814
ssS'791748'
p2815
(dp2816
g3
V\u6548\u679c
p2817
sg5
VEFFECTS
p2818
sg7
VEffects.Effects
p2819
ssS'792052'
p2820
(dp2821
g3
V\u5169\u500d\u7684\u7ffb\u6efe\u6548\u679c
p2822
sg5
VTwice as effective as a normal Roll
p2823
sg7
VAcrobatics.Effect.3
p2824
ssS'2195769'
p2825
(dp2826
g3
V[[RED]]\u968a\u4f0d\u7684\u7269\u54c1\u5206\u4eab\u95dc\u9589.
p2827
sg5
V[[RED]]Party item sharing is disabled.
p2828
sg7
VParty.ItemShare.Disabled
p2829
ssS'2195768'
p2830
(dp2831
g3
V[[RED]]\u4f60\u7121\u6cd5\u52a0\u5165\u81ea\u5df1!
p2832
sg5
V[[RED]]You can't join yourself!
p2833
sg7
VParty.Join.Self
p2834
ssS'4081064'
p2835
(dp2836
g3
V[[GREEN]]- \u67e5\u770b\u8a73\u7d30\u7684\u6280\u80fd\u8cc7\u8a0a
p2837
sg5
V[[GREEN]]- View detailed information about a skill
p2838
sg7
VCommands.SkillInfo
p2839
ssS'4081065'
p2840
(dp2841
g3
V<skill> <page> [[GREEN]]- \u6392\u884c\u699c
p2842
sg5
V<skill> <page> [[GREEN]]- Leaderboards
p2843
sg7
VCommands.Leaderboards
p2844
ssS'4081062'
p2845
(dp2846
g3
V<player> [[GREEN]]- \u67e5\u770b\u8a73\u7d30\u7684\u73a9\u5bb6\u8cc7\u8a0a
p2847
sg5
V<player> [[GREEN]]- View detailed player info
p2848
sg7
VCommands.Inspect
p2849
ssS'4081063'
p2850
(dp2851
g3
V[[RED]]---[][[GREEN]]mcMMO \u6307\u4ee4[[RED]][]---
p2852
sg5
V[[RED]]---[][[GREEN]]mcMMO Commands[[RED]][]---
p2853
sg7
VCommands.mcc.Header
p2854
ssS'4081060'
p2855
(dp2856
g3
V[[GREEN]]- \u91cd\u7f6e\u6280\u80fd\u7684\u7b49\u7d1a\u70ba 0
p2857
sg5
V[[GREEN]]- Reset a skill's level to 0
p2858
sg7
VCommands.Reset
p2859
ssS'4081061'
p2860
(dp2861
g3
V[[GREEN]]- \u5207\u63db\u968a\u4f0d\u983b\u9053
p2862
sg5
V[[GREEN]]- Toggle Party Chat
p2863
sg7
VCommands.Party.Toggle
p2864
ssS'2195761'
p2865
(dp2866
g3
V[[RED]]\u6b32\u4f7f\u7528\u5bc6\u78bc\u4fdd\u8b77\u4f60\u7684\u968a\u4f0d\uff0c\u8acb\u4f7f\u7528[[DARK_AQUA]] {0}<password>
p2867
sg5
V[[RED]]To password protect your party, use [[DARK_AQUA]]{0} <password>
p2868
sg7
VParty.Help.5
p2869
ssS'2195760'
p2870
(dp2871
g3
V[[RED]]\u66f4\u591a\u8cc7\u8a0a\u8acb\u8aee\u8a62[[DARK_AQUA]]{0} 
p2872
sg5
V[[RED]]Consult [[DARK_AQUA]]{0} [[RED]]for more information
p2873
sg7
VParty.Help.2
p2874
ssS'2195763'
p2875
(dp2876
g3
V[[RED]]\u8981\u8f49\u79fb\u4f60\u7684\u968a\u4f0d\u6240\u6709\u6b0a\uff0c\u4f7f\u7528[[DARK_AQUA]] {0} <player>
p2877
sg5
V[[RED]]To transfer ownership of your party, use [[DARK_AQUA]]{0} <player>
p2878
sg7
VParty.Help.7
p2879
ssS'2195762'
p2880
(dp2881
g3
V[[RED]]\u6b32\u9396\u5b9a\u6216\u89e3\u9396\u4f60\u7684\u968a\u4f0d\uff0c\u4f7f\u7528[[DARK_AQUA]] {0}
p2882
sg5
V[[RED]]To lock or unlock your party, use [[DARK_AQUA]]{0}
p2883
sg7
VParty.Help.4
p2884
ssS'2195765'
p2885
(dp2886
g3
V[[RED]]\u4f60\u4e0d\u80fd\u9080\u8acb\u81ea\u5df1\uff01
p2887
sg5
V[[RED]]You can't invite yourself!
p2888
sg7
VParty.Invite.Self
p2889
ssS'2195764'
p2890
(dp2891
g3
V[[RED]]\u8981\u89e3\u6563\u968a\u4f0d\uff0c\u4f7f\u7528[[DARK_AQUA]] {0}
p2892
sg5
V[[RED]]To disband your party, use [[DARK_AQUA]]{0}
p2893
sg7
VParty.Help.8
p2894
ssS'2195767'
p2895
(dp2896
g3
V\u7121
p2897
sg5
VNONE
p2898
sg7
VParty.ShareMode.None
p2899
ssS'4081049'
p2900
(dp2901
g3
V[[GREEN]]- \u5207\u63db\u7ba1\u7406\u54e1\u983b\u9053
p2902
sg5
V[[GREEN]]- Toggle admin chat
p2903
sg7
VCommands.AdminToggle
p2904
ssS'792051'
p2905
(dp2906
g3
V\u8ff4\u907f
p2907
sg5
VDodge
p2908
sg7
VAcrobatics.Effect.4
p2909
ssS'2768313'
p2910
(dp2911
g3
V[[DARK_RED]]\u88ab\u5288\u9871\u65ac\u64ca\u4e2d!
p2912
sg5
V[[DARK_RED]]Struck by SKULL SPLITTER!
p2913
sg7
VAxes.Combat.SS.Struck
p2914
ssS'2115558'
p2915
(dp2916
g3
V[[YELLOW]]{0}[[GREEN]] - [[GOLD]]\u6392\u540d [[WHITE]]#[[GREEN]]{1}
p2917
sg5
V[[YELLOW]]{0}[[GREEN]] - [[GOLD]]Rank [[WHITE]]#[[GREEN]]{1}
p2918
sg7
VCommands.mcrank.Skill
p2919
ssS'2115559'
p2920
(dp2921
g3
V[[RED]]\u8acb\u8f38\u5165 /{0} 
p2922
sg5
V[[RED]] Usage is /{0} ? [page]
p2923
sg7
VGuides.Usage
p2924
ssS'2115557'
p2925
(dp2926
g3
V[[GOLD]]-=[[GREEN]]{0} \u6307\u5357[[GOLD]]=-
p2927
sg5
V[[GOLD]]-=[[GREEN]]{0} Guide[[GOLD]]=-
p2928
sg7
VGuides.Header
p2929
ssS'791997'
p2930
(dp2931
g3
V\u50b7\u5bb3\u734e\u52f5
p2932
sg5
VDamage Bonus
p2933
sg7
VTaming.Effect.5
p2934
ssS'791996'
p2935
(dp2936
g3
V\u5229\u722a
p2937
sg5
VSharpened Claws
p2938
sg7
VTaming.Effect.4
p2939
ssS'791995'
p2940
(dp2941
g3
V\u4ed9\u4eba\u638c/\u5ca9\u6f3f \u6050\u61fc\u75c7, \u514d\u75ab\u6389\u5165\u50b7\u5bb3
p2942
sg5
VCactus/Lava Phobia, Fall DMG Immune
p2943
sg7
VTaming.Effect.7
p2944
ssS'791994'
p2945
(dp2946
g3
V\u5371\u6a5f\u610f\u8b58
p2947
sg5
VEnvironmentally Aware
p2948
sg7
VTaming.Effect.6
p2949
ssS'791993'
p2950
(dp2951
g3
V\u5229\u722a
p2952
sg5
VSharpened Claws
p2953
sg7
VTaming.Ability.Bonus.6
p2954
ssS'791991'
p2955
(dp2956
g3
V\u885d\u64ca\u683c\u64cb
p2957
sg5
VShock Proof
p2958
sg7
VTaming.Ability.Bonus.4
p2959
ssS'792050'
p2960
(dp2961
g3
V\u6e1b\u5c11\u4e00\u534a\u7684\u50b7\u5bb3
p2962
sg5
VReduce attack damage by half
p2963
sg7
VAcrobatics.Effect.5
p2964
ssS'791999'
p2965
(dp2966
g3
V\u6703\u5fc3\u4e00\u64ca\u4f7f\u76ee\u6a19\u6d41\u8840
p2967
sg5
VCritical Strike that applies Bleed
p2968
sg7
VTaming.Effect.3
p2969
ssS'791998'
p2970
(dp2971
g3
V\u6d41\u8840
p2972
sg5
VGore
p2973
sg7
VTaming.Effect.2
p2974
ssS'3587628'
p2975
(dp2976
g3
V[[DARK_AQUA]]\u5982\u4f55\u4f7f\u7528\u8d85\u7d1a\u788e\u77f3\u6a5f:[[YELLOW]]\u624b\u62ff\u8457\u93ac\u5b50\u9ede\u6ed1\u9f20\u53f3\u9375\u4ee5\u6e96\u5099\u597d\u958b\u555f\u6280\u80fd.[[YELLOW]]\u4e00\u65e6\u958b\u555f\u6280\u80fd\u5c07\u6709\u6578\u79d2\u7684\u6642\u9593\u53ef\u4ee5\u8b93\u4f60[[YELLOW]]\u5feb\u901f\u7834\u58de\u6307\u5b9a\u7926\u7269,\u53ea\u6709\u76f8\u5bb9\u7684\u7926\u7269\u53ef\u4ee5[[YELLOW]]\u89f8\u767c\u6280\u80fd.
p2977
sg5
V[[DARK_AQUA]]How to use Super Breaker:\u005cn[[YELLOW]]With a pickaxe in your hand, right click to ready your tool.\u005cn[[YELLOW]]Once in this state, you have about 4 seconds to make contact\u005cn[[YELLOW]]with Mining compatible materials, which will activate Super\u005cn[[YELLOW]]Breaker.
p2978
sg7
VGuides.Mining.Section.2
p2979
ssS'3587629'
p2980
(dp2981
g3
V[[DARK_AQUA]]\u4ec0\u9ebc\u662f\u7206\u7834\u6316\u6398?[[YELLOW]]\u7206\u7834\u6316\u6398\u662f\u4e00\u500b\u4e3b\u52d5\u6280\u80fd, \u51b7\u537b\u6642\u9593\u95dc\u4fc2\u5230\u4f60\u7684\u6316\u7926[[YELLOW]]\u6280\u80fd\u7b49\u7d1a. \u5b83\u53ef\u4ee5\u8b93\u4f60\u5728\u4f7f\u7528TNT\u6316\u7926\u77f3\u6709\u66f4\u591a\u798f\u5229[[YELLOW]]\u4e14\u53ef\u4ee5\u9059\u63a7\u5f15\u7206TNT. \u7206\u7834\u6316\u6398\u5206\u6210\u4e09\u90e8\u5206.[[YELLOW]]\u7b2c\u4e00\u90e8\u5206\u7a31\u70ba\u5de8\u5927\u7206\u7834, \u53ef \u4ee5\u64f4\u5927\u4f60\u7684\u7206\u7834\u7bc4\u570d.[[YELLOW]]\u7b2c\u4e8c\u90e8\u5206\u7a31\u70ba\u7206\u7834\u5c08\u5bb6, \u53ef\u4ee5\u6e1b\u514dTNT\u5c0d\u4f60\u7684\u50b7\u5bb3[[YELLOW]]\u7b2c\u4e09\u90e8\u5206\u7a31\u70ba\u7cbe\u6e96\u7206\u7834, \u589e\u52a0\u6389\u843d\u7269\u6578\u91cf, \u6e1b\u5c11\u5783\u573e\u6389[[YELLOW]]\u843d\u7269\u6578\u91cf, \u5f88\u68d2\u5427.
p2982
sg5
V[[DARK_AQUA]]How does Blast Mining work?\u005cn[[YELLOW]]Blast Mining is an ability with a cooldown tied to the Mining\u005cn[[YELLOW]]skill. It gives bonuses when mining with TNT and allows you\u005cn[[YELLOW]]to remote detonate TNT. There are three parts to Blast Mining.\u005cn[[YELLOW]]The first part is Bigger Bombs, which increases blast radius.\u005cn[[YELLOW]]The second is Demolitions Expert, which decreases damage\u005cn[[YELLOW]]from TNT explosions. The third part simply increases the\u005cn[[YELLOW]]amount of ores dropped from TNT and decreases the\u005cn[[YELLOW]]debris dropped.
p2983
sg7
VGuides.Mining.Section.5
p2984
ssS'791733'
p2985
(dp2986
g3
V[[DARK_RED]]\u4f60\u7684\u6b66\u5668\u88ab\u64ca\u843d!
p2987
sg5
V[[DARK_RED]]You have been disarmed!
p2988
sg7
VSkills.Disarmed
p2989
ssS'3633735'
p2990
(dp2991
g3
V[[RED]]\u9b54\u6cd5\u7375\u4eba\u6a5f\u7387: [[YELLOW]]{0}
p2992
sg5
V[[RED]]Magic Hunter Chance: [[YELLOW]]{0}
p2993
sg7
VFishing.Ability.TH.MagicRate
p2994
ssS'2160040'
p2995
(dp2996
g3
V\u7269\u54c1
p2997
sg5
VITEM
p2998
sg7
VParty.ShareType.Item
p2999
ssS'2160042'
p3000
(dp3001
g3
V[[GRAY]]\u7269\u54c1 [[DARK_AQUA]]({0})
p3002
sg5
V[[GRAY]]ITEM [[DARK_AQUA]]({0})
p3003
sg7
VCommands.Party.ItemShare
p3004
ssS'2160043'
p3005
(dp3006
g3
V[[GRAY]]\u968a\u4f0d {0} \u5206\u4eab\u8a2d\u5b9a\u70ba: [[DARK_AQUA]]{1}
p3007
sg5
V[[GRAY]]Party {0} sharing set to: [[DARK_AQUA]]{1}
p3008
sg7
VCommands.Party.SetSharing
p3009
ssS'3587626'
p3010
(dp3011
g3
V[[DARK_AQUA]]\u95dc\u65bc\u6316\u7926:[[YELLOW]]\u6316\u7926\u7531\u63a1\u77f3\u8207\u63a1\u7926\u6240\u7d44\u6210. \u5b83\u63d0\u4f9b\u6316\u7926\u6642[[YELLOW]]\u7684\u984d\u5916\u7926\u7269\u6389\u843d\u91cf.[[DARK_AQUA]]\u5982\u4f55\u7372\u53d6\u7d93\u9a57:[[YELLOW]]\u8981\u589e\u9032\u6316\u7926\u6280\u80fd,\u4f60\u5fc5\u9808\u7528\u93ac\u5b50\u6316\u7926.[[YELLOW]]\u53ea\u6709\u6316\u6398\u6307\u5b9a\u7926\u7269\u80fd\u589e\u52a0\u7d93\u9a57.
p3012
sg5
V[[DARK_AQUA]]About Mining:\u005cn[[YELLOW]]Mining consists of mining stone and ores. It provides bonuses\u005cn[[YELLOW]]to the amount of materials dropped while mining.\u005cn\u005cn[[DARK_AQUA]]XP GAIN:\u005cn[[YELLOW]]To gain XP in this skill, you must mine with a pickaxe in hand.\u005cn[[YELLOW]]Only certain blocks award XP.
p3013
sg7
VGuides.Mining.Section.0
p3014
ssS'3587627'
p3015
(dp3016
g3
V[[DARK_AQUA]]\u4ec0\u9ebc\u662f\u8d85\u7d1a\u788e\u77f3\u6a5f?[[YELLOW]]\u8d85\u7d1a\u788e\u77f3\u6a5f\u662f\u4e00\u500b\u9700\u8981\u51b7\u537b\u6642\u9593\u7684\u6316\u7926\u6280\u80fd.[[YELLOW]]\u5b83\u80fd\u4f7f\u4f60\u5728\u6316\u6389\u5c0d\u61c9\u7926\u77f3\u7684\u6642\u5019\u589e\u52a03\u500d\u6389\u843d\u6a5f\u7387.[[YELLOW]]\u4e26\u4e14\u5728\u6280\u80fd\u6642\u9593\u5167\u77ac\u9593\u7834\u58de\u77f3\u982d\u548c\u7926\u77f3.
p3017
sg5
V[[DARK_AQUA]]What is Super Breaker?\u005cn[[YELLOW]]Super Breaker is an ability with a cooldown tied to the Mining\u005cn[[YELLOW]]skill. It triples your chance of extra items dropping and\u005cn[[YELLOW]]enables instant break on Mining materials.
p3018
sg7
VGuides.Mining.Section.3
p3019
ssS'3587625'
p3020
(dp3021
g3
V[[DARK_AQUA]]\u76f8\u5bb9\u7684\u7926\u7269:[[YELLOW]]\u77f3\u982d, \u70ad\u7926\u8108, \u9435\u7926\u8108, \u91d1\u7926\u8108, \u947d\u77f3\u7926\u8108, \u7d05\u77f3\u7926\u8108,[[YELLOW]]\u9752\u91d1\u77f3\u7926\u8108, \u9ed1\u66dc\u77f3, \u9752\u82d4\u77f3, \u7d42\u754c\u77f3,[[YELLOW]]\u87a2\u5149\u77f3, \u9084\u6709\u5730\u7344\u77f3.
p3022
sg5
V[[DARK_AQUA]]Compatible Materials:\u005cn[[YELLOW]]Stone, Coal Ore, Iron Ore, Gold Ore, Diamond Ore, Redstone Ore,\u005cn[[YELLOW]]Lapis Ore, Obsidian, Mossy Cobblestone, Ender Stone,\u005cn[[YELLOW]]Glowstone, and Netherrack.
p3023
sg7
VGuides.Mining.Section.1
p3024
ssS'3600027'
p3025
(dp3026
g3
V[[RED]]\u79d8\u6cd5\u935b\u9020: [[YELLOW]]\u6392\u540d {0}/{1}
p3027
sg5
V[[RED]]Arcane Forging: [[YELLOW]]Rank {0}/{1}
p3028
sg7
VRepair.Arcane.Rank
p3029
ssS'3600028'
p3030
(dp3031
g3
V[[RED]]\u5bf6\u7269\u7375\u4eba\u6392\u540d: [[YELLOW]]{0}/{1}
p3032
sg5
V[[RED]]Treasure Hunter Rank: [[YELLOW]]{0}/{1}
p3033
sg7
VFishing.Ability.Rank
p3034
ssS'791732'
p3035
(dp3036
g3
V[[GREEN]]{0}[[DARK_GREEN]] \u4f7f\u7528\u4e86 [[RED]]\u72c2\u66b4!
p3037
sg5
V[[GREEN]]{0}[[DARK_GREEN]] has used [[RED]]Berserk!
p3038
sg7
VUnarmed.Skills.Berserk.Other.On
p3039
ssS'2456030'
p3040
(dp3041
g3
V\u589e\u52a0\u5728\u91e3\u9b5a\u6642\u4e0a\u9264\u7684\u6a5f\u7387
p3042
sg5
VImproves chance of getting a bite while fishing
p3043
sg7
VFishing.Effect.9
p3044
ssS'3587660'
p3045
(dp3046
g3
V[[DARK_AQUA]]\u4ec0\u9ebc\u662f\u9632\u5177\u7834\u58de\u8005?[[YELLOW]]\u66b4\u529b\u7684\u6253\u64ca\u4f7f\u9632\u5177\u7c89\u788e![[YELLOW]]\u9632\u5177\u7834\u58de\u8005\u6709\u88ab\u52d5\u6a5f\u7387\u9020\u6210\u5c0d\u624b\u9632\u5177\u88ab\u7834\u58de![[YELLOW]]\u7834\u58de\u7a0b\u5ea6\u95dc\u4fc2\u5230\u4f60\u7684\u65a7\u982d\u6280\u80fd\u7b49\u7d1a.
p3047
sg5
V[[DARK_AQUA]]How does Armor Impact work?\u005cn[[YELLOW]]Strike with enough force to shatter armor!\u005cn[[YELLOW]]Armor Impact has a passive chance to damage your\u005cn[[YELLOW]]opponent's armor. This damage increases as you level in Axes.
p3048
sg7
VGuides.Axes.Section.4
p3049
ssS'3790750'
p3050
(dp3051
g16
V[[RED]]-----[][[GREEN]]\u968a\u4f0d\u806f\u76df[[RED]][]-----
p3052
sg18
V[[RED]]-----[][[GREEN]]PARTY ALLIANCE[[RED]][]-----
p3053
sg20
VCommands.Party.Alliance.Header
p3054
ssS'3790751'
p3055
(dp3056
g16
V[[RED]]\u8b66\u544a: [[GREEN]]\u4f60\u5f9e {1} \u6536\u5230\u4e00\u500b\u548c {0} \u7d50\u76df\u7684\u9080\u8acb
p3057
sg18
V[[RED]]ALERT: [[GREEN]]You have received a party alliance invite for {0} from {1}
p3058
sg20
VCommands.Party.Alliance.Invite.0
p3059
ssS'3790752'
p3060
(dp3061
g16
V[[YELLOW]]\u8f38\u5165 [[GREEN]]/party alliance accept[[YELLOW]] \u4f86\u63a5\u53d7\u9080\u8acb
p3062
sg18
V[[YELLOW]]Type [[GREEN]]/party alliance accept[[YELLOW]] to accept the invite
p3063
sg20
VCommands.Party.Alliance.Invite.1
p3064
ssS'791857'
p3065
(dp3066
g3
V\u653b\u64ca\u602a\u7269
p3067
sg5
VAttacking Monsters
p3068
sg7
VCommands.XPGain.Axes
p3069
ssS'3919486'
p3070
(dp3071
g16
V\u9396\u5b9a\u76f4\u5230\u6280\u80fd {0}+ (\u968a\u4f0d\u983b\u9053)
p3072
sg18
VLOCKED UNTIL {0}+ (PARTY CHAT)
p3073
sg20
VParty.Feature.Locked.Chat
p3074
ssS'792057'
p3075
(dp3076
g3
V[[YELLOW]]{0}[[GREEN]]{1}[[DARK_AQUA]] XP([[GRAY]]{2}[[DARK_AQUA]]/[[GRAY]]{3}[[DARK_AQUA]])
p3077
sg5
V[[YELLOW]]{0}[[GREEN]]{1}[[DARK_AQUA]] XP([[GRAY]]{2}[[DARK_AQUA]]/[[GRAY]]{3}[[DARK_AQUA]])
p3078
sg7
VSkills.Stats
p3079
ssS'791853'
p3080
(dp3081
g3
V\u6688\u7729(\u9650\u5b9a\u73a9\u5bb6)
p3082
sg5
VDaze (Players)
p3083
sg7
VArchery.Effect.2
p3084
ssS'791845'
p3085
(dp3086
g3
V[[GRAY]]\u53ec\u559a (\u72fc): \u6309\u4f4fshift\u540c\u6642\u4e26\u6309\u4f4f\u5de6\u9375 \u9084\u9700\u8981\u62ff {0} \u6839\u9aa8\u982d\u5728\u624b\u88e1
p3087
sg5
V[[GRAY]]COTW (Wolf): Crouch and left-click with {0} Bones in hand
p3088
sg7
VTaming.Effect.15
p3089
ssS'791844'
p3090
(dp3091
g3
V[[GRAY]]\u53ec\u559a (\u5c71\u8c93): \u6309\u4f4fshift\u540c\u6642\u4e26\u6309\u4f4f\u5de6\u9375 \u9084\u9700\u8981\u62ff {0} \u689d\u9b5a\u5728\u624b\u88e1
p3092
sg5
V[[GRAY]]COTW (Ocelot): Crouch and left-click with {0} Fish in hand
p3093
sg7
VTaming.Effect.14
p3094
ssS'791847'
p3095
(dp3096
g3
V\u4e00\u5b9a\u6a5f\u7387\u4f7f\u72fc\u5728\u653b\u64ca\u6642\u6062\u5fa9\u8840\u91cf
p3097
sg5
VChance for wolves to heal on attack
p3098
sg7
VTaming.Effect.17
p3099
ssS'792043'
p3100
(dp3101
g3
V[[GREEN]]**\u8d85\u7d1a\u788e\u77f3\u6a5f\u5df2\u4f7f\u7528**
p3102
sg5
V[[GREEN]]**SUPER BREAKER ACTIVATED**
p3103
sg7
VMining.Skills.SuperBreaker.On
p3104
ssS'791841'
p3105
(dp3106
g3
V\u7206\u70b8\u50b7\u5bb3\u6e1b\u514d
p3107
sg5
VExplosive Damage Reduction
p3108
sg7
VTaming.Effect.11
p3109
ssS'791850'
p3110
(dp3111
g3
V\u589e\u52a0\u5f13\u7bad\u50b7\u5bb3
p3112
sg5
VIncreases damage done with bows
p3113
sg7
VArchery.Effect.1
p3114
ssS'3587659'
p3115
(dp3116
g3
V[[DARK_AQUA]]\u4ec0\u9ebc\u662f\u7ffb\u6efe?[[YELLOW]]\u4f60\u6709\u4e00\u5b9a\u7684\u6a5f\u7387\u53ef\u4ee5\u6e1b\u514d\u5f9e\u9ad8\u8655\u589c\u843d[[YELLOW]]\u7684\u50b7\u5bb3. \u4f60\u53ef\u4ee5\u6309\u4f4f\u6f5b\u884c\u9375(\u9810\u8a2dshift)[[YELLOW]]\u4f86\u5f97\u5230\u96d9\u500d\u7684\u7ffb\u6efe\u6a5f\u7387.[[YELLOW]]\u9019\u5c07\u89f8\u767c\u5b8c\u7f8e\u8457\u9678\u800c\u4e0d\u53ea\u662f\u55ae\u7d14\u7684\u7ffb\u6efe.[[YELLOW]]\u5b8c\u7f8e\u8457\u9678\u6548\u679c\u8207\u7ffb\u6efe\u985e\u4f3c,\u4f46\u6709\u5169\u500d[[YELLOW]]\u7684\u89f8\u767c\u6a5f\u7387\u4e14\u53ef\u6e1b\u514d\u66f4\u591a\u50b7\u5bb3.[[YELLOW]]\u7ffb\u6efe\u6a5f\u7387\u95dc\u4fc2\u5230\u4f60\u7684\u96dc\u6280\u7b49\u7d1a.
p3117
sg5
V[[DARK_AQUA]]How does Rolling work?\u005cn[[YELLOW]]You have a passive chance when you take fall damage\u005cn[[YELLOW]]to negate the damage done. You can hold the sneak button to\u005cn[[YELLOW]]double your chances during the fall.\u005cn[[YELLOW]]This triggers a Graceful Roll instead of a standard one.\u005cn[[YELLOW]]Graceful Rolls are like regular rolls but are twice as likely to\u005cn[[YELLOW]]occur and provide more damage safety than regular rolls.\u005cn[[YELLOW]]Rolling chance is tied to your skill level
p3118
sg7
VGuides.Acrobatics.Section.1
p3119
ssS'791842'
p3120
(dp3121
g3
V\u91ce\u6027\u547c\u558a
p3122
sg5
VCall of the Wild
p3123
sg7
VTaming.Effect.12
p3124
ssS'3587657'
p3125
(dp3126
g3
V[[DARK_AQUA]]\u6316\u6398\u7684\u6ce8\u610f\u4e8b\u9805:[[YELLOW]]\u6316\u6398\u7684\u6389\u843d\u7269\u662f\u53ef\u96a8\u610f\u8abf\u6574\u7684,[[YELLOW]]\u4e0d\u540c\u4f3a\u670d\u5668\u5c07\u6709\u6240\u5dee\u7570.
p3127
sg5
V[[DARK_AQUA]]Notes about Excavation:\u005cn[[YELLOW]]Excavation drops are completely customizeable\u005cn[[YELLOW]]So results vary server to server.
p3128
sg7
VGuides.Excavation.Section.5
p3129
ssS'3587656'
p3130
(dp3131
g3
V[[DARK_AQUA]]\u4ec0\u9ebc\u662f\u7da0\u5316?[[YELLOW]]\u7da0\u5316\u662f\u4e00\u500b\u4e3b\u52d5\u6280\u80fd, \u7576\u4f60\u624b\u6301\u92e4\u982d\u6642[[YELLOW]]\u9ede\u64ca\u53f3\u9375\u53ef\u767c\u52d5\u6280\u80fd. \u7da0\u5316\u63d0\u9ad8\u4e09\u88ab\u6536\u7a6b\u7684\u6a5f\u7387. [[YELLOW]]\u540c\u6642\u4e5f\u8b93\u73a9\u5bb6\u6709\u80fd\u529b\u4f7f\u7528\u8eab\u4e0a\u7684\u7a2e\u5b50\u4f86\u8f49\u5316[[YELLOW]]\u65b9\u584a\u4e26\u8ce6\u4e88\u751f\u547d.
p3132
sg5
V[[DARK_AQUA]]How does Green Terra work?\u005cn[[YELLOW]]Green Terra is an active ability, you can right-click\u005cn[[YELLOW]]while holding a hoe to activate Green Terra.\u005cn[[YELLOW]]Green Terra grants players a chance to get 3x drops from\u005cn[[YELLOW]]harvesting plants. It also gives players the ability to\u005cn[[YELLOW]]spread life into blocks and transform them using seeds\u005cn[[YELLOW]]from your inventory.
p3133
sg7
VGuides.Herbalism.Section.2
p3134
ssS'3587655'
p3135
(dp3136
g3
V[[DARK_AQUA]]\u95dc\u65bc\u8349\u85e5\u5b78:[[YELLOW]]\u8349\u85e5\u5b78\u662f\u95dc\u65bc\u63a1\u6536\u8349\u85e5\u8207\u690d\u7269\u7684\u6280\u80fd.[[DARK_AQUA]]\u7372\u53d6\u7d93\u9a57:[[YELLOW]]\u63a1\u6536\u8349\u85e5\u6216\u690d\u7269.
p3137
sg5
V[[DARK_AQUA]]About Herbalism:\u005cn[[YELLOW]]Herbalism is about collecting herbs and plants.\u005cn\u005cn\u005cn[[DARK_AQUA]]XP GAIN:\u005cn[[YELLOW]]Collect plants and herbs.
p3138
sg7
VGuides.Herbalism.Section.0
p3139
ssS'791961'
p3140
(dp3141
g3
V\u6280\u80fd\u4f7f\u7528 [[RED]]\u95dc\u9589
p3142
sg5
VAbility use toggled [[RED]]off
p3143
sg7
VCommands.Ability.Off
p3144
ssS'791849'
p3145
(dp3146
g3
V[[GREEN]]\u4f60\u7684 [[YELLOW]]\u5272\u88c2\u65ac [[GREEN]]\u6280\u80fd\u5df2\u53ef\u4f7f\u7528!
p3147
sg5
V[[GREEN]]Your [[YELLOW]]Serrated Strikes [[GREEN]]ability is refreshed!
p3148
sg7
VSwords.Skills.SS.Refresh
p3149
ssS'3587652'
p3150
(dp3151
g3
V[[DARK_AQUA]]\u4ec0\u9ebc\u662f\u96d9\u500d\u6389\u843d?[[YELLOW]]\u9019\u662f\u4e00\u500b\u88ab\u52d5\u6280\u80fd\u4f7f\u73a9\u5bb6\u80fd\u52a0\u500d\u6536\u7372.
p3152
sg5
V[[DARK_AQUA]]How do Double Drops work?\u005cn[[YELLOW]]This passive ability gives players more yield from their\u005cn[[YELLOW]]harvests.
p3153
sg7
VGuides.Herbalism.Section.7
p3154
ssS'3587651'
p3155
(dp3156
g3
V[[DARK_AQUA]]\u4ec0\u9ebc\u662f\u8fb2\u592b\u79c1\u623f\u83dc?[[YELLOW]]\u9019\u662f\u4e00\u500b\u88ab\u52d5\u6280\u80fd, \u53ef\u589e\u52a0\u4e0b\u5217\u98df\u7269\u7684\u98fd\u98df\u5ea6\u56de\u5fa9 -[[YELLOW]]\u9eb5\u5305, \u9905\u4e7e, \u897f\u74dc, \u8611\u83c7\u6e6f, \u80e1\u863f\u8514, \u99ac\u9234\u85af.
p3157
sg5
V[[DARK_AQUA]]How does Farmer's Diet work?\u005cn[[YELLOW]]This passive skill increases the amount of hunger restored \u005cn[[YELLOW]]when eating Bread, Cookies, Melons, Mushroom Soup, Carrots,\u005cn[[YELLOW]]and Potatoes.
p3158
sg7
VGuides.Herbalism.Section.5
p3159
ssS'3587650'
p3160
(dp3161
g3
V[[DARK_AQUA]]\u4ec0\u9ebc\u662f\u64ca\u843d\u6b66\u5668?[[YELLOW]]\u9019\u500b\u88ab\u52d5\u6280\u80fd\u8b93\u73a9\u5bb6\u89e3\u9664\u5176\u4ed6\u73a9\u5bb6\u7684\u6b66\u88dd,[[YELLOW]]\u4f7f\u76ee\u6a19\u6240\u88dd\u5099\u7684\u7269\u54c1\u6389\u843d\u5230\u5730\u4e0a.
p3162
sg5
V[[DARK_AQUA]]How does Disarm work?\u005cn[[YELLOW]]This passive ability allows players to disarm other players,\u005cn[[YELLOW]]causing the target's equipped item to fall to the ground.
p3163
sg7
VGuides.Unarmed.Section.5
p3164
ssS'791947'
p3165
(dp3166
g3
V\u9435\u81c2\u98a8\u683c
p3167
sg5
VIron Arm Style
p3168
sg7
VUnarmed.Ability.Bonus.0
p3169
ssS'791971'
p3170
(dp3171
g3
V\u640f\u64ca
p3172
sg5
VUNARMED
p3173
sg7
VUnarmed.SkillName
p3174
ssS'791940'
p3175
(dp3176
g3
V\u7ba1\u7406\u54e1\u804a\u5929\u6a21\u5f0f [[GREEN]]\u958b\u555f
p3177
sg5
VAdmin Chat only [[GREEN]]On
p3178
sg7
VCommands.AdminChat.On
p3179
ssS'791941'
p3180
(dp3181
g3
V[[GOLD]]\u4f60\u7684\u7d93\u9a57\u503c\u73fe\u5728 [[GREEN]]\u89e3\u9664\u9396\u5b9a\u4e86[[GOLD]]!
p3182
sg5
V[[GOLD]]Your XP BAR is now [[GREEN]]UNLOCKED[[GOLD]]!
p3183
sg7
VCommands.xplock.unlocked
p3184
ssS'791942'
p3185
(dp3186
g3
V[[GREEN]]\u4f60\u7684 [[YELLOW]]\u72c2\u66b4 [[GREEN]]\u6280\u80fd\u5df2\u53ef\u4f7f\u7528!
p3187
sg5
V[[GREEN]]Your [[YELLOW]]Berserk [[GREEN]]ability is refreshed!
p3188
sg7
VUnarmed.Skills.Berserk.Refresh
p3189
ssS'2158629'
p3190
(dp3191
g3
V\u968a\u4f0d\u50b3\u9001\u8acb\u6c42\u78ba\u8a8d [[GREEN]]\u555f\u7528
p3192
sg5
VParty teleport request confirmation [[GREEN]]enabled
p3193
sg7
VCommands.ptp.AcceptAny.Enabled
p3194
ssS'2158628'
p3195
(dp3196
g3
V[[DARK_RED]]{0} \u5df2\u4e0d\u5728\u4f60\u7684\u5718\u968a
p3197
sg5
V[[DARK_RED]]{0} is not in a party
p3198
sg7
VParty.PlayerNotInParty
p3199
ssS'2158627'
p3200
(dp3201
g3
V[[DARK_GREEN]](\u958b\u555f)
p3202
sg5
V[[DARK_GREEN]](OPEN)
p3203
sg7
VParty.Status.Unlocked
p3204
ssS'2158626'
p3205
(dp3206
g3
V[[GRAY]]\u968a\u4f0d\u540d\u7a31\u5df2\u66f4\u6539\u70ba: [[WHITE]]{0}
p3207
sg5
V[[GRAY]]Party name changed to: [[WHITE]]{0}
p3208
sg7
VCommands.Party.Rename
p3209
ssS'2158625'
p3210
(dp3211
g3
V[[RED]]{0} \u5df2\u7d93\u5728\u4f60\u968a\u4f0d\u88e1\u4e86!
p3212
sg5
V[[RED]]{0} already is in your party!
p3213
sg7
VParty.Player.InSameParty
p3214
ssS'2158623'
p3215
(dp3216
g3
V[[RED]]\u968a\u4f0d\u50b3\u9001\u5df2\u6210\u529f!
p3217
sg5
V[[RED]]Party teleport request has expired!
p3218
sg7
VCommands.ptp.RequestExpired
p3219
ssS'2158622'
p3220
(dp3221
g3
V[[DARK_RED]]\u5c0d\u4f0d{0} \u5df2\u5b58\u5728!
p3222
sg5
V[[DARK_RED]]Party {0} already exists!
p3223
sg7
VCommands.Party.AlreadyExists
p3224
ssS'2158621'
p3225
(dp3226
g3
V[[GREEN]]\u968a\u4f0d\u5bc6\u78bc\u8a2d\u5b9a\u70ba {0}
p3227
sg5
V[[GREEN]]Party password set to {0}
p3228
sg7
VParty.Password.Set
p3229
ssS'2158620'
p3230
(dp3231
g3
V[[YELLOW]]{0} [[GREEN]]\u5df2\u50b3\u9001\u81f3\u4f60\u65c1\u908a.
p3232
sg5
V[[YELLOW]]{0} [[GREEN]]has requested to teleport to you.
p3233
sg7
VCommands.ptp.Request1
p3234
ssS'2190044'
p3235
(dp3236
g3
V\u66f4\u65b0\u6240\u6709McMMO\u6280\u80fd\u51b7\u537b\u6642\u9593
p3237
sg5
VRefresh all cooldowns for mcMMO
p3238
sg7
VCommands.Description.mcrefresh
p3239
ssS'792152'
p3240
(dp3241
g3
V\u8d85\u7d1a\u788e\u77f3\u6a5f (\u4e3b\u52d5\u6280\u80fd)
p3242
sg5
VSuper Breaker (ABILITY)
p3243
sg7
VMining.Effect.0
p3244
ssS'2190040'
p3245
(dp3246
g3
V\u8abf\u6574mcMMO\u7d93\u9a57\u503c\u6bd4\u4f8b\u6216\u8209\u8fa6mcMMO\u7d93\u9a57\u503c\u52a0\u500d\u6d3b\u52d5
p3247
sg5
VModify the mcMMO XP rate or start an mcMMO XP event
p3248
sg7
VCommands.Description.xprate
p3249
ssS'2158658'
p3250
(dp3251
g16
V[[RED]]- \u5df2\u767c\u9001\u968a\u4f0d\u9080\u8acb
p3252
sg18
V[[RED]]- Send party invite
p3253
sg20
VCommands.Party.Invite
p3254
ssS'2158659'
p3255
(dp3256
g3
V[[RED]]\u9435\u722a\u6a5f\u7387: [[YELLOW]]{0}
p3257
sg5
V[[RED]]Iron Grip Chance: [[YELLOW]]{0}
p3258
sg7
VUnarmed.Ability.Chance.IronGrip
p3259
ssS'792040'
p3260
(dp3261
g3
V[[GREEN]]**\u767c\u52d5\u72c2\u66b4**
p3262
sg5
V[[GREEN]]**BERSERK ACTIVATED**
p3263
sg7
VUnarmed.Skills.Berserk.On
p3264
ssS'2664182'
p3265
(dp3266
g16
V[[RED]]- \u67e5\u770b\u6280\u80fd\u7684\u8a73\u7d30\u8cc7\u8a0a
p3267
sg18
V[[RED]]- View detailed information about a skill
p3268
sg20
VCommands.SkillInfo
p3269
ssS'3785670'
p3270
(dp3271
g3
V[[RED]]mcMMO \u5f97\u5206\u699c\u4e26\u672a\u555f\u7528.
p3272
sg5
V[[RED]]The mcMMO scoreboard is not active.
p3273
sg7
VCommands.Scoreboard.NoBoard
p3274
ssS'2158652'
p3275
(dp3276
g3
V[[DARK_RED]](\u53ea\u53ef\u9080\u8acb)
p3277
sg5
V[[DARK_RED]](INVITE-ONLY)
p3278
sg7
VParty.Status.Locked
p3279
ssS'2158653'
p3280
(dp3281
g3
V{0} [[GREEN]]\u96e2\u958b\u4e86\u4f60\u7684\u968a\u4f0d
p3282
sg5
V{0} [[GREEN]]has left your party
p3283
sg7
VParty.InformedOnQuit
p3284
ssS'2158651'
p3285
(dp3286
g3
V{0} [[GREEN]]\u52a0\u5165\u4e86\u4f60\u7684\u968a\u4f0d
p3287
sg5
V{0} [[GREEN]]has joined your party
p3288
sg7
VParty.InformedOnJoin
p3289
ssS'2158657'
p3290
(dp3291
g3
V[[GREEN]]\u968a\u4f0d\u5bc6\u78bc\u5df2\u522a\u9664.
p3292
sg5
V[[GREEN]]Party password has been cleared.
p3293
sg7
VParty.Password.Removed
p3294
ssS'2158654'
p3295
(dp3296
g3
V[[GRAY]]\u5275\u5efa\u7684\u968a\u4f0d\u540d\u7a31: {0}
p3297
sg5
V[[GRAY]]Created Party: {0}
p3298
sg7
VCommands.Party.Create
p3299
ssS'2158655'
p3300
(dp3301
g3
V[[GOLD]]{0} [[GREEN]]\u5c07\u968a\u4f0d\u540d\u7a31\u8a2d\u5b9a\u70ba [[WHITE]]{1}
p3302
sg5
V[[GOLD]]{0} [[GREEN]]has set the party name to [[WHITE]]{1}
p3303
sg7
VParty.InformedOnNameChange
p3304
ssS'3356094'
p3305
(dp3306
g3
V\u683c\u6a94\u6642\u53cd\u5f48{0}\u50b7\u5bb3\u503c
p3307
sg5
VReflect {0} of damage taken while blocking
p3308
sg7
VSwords.Effect.1
p3309
ssS'3380717'
p3310
(dp3311
g3
V[[GOLD]][mcMMO] \u72c0\u614b\u907a\u5931\u7387\u8b8a\u66f4\u70ba {0}.
p3312
sg5
V[[GOLD]][mcMMO] The stat loss percentage was changed to {0}.
p3313
sg7
VHardcore.DeathStatLoss.PercentageChanged
p3314
ssS'791787'
p3315
(dp3316
g3
V[[RED]]\u6b64\u73a9\u5bb6\u4e0d\u5b58\u5728
p3317
sg5
V[[RED]]That is not a valid player.
p3318
sg7
VParty.Player.Invalid
p3319
ssS'792028'
p3320
(dp3321
g3
V[[YELLOW]]\u91e3\u9b5a\u6280\u80fd\u4e0a\u5347\u4e86 {0}. \u7e3d\u7b49\u7d1a ({1})
p3322
sg5
V[[YELLOW]]Fishing skill increased by {0}. Total ({1})
p3323
sg7
VFishing.Skillup
p3324
ssS'792041'
p3325
(dp3326
g3
V[[RED]]\u9019\u500b\u968a\u4f0d\u4e26\u6c92\u6709\u9396\u5b9a!
p3327
sg5
V[[RED]]This party is not locked!
p3328
sg7
VParty.IsntLocked
p3329
ssS'2190048'
p3330
(dp3331
g3
V\u63a7\u5236\u5404\u7a2emcMMO\u968a\u4f0d\u8a2d\u7f6e
p3332
sg5
VControl various mcMMO party settings
p3333
sg7
VCommands.Description.party
p3334
ssS'4083025'
p3335
(dp3336
g249
V[[DARK_AQUA]]\u8abf\u914d\u7b2c 1 \u968e\u6bb5:\u005cn[[YELLOW]]\u70c8\u7130\u7c89(Blaze Powder), \u767c\u9175\u8718\u86db\u773c(Fermented Spider Eye), \u5e7d\u9748\u4e4b\u6dda(Ghast Tear), \u7d05\u77f3(Redstone),\u005cn[[YELLOW]]\u87a2\u77f3\u7c89(Glowstone Dust), \u7cd6(Sugar), \u9472\u91d1\u897f\u74dc(Glistering Melon), \u91d1\u80e1\u863f\u8514(Golden Carrot),\u005cn[[YELLOW]]\u7194\u5ca9\u7403(Magma Cream), \u5730\u7344\u7599\u7629(Nether Wart), \u8718\u86db\u773c(Spider Eye), \u706b\u85e5(Suplhur), \u8377\u8449(Water Lily),\u005cn[[YELLOW]]\u6cb3\u8c5a(Pufferfish)
p3337
sg251
V[[DARK_AQUA]]Concotions tier 1 ingredients:\u005cn[[YELLOW]]Blaze Powder, Fermented Spider Eye, Ghast Tear, Redstone,\u005cn[[YELLOW]]Glowstone Dust, Sugar, Glistering Melon, Golden Carrot,\u005cn[[YELLOW]]Magma Cream, Nether Wart, Spider Eye, Suplhur, Water Lily,\u005cn[[YELLOW]]Pufferfish
p3338
sg253
VGuides.Alchemy.Section.3
p3339
ssS'4083020'
p3340
(dp3341
g249
V[[DARK_AQUA]]\u4ec0\u9ebc\u662f\u50ac\u5316?\u005cn[[YELLOW]]\u50ac\u5316\u52a0\u5feb\u91c0\u9020\u904e\u7a0b, \u7b49\u7d1a 1000 \u6642\u70ba 4x \u7684\u901f\u5ea6.\u005cn[[YELLOW]]\u9019\u500b\u80fd\u529b\u9810\u8a2d\u7b49\u7d1a 100 \u6642\u958b\u653e.
p3342
sg251
V[[DARK_AQUA]]How does Catalysis work?\u005cn[[YELLOW]]Catalysis speeds of the brewing process, with a\u005cn[[YELLOW]]max speed of 4x at level 1000.\u005cn[[YELLOW]]This ability is unlocked at level 100 by default.
p3343
sg253
VGuides.Alchemy.Section.1
p3344
ssS'3975696'
p3345
(dp3346
g3
V[[RED]]\u91c0\u9020\u901f\u5ea6: [[YELLOW]]{0}
p3347
sg5
V[[RED]]Brewing Speed: [[YELLOW]]{0}
p3348
sg7
VAlchemy.Catalysis.Speed
p3349
ssS'792122'
p3350
(dp3351
g3
V[[YELLOW]]\u640f\u64ca\u6280\u80fd\u4e0a\u5347\u4e86 {0}. \u7e3d\u7b49\u7d1a ({1})
p3352
sg5
V[[YELLOW]]Unarmed skill increased by {0}. Total ({1})
p3353
sg7
VUnarmed.Skillup
p3354
ssS'3790739'
p3355
(dp3356
g16
V[[GREEN]]\u63a5\u53d7\u9080\u8acb\uff0c\u4f60\u52a0\u5165\u4e86\u968a\u4f0d {0}
p3357
sg18
V[[GREEN]]Invite Accepted. You have joined party {0}
p3358
sg20
VCommands.Party.Invite.Accepted
p3359
ssS'4083024'
p3360
(dp3361
g249
V[[DARK_AQUA]]\u8abf\u914d\u7b2c 7 \u968e\u6bb5:\u005cn[[YELLOW]]\u6bd2\u99ac\u9234\u85af(Poisonous Potato)\u005cn[[DARK_AQUA]]\u8abf\u914d\u7b2c 8 \u968e\u6bb5:\u005cn[[YELLOW]]\u91d1\u860b\u679c(Golden Apple) (\u4e00\u822c)
p3362
sg251
V[[DARK_AQUA]]Concotions tier 7 ingredients:\u005cn[[YELLOW]]Poisonous Potato\u005cn\u005cn[[DARK_AQUA]]Concotions tier 8 ingredients:\u005cn[[YELLOW]]Golden Apple (regular)
p3363
sg253
VGuides.Alchemy.Section.6
p3364
ssS'791869'
p3365
(dp3366
g3
V[[YELLOW]]mcMMO \u795e\u4e4b\u6a21\u5f0f\u53d6\u6d88
p3367
sg5
V[[YELLOW]]mcMMO Godmode Disabled
p3368
sg7
VCommands.GodMode.Disabled
p3369
ssS'2124948'
p3370
(dp3371
g3
V[[GREEN]]\u5728\u5168\u90e8\u7684\u6280\u80fd\u88e1\u4f60\u9084\u5dee {0} \u7d93\u9a57\u503c!
p3372
sg5
V[[GREEN]]You were awarded {0} experience in all skills!
p3373
sg7
VCommands.addxp.AwardAll
p3374
ssS'791789'
p3375
(dp3376
g3
V[[RED]]\u6b64\u73a9\u5bb6\u4e0d\u5b58\u5728\uff01
p3377
sg5
V[[RED]]Player does not exist in the database!
p3378
sg7
VCommands.DoesNotExist
p3379
ssS'2217090'
p3380
(dp3381
g3
V[[DARK_GRAY]]\u5171\u4eab\u7269\u54c1: [[GRAY]][[ITALIC]]{0}
p3382
sg5
V[[DARK_GRAY]]Sharing Items: [[GRAY]][[ITALIC]]{0}
p3383
sg7
VCommands.Party.ItemShareCategories
p3384
ssS'791836'
p3385
(dp3386
g16
V[[RED]]- \u5207\u63db\u70ba\u795e\u4e4b\u6a21\u5f0f
p3387
sg18
V[[RED]]- Toggle GodMode
p3388
sg20
VCommands.mcgod
p3389
ssS'792022'
p3390
(dp3391
g3
V[[RED]]\u9019\u4e0d\u662f\u4e00\u500b\u6709\u6548\u7684\u6280\u80fd\u540d\u5b57!
p3392
sg5
V[[RED]]That is not a valid skillname!
p3393
sg7
VCommands.Skill.Invalid
p3394
ssS'3975695'
p3395
(dp3396
g3
V[[RED]]\u8abf\u914d\u7b49\u7d1a: [[YELLOW]]{0}
p3397
sg5
V[[RED]]Concoctions Rank: [[YELLOW]]{0}
p3398
sg7
VAlchemy.Concoctions.Rank
p3399
ssS'791866'
p3400
(dp3401
g3
V[[GREEN]]{0}[[DARK_GREEN]] \u4f7f\u7528\u4e86 [[RED]]\u7da0\u5316!
p3402
sg5
V[[GREEN]]{0}[[DARK_GREEN]] has used [[RED]]Green Terra!
p3403
sg7
VHerbalism.Skills.GTe.Other.On
p3404
ssS'791743'
p3405
(dp3406
g16
V[player] <skill> <newvalue> [[RED]] - \u7de8\u8f2f\u76ee\u6a19
p3407
sg18
V[player] <skill> <newvalue> [[RED]] - Modify target
p3408
sg20
VCommands.mmoedit
p3409
ssS'792020'
p3410
(dp3411
g3
V\u6316\u7926
p3412
sg5
VMINING
p3413
sg7
VMining.SkillName
p3414
ssS'791831'
p3415
(dp3416
g3
V[[GOLD]]-=\u96dc\u985e\u6280\u80fd=-
p3417
sg5
V[[GOLD]]-=MISC SKILLS=-
p3418
sg7
VStats.Header.Misc
p3419
ssS'791892'
p3420
(dp3421
g3
V[[GREEN]]**\u5b8c\u7f8e\u8457\u9678**
p3422
sg5
V[[GREEN]]**Graceful Landing**
p3423
sg7
VAcrobatics.Ability.Proc
p3424
ssS'791893'
p3425
(dp3426
g16
V[[RED]]- \u96e2\u958b\u4f60\u73fe\u5728\u7684\u968a\u4f0d
p3427
sg18
V[[RED]]- Leave your current party
p3428
sg20
VCommands.Party.Quit
p3429
ssS'791864'
p3430
(dp3431
g3
V\u65a7\u6280
p3432
sg5
VAXES
p3433
sg7
VAxes.SkillName
p3434
ssS'791896'
p3435
(dp3436
g3
V\u7528\u8db3\u5920\u7684\u529b\u91cf\u4f86\u7a81\u7834\u88dd\u7532
p3437
sg5
VStrike with enough force to shatter armor
p3438
sg7
VAxes.Effect.7
p3439
ssS'3975690'
p3440
(dp3441
g3
V\u934a\u91d1\u8853
p3442
sg5
VALCHEMY
p3443
sg7
VAlchemy.SkillName
p3444
ssS'791895'
p3445
(dp3446
g3
V[[GREEN]]{0}[[DARK_GREEN]] \u4f7f\u7528\u4e86 [[RED]]\u66b4\u8d70\u947d\u982d!
p3447
sg5
V[[GREEN]]{0}[[DARK_GREEN]] has used [[RED]]Giga Drill Breaker!
p3448
sg7
VExcavation.Skills.GigaDrillBreaker.Other.On
p3449
ssS'3587675'
p3450
(dp3451
g3
V[[DARK_AQUA]]\u7bad\u8853:[[YELLOW]]\u7bad\u8853\u662f\u7528\u5f13\u5c04\u7bad\u7684\u6280\u80fd.[[YELLOW]]\u7bad\u8853\u6709\u5404\u7a2e\u52a0\u4e58\u6548\u679c,\u5982\u52a0\u4e58\u653b\u64ca[[YELLOW]]\u6688\u7729\u5c0d\u624b\u7b49\u6548\u679c.[[YELLOW]]\u6b64\u5916\u4f60\u4e5f\u6709\u6a5f\u7387\u56de\u6536\u5df2\u7d93\u5c04\u4e2d\u6575\u4eba\u7684\u7bad[[YELLOW]] \u4ee5\u4e0a\u6a5f\u7387\u95dc\u4fc2\u5230\u7b49\u7d1a.[[DARK_AQUA]]\u7372\u53d6\u7d93\u9a57:[[YELLOW]]\u8981\u7372\u5f97\u7d93\u9a57\u5fc5\u9808\u7528\u5f13\u5c04\u4e2d\u602a\u7269\u6216\u73a9\u5bb6.
p3452
sg5
V[[DARK_AQUA]]About Archery:\u005cn[[YELLOW]]Archery is about shooting with your bow and arrow.\u005cn[[YELLOW]]It provides various combat bonuses, such as a damage boost\u005cn[[YELLOW]]that scales with your level and the ability to daze your\u005cn[[YELLOW]]opponents in PvP. In addition to this, you can retrieve\u005cn[[YELLOW]]some of your spent arrows from the corpses of your foes.\u005cn\u005cn\u005cn[[DARK_AQUA]]XP GAIN:\u005cn[[YELLOW]]To gain XP in this skill you need to shoot mobs or\u005cn[[YELLOW]]other players.
p3453
sg7
VGuides.Archery.Section.0
p3454
ssS'791898'
p3455
(dp3456
g3
V[[GREEN]]**\u555f\u52d5\u4f10\u6728\u5de5**
p3457
sg5
V[[GREEN]]**TREE FELLER ACTIVATED**
p3458
sg7
VWoodcutting.Skills.TreeFeller.On
p3459
ssS'3975691'
p3460
(dp3461
g3
V\u934a\u91d1\u8853:
p3462
sg5
VAlchemy:
p3463
sg7
VAlchemy.Listener
p3464
ssS'791867'
p3465
(dp3466
g3
V\u5272\u88c2\u65ac (\u4e3b\u52d5\u6280\u80fd)
p3467
sg5
VSerrated Strikes (ABILITY)
p3468
sg7
VSwords.Effect.2
p3469
ssS'2217091'
p3470
(dp3471
g3
V[[GRAY]]\u968a\u4f0d\u5171\u4eab\u7684\u7269\u54c1[[GOLD]]{0} [[GRAY]] \u5df2\u7d93 [[DARK_AQUA]]{1}
p3472
sg5
V[[GRAY]]Party item sharing for [[GOLD]]{0} [[GRAY]]has been [[DARK_AQUA]]{1}
p3473
sg7
VCommands.Party.ToggleShareCategory
p3474
ssS'792138'
p3475
(dp3476
g3
V\u9435\u81c2\u98a8\u683c
p3477
sg5
VIron Arm Style
p3478
sg7
VUnarmed.Effect.4
p3479
ssS'792139'
p3480
(dp3481
g3
V\u8b93\u5f13\u7bad\u504f\u5411
p3482
sg5
VDeflect arrows
p3483
sg7
VUnarmed.Effect.7
p3484
ssS'791719'
p3485
(dp3486
g3
V[[YELLOW]]\u96dc\u6280\u7b49\u7d1a\u4e0a\u5347\u4e86{0}. \u7e3d\u7b49\u7d1a ({1})
p3487
sg5
V[[YELLOW]]Acrobatics skill increased by {0}. Total ({1})
p3488
sg7
VAcrobatics.Skillup
p3489
ssS'3587677'
p3490
(dp3491
g3
V[[DARK_AQUA]]\u4ec0\u9ebc\u662f\u4fee\u7406\u7cbe\u901a?[[YELLOW]]\u55ae\u6b21\u4fee\u5fa9\u7684\u8010\u4e45\u5ea6\u52a0\u4e58.[[YELLOW]]\u9019\u95dc\u4fc2\u5230\u4f60\u7684\u4fee\u5fa9\u7b49\u7d1a.
p3492
sg5
V[[DARK_AQUA]]How does Repair Mastery work?\u005cn[[YELLOW]]Repair Mastery increases the repair amount. The extra amount\u005cn[[YELLOW]]repaired is influenced by your Repair skill level.
p3493
sg7
VGuides.Repair.Section.2
p3494
ssS'792130'
p3495
(dp3496
g3
V[[DARK_RED]]**\u5272\u88c2\u65ac\u5df2\u7d50\u675f**
p3497
sg5
V[[RED]]**Serrated Strikes has worn off**
p3498
sg7
VSwords.Skills.SS.Off
p3499
ssS'791714'
p3500
(dp3501
g3
V\u8349\u85e5\u5b78:
p3502
sg5
VHerbalism:
p3503
sg7
VHerbalism.Listener
p3504
ssS'2456031'
p3505
(dp3506
g3
V\u5782\u91e3\u5927\u5e2b
p3507
sg5
VMaster Angler
p3508
sg7
VFishing.Effect.8
p3509
ssS'3587676'
p3510
(dp3511
g3
V\u4e0b\u6b21\u9084\u6709...
p3512
sg5
VComing soon...
p3513
sg7
VGuides.Smelting.Section.0
p3514
ssS'792134'
p3515
(dp3516
g3
V\u72c2\u66b4 (\u4e3b\u52d5\u6280\u80fd)
p3517
sg5
VBerserk (ABILITY)
p3518
sg7
VUnarmed.Effect.0
p3519
ssS'792135'
p3520
(dp3521
g3
V\u4f7f\u6575\u4eba\u624b\u4e2d\u6b66\u5668\u6389\u843d
p3522
sg5
VDrops the foes item held in hand
p3523
sg7
VUnarmed.Effect.3
p3524
ssS'792136'
p3525
(dp3526
g3
V\u64ca\u843d\u6b66\u5668 (\u50c5\u9650\u65bc\u73a9\u5bb6)
p3527
sg5
VDisarm (Players)
p3528
sg7
VUnarmed.Effect.2
p3529
ssS'791712'
p3530
(dp3531
g3
V[[DARK_RED]]\u982d\u6688\u76ee\u7729...
p3532
sg5
V[[DARK_RED]]Touched Fuzzy. Felt Dizzy.
p3533
sg7
VCombat.TouchedFuzzy
p3534
ssS'791977'
p3535
(dp3536
g3
V[[DARK_RED]]\u4f60\u7121\u6cd5\u4fee\u7406\u758a\u52a0\u7684\u7269\u54c1
p3537
sg5
V[[DARK_RED]]You can't repair stacked items.
p3538
sg7
VRepair.Skills.StackedItems
p3539
ssS'4081059'
p3540
(dp3541
g3
V[[RED]]---[][[GREEN]]\u5176\u4ed6\u6307\u4ee4[[RED]][]---
p3542
sg5
V[[RED]]---[][[GREEN]]OTHER COMMANDS[[RED]][]---
p3543
sg7
VCommands.Other
p3544
ssS'4081058'
p3545
(dp3546
g3
V[[GREEN]]- \u767c\u51fa\u968a\u4f0d\u8acb\u6c42
p3547
sg5
V[[GREEN]]- Send party invite
p3548
sg7
VCommands.Party.Invite
p3549
ssS'4081057'
p3550
(dp3551
g3
V[[GREEN]]- \u67e5\u770b\u4f60\u7684 mcMMO \u72c0\u614b
p3552
sg5
V[[GREEN]]- View your mcMMO stats
p3553
sg7
VCommands.Stats
p3554
ssS'4081056'
p3555
(dp3556
g3
V[[GREEN]]- \u96e2\u958b\u4f60\u76ee\u524d\u7684\u968a\u4f0d
p3557
sg5
V[[GREEN]]- Leave your current party
p3558
sg7
VCommands.Party.Quit
p3559
ssS'4081055'
p3560
(dp3561
g3
V[[GREEN]]- \u5275\u9020\u4e00\u500b\u65b0\u7684\u968a\u4f0d
p3562
sg5
V[[GREEN]]- Create a new party
p3563
sg7
VCommands.Party1
p3564
ssS'4081054'
p3565
(dp3566
g3
V[[GREEN]]- \u4f7f\u7528\u53f3\u9375\u5207\u63db\u6280\u80fd\u4f5c\u7528
p3567
sg5
V[[GREEN]]- Toggle ability activation with right click
p3568
sg7
VCommands.ToggleAbility
p3569
ssS'4081053'
p3570
(dp3571
g3
V[[GREEN]]- \u5207\u63db\u4e0a\u5e1d\u6a21\u5f0f
p3572
sg5
V[[GREEN]]- Toggle GodMode
p3573
sg7
VCommands.mcgod
p3574
ssS'4081052'
p3575
(dp3576
g3
V[[GREEN]]- \u95b1\u8b80\u6a21\u7d44\u7c21\u4ecb
p3577
sg5
V[[GREEN]]- Read brief mod description
p3578
sg7
VCommands.ModDescription
p3579
ssS'4081051'
p3580
(dp3581
g3
V[[GREEN]]- \u63a5\u53d7\u968a\u4f0d\u9080\u8acb
p3582
sg5
V[[GREEN]]- Accept party invite
p3583
sg7
VCommands.Party.Accept
p3584
ssS'4081050'
p3585
(dp3586
g3
V[[RED]]---[][[GREEN]]\u968a\u4f0d\u6307\u4ee4[[RED]][]---
p3587
sg5
V[[RED]]---[][[GREEN]]PARTY COMMANDS[[RED]][]---
p3588
sg7
VCommands.Party.Commands
p3589
ssS'2115560'
p3590
(dp3591
g3
V[[BLUE]] \u5927\u91cf\u734e\u52f5
p3592
sg5
V[[BLUE]] Rain Bonus
p3593
sg7
VFishing.Chance.Raining
p3594
ssS'2115567'
p3595
(dp3596
g3
V[[DARK_RED]]\u4f60\u9700\u8981\u66f4\u591a[[GRAY]]{0}
p3597
sg5
V[[DARK_RED]]You need more [[GRAY]]{0}
p3598
sg7
VSkills.NeedMore
p3599
ssS'3975698'
p3600
(dp3601
g3
V[[RED]]\u6210\u4efd [[[YELLOW]]{0}[[RED]]]: [[YELLOW]]{1}
p3602
sg5
V[[RED]]Ingredients [[[YELLOW]]{0}[[RED]]]: [[YELLOW]]{1}
p3603
sg7
VAlchemy.Concoctions.Ingredients
p3604
ssS'3601292'
p3605
(dp3606
g3
V[[RED]]\u7206\u7834\u6316\u6398: [[YELLOW]] \u6392\u540d {0}/{1} [[GRAY]]({2})
p3607
sg5
V[[RED]]Blast Mining: [[YELLOW]] Rank {0}/{1} [[GRAY]]({2})
p3608
sg7
VMining.Blast.Rank
p3609
ssS'791739'
p3610
(dp3611
g3
V\u79cb\u98a8\u6383\u843d\u8449
p3612
sg5
VLeaf Blower
p3613
sg7
VWoodcutting.Ability.0
p3614
ssS'3785648'
p3615
(dp3616
g3
V\u7ba1\u7406\u4f60\u7684 mcMMO \u5f97\u5206\u699c
p3617
sg5
VManage your mcMMO Scoreboard
p3618
sg7
VCommands.Description.mcscoreboard
p3619
ssS'3785649'
p3620
(dp3621
g3
V\u005c  [[AQUA]]{0}[[WHITE]] - [[DARK_GREEN]] \u5df2\u53ef\u4f7f\u7528!
p3622
sg5
V\u005c  [[AQUA]]{0}[[WHITE]] - [[DARK_GREEN]]Ready!
p3623
sg7
VCommands.Cooldowns.Row.Y
p3624
ssS'3785644'
p3625
(dp3626
g3
V[[DARK_AQUA]]mcMMO \u5f97\u5206\u699c\u6703\u6301\u7e8c\u986f\u793a\u76f4\u5230\u4f60\u8f38\u5165 [[GREEN]]/mcscoreboard clear[[DARK_AQUA]].
p3627
sg5
V[[DARK_AQUA]]The mcMMO scoreboard will stay up until you use [[GREEN]]/mcscoreboard clear[[DARK_AQUA]].
p3628
sg7
VCommands.Scoreboard.Keep
p3629
ssS'3785647'
p3630
(dp3631
g3
V[[YELLOW]]mcMMO \u6392\u540d
p3632
sg5
V[[YELLOW]]mcMMO Rankings
p3633
sg7
VScoreboard.Header.PlayerRank
p3634
ssS'3399050'
p3635
(dp3636
g3
V[[RED]]\u6b63\u5728\u4f7f\u7528{0}\u516c\u5f0f
p3637
sg5
V[[RED]]Already using formula type {0}
p3638
sg7
VCommands.mcconvert.Experience.Same
p3639
ssS'3399051'
p3640
(dp3641
g3
V[[RED]]\u4e0d\u660e\u7684\u516c\u5f0f\u7a2e\u985e! \u6b63\u78ba\u7684\u7a2e\u985e\u70ba: [[GREEN]]LINEAR [[RED]]\u548c [[GREEN]]EXPONENTIAL.
p3642
sg5
V[[RED]]Unknown formula type! Valid types are: [[GREEN]]LINEAR [[RED]]and [[GREEN]]EXPONENTIAL.
p3643
sg7
VCommands.mcconvert.Experience.Invalid
p3644
ssS'3399052'
p3645
(dp3646
g3
V[[GRAY]]\u516c\u5f0f\u8f49\u63db\u5b8c\u6210; \u73fe\u5728\u958b\u59cb\u4f7f\u7528{0} XP\u66f2\u7dda.
p3647
sg5
V[[GRAY]]Formula conversion complete; now using {0} XP curve.
p3648
sg7
VCommands.mcconvert.Experience.Finish
p3649
ssS'2138158'
p3650
(dp3651
g3
V[[RED]]\u4e00\u822c\u7d93\u9a57\u52a0\u4e58: [[YELLOW]]{0}x
p3652
sg5
V[[RED]]Vanilla XP Multiplier: [[YELLOW]]{0}x
p3653
sg7
VSmelting.Ability.VanillaXPBoost
p3654
ssS'792004'
p3655
(dp3656
g3
V[[YELLOW]]--mcMMO [[BLUE]]{0}[[YELLOW]] \u6392\u884c\u699c--
p3657
sg5
V[[YELLOW]]--mcMMO [[BLUE]]{0}[[YELLOW]] Leaderboard--
p3658
sg7
VCommands.Skill.Leaderboard
p3659
ssS'792005'
p3660
(dp3661
g3
V\u4fee\u7406
p3662
sg5
VRepairing
p3663
sg7
VCommands.XPGain.Repair
p3664
ssS'792007'
p3665
(dp3666
g3
V[[RED]]\u60f3\u628a\u7d93\u9a57\u503c\u7372\u5f97\u7387\u8abf\u70ba\u9810\u8a2d\u503c\u8acb\u8f38\u5165 /xprate reset
p3667
sg5
V[[RED]]Proper usage to restore the XP rate to default is /xprate reset
p3668
sg7
VCommands.xprate.proper.1
p3669
ssS'2124978'
p3670
(dp3671
g16
V[[RED]]---[][[YELLOW]]mcMMO \u6307\u4ee4[[RED]][]---
p3672
sg18
V[[RED]]---[][[YELLOW]]mcMMO Commands[[RED]][]---
p3673
sg20
VCommands.mcc.Header
p3674
ssS'2160034'
p3675
(dp3676
g3
V[[DARK_GRAY]]\u63a5\u8fd1\u4f60 [[DARK_AQUA]]{0}[[DARK_GRAY]]/[[DARK_AQUA]]{1}
p3677
sg5
V[[DARK_GRAY]]NEAR YOU [[DARK_AQUA]]{0}[[DARK_GRAY]]/[[DARK_AQUA]]{1}
p3678
sg7
VCommands.Party.MembersNear
p3679
ssS'2160037'
p3680
(dp3681
g3
V\u96a8\u6a5f
p3682
sg5
VRANDOM
p3683
sg7
VParty.ShareMode.Random
p3684
ssS'2160036'
p3685
(dp3686
g3
V[[DARK_GRAY]]\u5206\u4eab\u6a21\u5f0f:
p3687
sg5
V[[DARK_GRAY]]SHARE MODE:
p3688
sg7
VCommands.Party.ShareMode
p3689
ssS'2160039'
p3690
(dp3691
g3
V\u5e73\u5206
p3692
sg5
VEQUAL
p3693
sg7
VParty.ShareMode.Equal
p3694
ssS'2124975'
p3695
(dp3696
g3
V[[RED]]\u90a3\u4e0d\u662f\u4e00\u500b\u53ef\u7528\u7684HUD\u985e\u578b.
p3697
sg5
V[[RED]]That is not a valid HUD type.
p3698
sg7
VCommands.mchud.Invalid
p3699
ssS'2124976'
p3700
(dp3701
g3
V[[GOLD]]\u5c0f\u6487\u6b65: \u6253 [[RED]]/mcrank[[GOLD]] \u53ef\u4ee5\u89c0\u770b\u4f60\u7684\u6392\u540d!
p3702
sg5
V[[GOLD]]Tip: Use [[RED]]/mcrank[[GOLD]] to view all of your personal rankings!
p3703
sg7
VCommands.mctop.Tip
p3704
ssS'2124977'
p3705
(dp3706
g3
V*\u63a7\u5236\u53f0*
p3707
sg5
V*Console*
p3708
sg7
VCommands.Chat.Console
p3709
ssS'2124970'
p3710
(dp3711
g3
V\u73a9\u5bb6
p3712
sg5
Vplayer
p3713
sg7
VCommands.Usage.Player
p3714
ssS'2124971'
p3715
(dp3716
g3
V[[GREEN]]{0} \u5df2\u6210\u529f\u5f9e\u6578\u64da\u88e1\u79fb\u9664!
p3717
sg5
V[[GREEN]]{0} was successfully removed from the database!
p3718
sg7
VCommands.mcremove.Success
p3719
ssS'2124973'
p3720
(dp3721
g3
V[[DARK_RED]]\u56e0\u9592\u7f6e\u904e\u4e45,\u968a\u9577\u81ea\u52d5\u8f49\u8b93.
p3722
sg5
V[[DARK_RED]]You are no longer the party leader.
p3723
sg7
VParty.Owner.NotLeader
p3724
ssS'3975689'
p3725
(dp3726
g3
V\u4f7f\u7528\u66f4\u591a\u5143\u7d20\u4f86\u91c0\u9020\u7684\u85e5\u6c34
p3727
sg5
VBrew potions with more ingredients
p3728
sg7
VAlchemy.Effect.3
p3729
ssS'3975688'
p3730
(dp3731
g3
V\u8abf\u914d
p3732
sg5
VConcoctions
p3733
sg7
VAlchemy.Effect.2
p3734
ssS'791801'
p3735
(dp3736
g3
V\u6316\u6398:
p3737
sg5
VExcavation:
p3738
sg7
VExcavation.Listener
p3739
ssS'791803'
p3740
(dp3741
g3
V[[YELLOW]]\u99b4\u7378\u6280\u80fd\u4e0a\u5347\u4e86 {0}. \u7e3d\u7b49\u7d1a ({1})
p3742
sg5
V[[YELLOW]]Taming skill increased by {0}. Total ({1})
p3743
sg7
VTaming.Skillup
p3744
ssS'791802'
p3745
(dp3746
g3
V[[RED]]\u4f60\u4e0d\u80fd\u50b3\u9001\u81f3\u6b7b\u4ea1\u7684\u73a9\u5bb6\u65c1
p3747
sg5
V[[RED]]You can't teleport to a dead player.
p3748
sg7
VParty.Teleport.Dead
p3749
ssS'3975685'
p3750
(dp3751
g3
V\u91c0\u9020\u85e5\u6c34
p3752
sg5
VBrewing Potions
p3753
sg7
VCommands.XPGain.Alchemy
p3754
ssS'3975687'
p3755
(dp3756
g3
V\u589e\u52a0\u91c0\u9020\u85e5\u6c34\u7684\u901f\u5ea6
p3757
sg5
VIncreases potion brewing speed
p3758
sg7
VAlchemy.Effect.1
p3759
ssS'3975686'
p3760
(dp3761
g3
V\u50ac\u5316
p3762
sg5
VCatalysis
p3763
sg7
VAlchemy.Effect.0
p3764
ssS'2190025'
p3765
(dp3766
g3
V\u6a5f\u7387
p3767
sg5
Vrate
p3768
sg7
VCommands.Usage.Rate
p3769
ssS'2190027'
p3770
(dp3771
g3
V\u986f\u793amcMMO\u7684\u7c21\u8981\u8aaa\u660e
p3772
sg5
VShow a brief description of mcMMO
p3773
sg7
VCommands.Description.mcmmo
p3774
ssS'2190026'
p3775
(dp3776
g3
V\u5207\u63dbmcMMO\u7ba1\u7406\u54e1\u804a\u5929\u958b/\u95dc\u6216\u767c\u9001\u7d66\u7ba1\u7406\u54e1\u7684\u804a\u5929\u6d88\u606f
p3777
sg5
VToggle mcMMO admin chat on/off or send admin chat messages
p3778
sg7
VCommands.Description.adminchat
p3779
ssS'2190029'
p3780
(dp3781
g3
V[\u7da0\u8272]\u60a8\u6240\u6709\u7684\u6280\u80fd\u7b49\u7d1a\u88ab\u8a2d\u5b9a\u70ba{0}\uff01
p3782
sg5
V[[GREEN]]Your level in all skills was set to {0}!
p3783
sg7
VCommands.mmoedit.AllSkills.1
p3784
ssS'2190028'
p3785
(dp3786
g3
V[[RED]]\u6b63\u78ba\u7528\u6cd5\u70ba/{0}
p3787
sg5
V[[RED]]Proper usage is /{0}
p3788
sg7
VCommands.Usage.0
p3789
ssS'791955'
p3790
(dp3791
g3
V[[RED]]\u56e0\u8ddd\u96e2\u592a\u9060\u7121\u6cd5\u67e5\u770b\u90a3\u4f4d\u73a9\u5bb6!
p3792
sg5
V[[RED]]You are too far away to inspect that player!
p3793
sg7
VInspect.TooFar
p3794
ssS'893568'
p3795
(dp3796
g3
V[[RED]]\u653e\u8840\u6a5f\u7387: [[YELLOW]]{0}
p3797
sg5
V[[RED]]Bleed Chance: [[YELLOW]]{0}
p3798
sg7
VSwords.Combat.Bleed.Chance
p3799
ssS'3587658'
p3800
(dp3801
g3
V[[DARK_AQUA]]\u95dc\u65bc\u96dc\u6280:[[YELLOW]]\u96dc\u6280\u53ef\u4ee5\u8b93\u4f60\u5728MMO\u88e1\u73a9\u5f97\u5f88\u512a\u96c5.[[YELLOW]]\u5b83\u53ef\u4ee5\u8b93\u4f60\u5728\u6230\u9b25\u4e2d\u53ca\u74b0\u5883\u4e2d\u53d6\u5f97\u512a\u52e2.[[DARK_AQUA]]\u7d93\u9a57\u5982\u4f55\u7372\u53d6:[[YELLOW]]\u5728\u6230\u9b25\u4e2d\u9583\u8eb2\u653b\u64ca\u6216\u5f9e\u9ad8\u8655\u589c\u843d\u5c07[[YELLOW]]\u53ef\u7372\u5f97\u7d93\u9a57.
p3802
sg5
V[[DARK_AQUA]]About Acrobatics:\u005cn[[YELLOW]]Acrobatics is the art of moving gracefully in mcMMO.\u005cn[[YELLOW]]It provides combat bonuses and environment damage bonuses.\u005cn\u005cn[[DARK_AQUA]]XP GAIN:\u005cn[[YELLOW]]To gain XP in this skill you need to perform a dodge\u005cn[[YELLOW]]in combat or survive falls from heights that damage you.
p3803
sg7
VGuides.Acrobatics.Section.0
p3804
ssS'3587636'
p3805
(dp3806
g3
V[[DARK_AQUA]]\u4ec0\u9ebc\u662f\u65a7\u982d\u7cbe\u901a?[[YELLOW]]\u65a7\u982d\u7cbe\u901a\u53ef\u4ee5\u52a0\u4e58\u65a7\u982d\u7684\u57fa\u672c\u653b\u64ca \u529b[[YELLOW]]\u9810\u8a2d\u4e2d\u6bcf50\u7b49\u589e\u52a01\u9ede\u50b7\u5bb3(\u534a\u5fc3)[[YELLOW]]200\u7b49\u9054\u5230\u6975\u96504\u9ede\u50b7\u5bb3.
p3807
sg5
V[[DARK_AQUA]]How does Axe Mastery work?\u005cn[[YELLOW]]Axe Mastery is a passive ability that will add additional damage\u005cn[[YELLOW]]to your hits when using Axes.\u005cn[[YELLOW]]By default, the bonus damage increases by 1 every 50 levels,\u005cn[[YELLOW]]up to a cap of 4 extra damage at level 200.
p3808
sg7
VGuides.Axes.Section.3
p3809
ssS'3975697'
p3810
(dp3811
g3
V[[DARK_AQUA]]\u95dc\u65bc [[YELLOW]]mcMMO[[DARK_AQUA]] \u5c08\u6848:,[[GOLD]]mcMMO \u70ba [[BLUE]]nossr50[[GOLD]] \u5f9e 2011 \u4e8c\u6708\u958b\u59cb\u6240\u64b0\u5beb\u7684[[RED]]\u958b\u653e\u539f\u59cb\u78bc[[GOLD]] RPG \u6a21\u7d44[[GOLD]]. \u65e8\u5728\u63d0\u4f9b\u4e00\u500b\u9ad8\u54c1\u8cea\u7684 RPG \u9ad4\u9a57.,[[DARK_AQUA]]\u5c0f\u6280\u5de7:,[[GOLD]] - [[GREEN]]\u8f38\u5165 [[RED]]/mcmmo help[[GREEN]] \u4f86\u67e5\u770b\u6307\u4ee4,[[GOLD]] - [[GREEN]]\u8f38\u5165 [[RED]]/\u6280\u80fd\u540d\u7a31[[GREEN]] \u4f86\u67e5\u770b\u8a73\u7d30\u6280\u80fd\u8cc7\u8a0a,[[DARK_AQUA]]\u958b\u767c\u8005:,[[GOLD]] - [[GREEN]]nossr50 [[BLUE]](\u5275\u8fa6\u4eba),[[GOLD]] - [[GREEN]]GJ [[BLUE]](\u5c08\u6848\u9818\u5c0e\u4eba),[[GOLD]] - [[GREEN]]NuclearW [[BLUE]](\u958b\u767c\u8005),[[GOLD]] - [[GREEN]]bm01 [[BLUE]](\u958b\u767c\u8005),[[GOLD]] - [[GREEN]]TfT_02 [[BLUE]](\u958b\u767c\u8005),[[GOLD]] - [[GREEN]]Glitchfinder [[BLUE]](\u958b\u767c\u8005),[[GOLD]] - [[GREEN]]t00thpick1 [[BLUE]](\u958b\u767c\u8005),[[GOLD]] - [[GREEN]]EasyMFnE [[BLUE]](\u958b\u767c\u8005),[[DARK_AQUA]]\u5be6\u7528\u9023\u7d50:,[[GOLD]] - [[GREEN]]https://github.com/mcMMO-Dev/mcMMO/issues[[GOLD]] \u56de\u5831\u81ed\u87f2,[[GOLD]] - [[GREEN]]#mcmmo @ irc.esper.net[[GOLD]] IRC \u804a\u5929\u983b\u9053,
p3812
sg5
V[[DARK_AQUA]]About the [[YELLOW]]mcMMO[[DARK_AQUA]] Project:,[[GOLD]]mcMMO is an [[RED]]open source[[GOLD]] RPG mod created in February 2011,[[GOLD]]by [[BLUE]]nossr50[[GOLD]]. The goal is to provide a quality RPG experience.,[[DARK_AQUA]]Tips:,[[GOLD]] - [[GREEN]]Use [[RED]]/mcmmo help[[GREEN]] to see commands,[[GOLD]] - [[GREEN]]Type [[RED]]/SKILLNAME[[GREEN]] to see detailed skill info,[[DARK_AQUA]]Developers:,[[GOLD]] - [[GREEN]]nossr50 [[BLUE]](Founder),[[GOLD]] - [[GREEN]]GJ [[BLUE]](Project Lead),[[GOLD]] - [[GREEN]]NuclearW [[BLUE]](Developer),[[GOLD]] - [[GREEN]]bm01 [[BLUE]](Developer),[[GOLD]] - [[GREEN]]TfT_02 [[BLUE]](Developer),[[GOLD]] - [[GREEN]]Glitchfinder [[BLUE]](Developer),[[GOLD]] - [[GREEN]]t00thpick1 [[BLUE]](Developer),[[GOLD]] - [[GREEN]]EasyMFnE [[BLUE]](Developer),[[DARK_AQUA]]Useful Links:,[[GOLD]] - [[GREEN]]https://github.com/mcMMO-Dev/mcMMO/issues[[GOLD]] Bug Reporting,[[GOLD]] - [[GREEN]]#mcmmo @ irc.esper.net[[GOLD]] IRC Chat,
p3813
sg7
VmcMMO.Description
p3814
ssS'3785663'
p3815
(dp3816
g3
V[[GREEN]]\u76ee\u524d\u7d93\u9a57\u503c
p3817
sg5
V[[GREEN]]Current XP
p3818
sg7
VScoreboard.Misc.CurrentXP
p3819
ssS'791935'
p3820
(dp3821
g3
V[mcMMO] \u968a\u4f0d\u529f\u80fd\u4e0d\u5141\u8a31\u5728\u9019\u4e16\u754c\u958b\u555f (\u8acb\u89c0\u770b\u6b0a\u9650\u8a2d\u5b9a)
p3822
sg5
V[mcMMO] Parties not permitted on this world (See Permissions)
p3823
sg7
VParty.Forbidden
p3824
ssS'791937'
p3825
(dp3826
g3
V[[GREEN]]**\u4f60\u63e1\u7dca\u4e86\u4f60\u7684\u65a7\u982d**
p3827
sg5
V[[GREEN]]**YOU READY YOUR AXE**
p3828
sg7
VAxes.Ability.Ready
p3829
ssS'791936'
p3830
(dp3831
g3
V[[RED]]**\u8d85\u7d1a\u788e\u77f3\u6a5f\u5df2\u7ed3\u675f**
p3832
sg5
V[[RED]]**Super Breaker has worn off**
p3833
sg7
VMining.Skills.SuperBreaker.Off
p3834
ssS'2137875'
p3835
(dp3836
g3
V{0} \u50b7\u5bb3\u7bc4\u570d, \u653e\u8840\u7bc4\u570d
p3837
sg5
V{0} DMG AoE, Bleed+ AoE
p3838
sg7
VSwords.Effect.3
p3839
ssS'2137874'
p3840
(dp3841
g3
V\u8ff7\u60d1\u6575\u4eba\u4e26\u9020\u6210 {0}\u9ede\u50b7\u5bb3
p3842
sg5
VDisorients foes and deals {0} DMG
p3843
sg7
VArchery.Effect.3
p3844
ssS'2137876'
p3845
(dp3846
g3
V{0} \u6d41\u8840\u9031\u671f
p3847
sg5
V{0} Tick Bleed
p3848
sg7
VSwords.Effect.5
p3849
ssS'2137879'
p3850
(dp3851
g3
V\u7206\u70b8\u50b7\u5bb3\u6e1b\u514d\u70ba 1/{0} 
p3852
sg5
VExplosives do 1/{0} normal damage
p3853
sg7
VTaming.Ability.Bonus.5
p3854
ssS'2137878'
p3855
(dp3856
g3
V1/{0} \u50b7\u5bb3/\u706b\u7130\u50b7\u5bb3
p3857
sg5
V1/{0} Damage, Fire Resistance
p3858
sg7
VTaming.Ability.Bonus.3
p3859
ssS'3864602'
p3860
(dp3861
g16
V[[DARK_GRAY]]\u540d\u7a31: [[WHITE]]{0} {1} [[DARK_GRAY]]\u7b49\u7d1a: [[DARK_AQUA]]{2}
p3862
sg18
V[[DARK_GRAY]]NAME: [[WHITE]]{0} {1} [[DARK_GRAY]]LEVEL: [[DARK_AQUA]]{2}
p3863
sg20
VCommands.Party.Status
p3864
ssS'3864603'
p3865
(dp3866
g16
V[[YELLOW]]\u968a\u4f0d\u7b49\u7d1a\u4e0a\u5347\u4e86 {0}. \u7e3d\u7b49\u7d1a ({1})
p3867
sg18
V[[YELLOW]]Party level increased by {0}. Total ({1})
p3868
sg20
VParty.LevelUp
p3869
ssS'791939'
p3870
(dp3871
g3
V[[GOLD]] mcMMO \u7d93\u9a57\u52a0\u500d\u6642\u6bb5\u958b\u59cb!
p3872
sg5
V[[GOLD]]XP EVENT FOR mcMMO HAS STARTED!
p3873
sg7
VCommands.xprate.started.0
p3874
ssS'3587688'
p3875
(dp3876
g3
V[[DARK_AQUA]]\u95dc\u65bc\u91e3\u9b5a:[[YELLOW]]\u6709\u4e86\u91e3\u9b5a\u6280\u80fd,\u91e3\u9b5a\u66f4\u6709\u8da3\u4e86![[YELLOW]]\u53ef\u4ee5\u6389\u5bf6\u7269,\u5f9e\u602a\u7269\u8eab\u4e0a\u76dc\u5bf6.[[DARK_AQUA]]\u7372\u53d6\u7d93\u9a57:[[YELLOW]]\u6293\u5230\u9b5a.
p3877
sg5
V[[DARK_AQUA]]About Fishing:\u005cn[[YELLOW]]With the Fishing skill, Fishing is exciting again!\u005cn[[YELLOW]]Find hidden treasures, and shake items off mobs.\u005cn\u005cn[[DARK_AQUA]]XP GAIN:\u005cn[[YELLOW]]Catch fish.
p3878
sg7
VGuides.Fishing.Section.0
p3879
ssS'3587689'
p3880
(dp3881
g3
V[[DARK_AQUA]]\u4ec0\u9ebc\u662f\u4f10\u6728\u5de5?[[YELLOW]]\u4f10\u6728\u5de5\u662f\u4e3b\u52d5\u6280\u80fd,\u6301\u6709\u65a7\u982d\u6642\u9ede\u53f3\u9375[[YELLOW]]\u53ef\u4ee5\u767c\u52d5.\u5c07\u5c0e\u81f4\u6574\u68f5\u6a39\u6728\u76f4\u63a5\u7834\u58de,[[YELLOW]]\u6240\u6709\u679d\u8449\u90fd\u5c07\u6389\u843d.
p3882
sg5
V[[DARK_AQUA]]How does Tree Feller work?\u005cn[[YELLOW]]Tree Feller is an active ability, you can right-click\u005cn[[YELLOW]]while holding an ax to activate Tree Feller. This will\u005cn[[YELLOW]]cause the entire tree to break instantly, dropping all\u005cn[[YELLOW]]of its logs at once.
p3883
sg7
VGuides.Woodcutting.Section.1
p3884
ssS'4083022'
p3885
(dp3886
g249
V[[DARK_AQUA]]\u4ec0\u9ebc\u662f\u8abf\u914d?\u005cn[[YELLOW]]\u8abf\u914d\u5141\u8a31\u4f7f\u7528\u81ea\u8a02\u914d\u65b9\u4f86\u91c0\u9020\u66f4\u591a\u7a2e\u985e\u7684\u85e5\u6c34.\u005cn[[YELLOW]]\u7279\u6b8a\u7684\u914d\u65b9\u5c07\u4f9d\u7167\u4f60\u7684\u7b49\u7d1a\u4f86\u89e3\u9396. \u005cn[[YELLOW]]\u7e3d\u5171\u6709 8 \u500b\u7b49\u7d1a\u53ef\u89e3\u9396.
p3887
sg251
V[[DARK_AQUA]]How does Concoctions work?\u005cn[[YELLOW]]Concoctions allows brewing of more potions with custom ingredients.\u005cn[[YELLOW]]Which special ingredients are unlocked is determined\u005cn[[YELLOW]]by your Rank. There are 8 ranks to unlock.
p3888
sg253
VGuides.Alchemy.Section.2
p3889
ssS'791931'
p3890
(dp3891
g16
V[[RED]]- \u67e5\u770b\u4f60\u7684mcMMO\u7d71\u8a08\u8a0a\u606f
p3892
sg18
V[[RED]]- View your mcMMO stats
p3893
sg20
VCommands.Stats
p3894
ssS'3587680'
p3895
(dp3896
g3
V[[DARK_AQUA]]\u4ec0\u9ebc\u662f\u56de\u6536?[[YELLOW]]\u5c07\u624b\u4e2d\u7684\u7269\u54c1\u5c0dmcMMO\u56de\u6536\u7827(\u9810\u8a2d\u91d1\u78da)[[YELLOW]]\u9ede\u64ca\u53f3\u9375. \u6703\u5c07\u7269\u54c1\u62c6\u89e3\u56de\u6240\u4f7f\u7528\u7684\u539f\u6599.[[YELLOW]]\u6ce8\u610f: \u4f60\u53ea\u80fd\u56de\u6536\u7121\u8017\u640d\u7684\u5de5\u5177\u6216\u88dd\u5099
p3897
sg5
V[[DARK_AQUA]]How does Salvage work?\u005cn[[YELLOW]]Place down a mcMMO Salvage Anvil and right-click to salvage\u005cn[[YELLOW]]the item you're currently holding.\u005cn[[YELLOW]]This will break the item apart en give back the used ingots.\u005cn[[YELLOW]]Note: You can only salvage fully repaired tools or armor.
p3898
sg7
VGuides.Repair.Section.5
p3899
ssS'3587681'
p3900
(dp3901
g3
V[[DARK_AQUA]]\u4ec0\u9ebc\u662f\u9435\u81c2?[[YELLOW]]\u9435\u81c2\u80fd\u589e\u52a0\u5f92\u624b\u653b\u64ca\u602a\u7269\u6216[[YELLOW]]\u73a9\u5bb6\u7684\u5a01\u529b.
p3902
sg5
V[[DARK_AQUA]]How does Iron Arm work?\u005cn[[YELLOW]]Iron Arm increases the damage dealt when hitting mobs or\u005cn[[YELLOW]]players with your fists.
p3903
sg7
VGuides.Unarmed.Section.2
p3904
ssS'3587682'
p3905
(dp3906
g3
V[[DARK_AQUA]]\u4ec0\u9ebc\u662f\u64ca\u843d\u5f13\u7bad?[[YELLOW]]\u64ca\u843d\u5f13\u7bad\u662f\u4e00\u500b\u88ab\u52d5\u6280\u80fd,\u8b93\u4f60\u6709\u6a5f\u7387[[YELLOW]]\u80fd\u64ca\u843d\u9ab7\u9acf\u7372\u73a9\u5bb6\u5c04\u5411\u4f60\u7684\u7bad.[[YELLOW]]\u7bad\u6703\u88ab\u64ca\u843d\u81f3\u5730\u9762.
p3907
sg5
V[[DARK_AQUA]]How does Arrow Deflect work?\u005cn[[YELLOW]]Arrow Deflect is a passive ability that gives you a chance\u005cn[[YELLOW]]to deflect arrows shot by Skeletons or other players.\u005cn[[YELLOW]]The arrow will fall harmlessly to the ground.
p3908
sg7
VGuides.Unarmed.Section.3
p3909
ssS'3587683'
p3910
(dp3911
g3
V[[DARK_AQUA]]\u640f\u64ca:[[YELLOW]]\u640f\u64ca\u8b93\u73a9\u5bb6\u5728\u4f7f\u7528\u62f3\u982d\u4f5c\u6230\u6642\u6709[[YELLOW]]\u5404\u7a2e\u52a0\u4e58\u6548\u679c.[[DARK_AQUA]]\u7d93\u9a57\u7372\u53d6:[[YELLOW]]\u5728\u7528\u624b\u653b\u64ca\u602a\u7269\u6216\u73a9\u5bb6\u6642\u53ef\u4ee5\u7372\u53d6\u7d93\u9a57.
p3912
sg5
V[[DARK_AQUA]]About Unarmed:\u005cn[[YELLOW]]Unarmed will give players various combat bonuses when using\u005cn[[YELLOW]]your fists as a weapon. \u005cn\u005cn[[DARK_AQUA]]XP GAIN:\u005cn[[YELLOW]]XP is gained based on the amount of damage dealt to mobs \u005cn[[YELLOW]]or other players when unarmed.
p3913
sg7
VGuides.Unarmed.Section.0
p3914
ssS'3587684'
p3915
(dp3916
g3
V[[DARK_AQUA]]\u4ec0\u9ebc\u662f\u72c2\u66b4?[[YELLOW]]\u72c2\u66b4\u662f\u4e3b\u52d5\u6280\u80fd,\u7a7a\u624b\u6642\u9ede\u64ca\u53f3\u9375\u767c\u52d5.[[YELLOW]]\u72c2\u66b4\u53ef\u4ee5\u52a0\u4e5850%\u5c0d\u65b9\u584a\u7684\u50b7\u5bb3,[[YELLOW]]\u4f7f\u4f60\u53ef\u4ee5\u8f15\u9b06\u7834\u58de\u8106\u5f31\u7269\u9ad4,[[YELLOW]]\u5982\u571f\u8207\u7802.
p3917
sg5
V[[DARK_AQUA]]How does Berserk work?\u005cn[[YELLOW]]Beserk is an active ability that is activated by\u005cn[[YELLOW]]right-clicking. While in Beserk mode, you deal 50% more\u005cn[[YELLOW]]damage and you can break weak materials instantly, such as\u005cn[[YELLOW]]Dirt and Grass.
p3918
sg7
VGuides.Unarmed.Section.1
p3919
ssS'3587685'
p3920
(dp3921
g3
V[[DARK_AQUA]]\u4ec0\u9ebc\u662f\u9435\u722a?[[YELLOW]]\u9435\u722a\u53ef\u4ee5\u6709\u6a5f\u7387\u4f7f\u64ca\u843d\u6b66\u5668\u7121\u6548\u5316.[[YELLOW]]\u6a5f\u7387\u95dc\u4fc2\u5230\u640f\u64ca\u6280\u80fd\u7b49\u7d1a.
p3922
sg5
V[[DARK_AQUA]]How does Iron Grip work?\u005cn[[YELLOW]]Iron Grip is a passive ability that counters disarm. As your\u005cn[[YELLOW]]unarmed level increases, the chance of preventing a disarm increases.
p3923
sg7
VGuides.Unarmed.Section.4
p3924
ssS'3917290'
p3925
(dp3926
g16
V[[RED]]-----[][[GREEN]]\u529f\u80fd[[RED]][]-----
p3927
sg18
V[[RED]]-----[][[GREEN]]FEATURES[[RED]][]-----
p3928
sg20
VCommands.Party.Features.Header
p3929
ssS'791899'
p3930
(dp3931
g3
V\u65a7\u982d\u7cbe\u901a
p3932
sg5
VAxe Mastery
p3933
sg7
VAxes.Effect.4
p3934
ssS'2662088'
p3935
(dp3936
g3
V[[GREEN]]\u518d\u6b21\u6309\u4e0b\u6ed1\u9f20\u53f3\u9375\u4f86\u78ba\u8a8d [[GOLD]]{0}[[GREEN]]. \u6ed1\u9f20\u5de6\u9375\u53d6\u6d88.
p3937
sg5
V[[GREEN]]Right-click again to confirm [[GOLD]]{0}[[GREEN]]. Left-click to cancel.
p3938
sg7
VSkills.ConfirmOrCancel
p3939
ssS'4083023'
p3940
(dp3941
g249
V[[DARK_AQUA]]\u8abf\u914d\u7b2c 5 \u968e\u6bb5:\u005cn[[YELLOW]]\u68d5\u8611\u83c7(Brown Mushroom), \u58a8\u56ca(Ink Sack)\u005cn[[DARK_AQUA]]\u8abf\u914d\u7b2c 6 \u968e\u6bb5:\u005cn[[YELLOW]]\u8292\u8349(Tall Grass)
p3942
sg251
V[[DARK_AQUA]]Concotions tier 5 ingredients:\u005cn[[YELLOW]]Brown Mushroom, Ink Sack\u005cn\u005cn[[DARK_AQUA]]Concotions tier 6 ingredients:\u005cn[[YELLOW]]Tall Grass
p3943
sg253
VGuides.Alchemy.Section.5
p3944
ssS'791930'
p3945
(dp3946
g3
V[[RED]]mcMMO \u7d93\u9a57\u52a0\u500d\u7ed3\u675f!!
p3947
sg5
V[[RED]]mcMMO XP Rate Event is OVER!!
p3948
sg7
VCommands.xprate.over
p3949
ssS'2190038'
p3950
(dp3951
g3
V \u6e05\u9664mcMMO\u6280\u80fd\u7b49\u7d1a\u70ba0\u6216\u8d85\u904e{0}\u500b\u6708\u672a\u767b\u5165\u7684\u7528\u6236\u8cc7\u6599.
p3952
sg5
VPurge users with no mcMMO levels and users who have not connected in over {0} months from the mcMMO database.
p3953
sg7
VCommands.Description.mcpurge
p3954
ssS'2190039'
p3955
(dp3956
g3
V\u4f7f\u7528\u53f3\u9375\u767c\u52d5mcMMO\u6280\u80fd(\u958b/\u95dc)
p3957
sg5
VToggle mcMMO abilities being readied on right-click on/off
p3958
sg7
VCommands.Description.mcability
p3959
ssS'3587633'
p3960
(dp3961
g3
V[[DARK_AQUA]]\u95dc\u65bc\u65a7\u6280:[[YELLOW]]\u6709\u4e86\u65a7\u6280, \u4f60\u5c31\u53ef\u4ee5\u4e0d\u5fc5\u53ea\u662f\u4e82\u63ee\u4e82\u780d[[YELLOW]]\u4f60\u53ef\u4ee5\u66f4\u6709\u6548\u5730\u64ca\u6bba\u53ef\u60e1\u7684\u602a\u7269\u5011![[YELLOW]]\u800c\u4e14\u53ef\u4ee5\u5728\u63ee\u64ca\u6642\u70b8\u98db\u6216\u767c\u51fa\u81f4\u547d\u7684\u66b4\u64ca[[YELLOW]]\u4ee5\u91cd\u5275 \u5c0d\u624b.[[YELLOW]]\u4f60\u7684\u65a7\u982d\u4e5f\u53ef\u4ee5\u6210\u70ba\u4e00\u53f0\u524a\u6728\u6a5f,[[YELLOW]]\u91cd\u5275\u5c0d\u624b\u7684\u88dd\u7532,\u96a8\u8457\u64cd\u65a7\u6280\u80fd\u5347\u9ad8\u800c[[YELLOW]]\u63d0\u5347\u6548\u679c.[[DARK_AQUA]]\u5982\u4f55\u7372\u53d6\u7d93\u9a57:[[YELLOW]]\u8981\u7372\u53d6\u7d93\u9a57\u4f60\u5fc5\u9808\u7528\u65a7\u982d\u653b\u64ca\u73a9\u5bb6\u6216\u602a\u7269
p3962
sg5
V[[DARK_AQUA]]About Axes:\u005cn[[YELLOW]]With the Axes skill you can use your axe for much more then\u005cn[[YELLOW]]just deforesting! You can hack and chop away at mobs\u005cn[[YELLOW]]and players to gain XP, hitting mobs with the effect of\u005cn[[YELLOW]]knockback and inflicting DEADLY criticals on mobs and players.\u005cn[[YELLOW]]Your axe also becomes a hand-held woodchipper,\u005cn[[YELLOW]]breaking down the enemy's armor with ease as your level\u005cn[[YELLOW]]increases.\u005cn[[DARK_AQUA]]XP GAIN:\u005cn[[YELLOW]]To gain XP in this skill you need hit other mobs or players\u005cn[[YELLOW]]with an Axe.
p3963
sg7
VGuides.Axes.Section.0
p3964
ssS'2158663'
p3965
(dp3966
g3
V[[RED]]-----[][[GREEN]]\u968a\u4f0d[[RED]][]-----
p3967
sg5
V[[RED]]-----[][[GREEN]]PARTY[[RED]][]-----
p3968
sg7
VCommands.Party.Header
p3969
ssS'2158662'
p3970
(dp3971
g3
V[[DARK_RED]]{0} \u4e26\u4e0d\u5728\u7dda\u4e0a!
p3972
sg5
V[[DARK_RED]]{0} is not online!
p3973
sg7
VParty.NotOnline
p3974
ssS'2158661'
p3975
(dp3976
g3
V[[DARK_GRAY]]\u540d\u5b57: [[WHITE]]{0} {1}
p3977
sg5
V[[DARK_GRAY]]NAME: [[WHITE]]{0} {1}
p3978
sg7
VCommands.Party.Status
p3979
ssS'2158660'
p3980
(dp3981
g3
V[[GRAY]]\u52a0\u5165\u7684\u968a\u4f0d: {0}
p3982
sg5
V[[GRAY]]Joined Party: {0}
p3983
sg7
VCommands.Party.Join
p3984
ssS'2158666'
p3985
(dp3986
g3
V\u968a\u4f0d\u50b3\u9001\u8acb\u6c42\u78ba\u8a8d[[RED]]\u7981\u7528
p3987
sg5
VParty teleport request confirmation [[RED]]disabled
p3988
sg7
VCommands.ptp.AcceptAny.Disabled
p3989
ssS'2158665'
p3990
(dp3991
g3
V\u5bc6\u78bc
p3992
sg5
Vpassword
p3993
sg7
VCommands.Usage.Password
p3994
ssS'2158664'
p3995
(dp3996
g3
V[[GRAY]]\u968a\u4f0d\u5df2\u89e3\u6563
p3997
sg5
V[[GRAY]]The party has been disbanded
p3998
sg7
VParty.Disband
p3999
ssS'2138171'
p4000
(dp4001
g3
V\u6d41\u80fd\u6316\u7926
p4002
sg5
VFlux Mining
p4003
sg7
VSmelting.Effect.6
p4004
ssS'2138170'
p4005
(dp4006
g3
V[[RED]]\u71c3\u71d2\u6548\u7387\u52a0\u4e58: [[YELLOW]]{0}x
p4007
sg5
V[[RED]]Fuel Efficiency Multiplier: [[YELLOW]]{0}x
p4008
sg7
VSmelting.Ability.FuelEfficiency
p4009
ssS'791718'
p4010
(dp4011
g3
V[[GREEN]]**\u767c\u52d5\u5272\u88c2\u65ac**
p4012
sg5
V[[GREEN]]**SERRATED STRIKES ACTIVATED**
p4013
sg7
VSwords.Skills.SS.On
p4014
ssS'791751'
p4015
(dp4016
g3
V[[DARK_RED]]\u4f60\u7684\u6280\u80fd\u7b49\u7d1a\u4e0d\u8db3\u4ee5\u4fee\u7406\u77f3\u982d\u88dd\u5099!
p4017
sg5
V[[DARK_RED]]You're not skilled enough to repair Stone.
p4018
sg7
VRepair.Skills.AdeptStone
p4019
ssS'792141'
p4020
(dp4021
g3
V\u5de8\u5927\u7206\u7834
p4022
sg5
VBigger Bombs
p4023
sg7
VMining.Effect.6
p4024
ssS'791753'
p4025
(dp4026
g3
V[[GREEN]]**\u53cd\u5c04\u4e86\u6575\u4eba\u7684\u653b\u64ca**
p4027
sg5
V[[GREEN]]**COUNTER-ATTACKED**
p4028
sg7
VSwords.Combat.Countered
p4029
ssS'791752'
p4030
(dp4031
g3
V[[GREEN]]**\u99b4\u7378\u4e4b\u80fd**
p4032
sg5
V[[GREEN]]**BEAST LORE**
p4033
sg7
VCombat.BeastLore
p4034
ssS'791885'
p4035
(dp4036
g3
V[[DARK_AQUA]]{0}: [[GREEN]]{1}
p4037
sg5
V[[DARK_AQUA]]{0}: [[GREEN]]{1}
p4038
sg7
VEffects.Template
p4039
ssS'791754'
p4040
(dp4041
g3
V[[RED]]\u4f10\u6728\u5de5[[GREEN]] \u5373\u5c07\u7ed3\u675f [[YELLOW]]{0}
p4042
sg5
V[[RED]]Tree Feller[[GREEN]] has worn off for [[YELLOW]]{0}
p4043
sg7
VWoodcutting.Skills.TreeFeller.Other.Off
p4044
ssS'2195770'
p4045
(dp4046
g3
V\u50b3\u9001\u5230\u4e00\u500bmcMMO\u968a\u4f0d\u6210\u54e1\u65c1
p4047
sg5
VTeleport to an mcMMO party member
p4048
sg7
VCommands.Description.ptp
p4049
ssS'2195771'
p4050
(dp4051
g3
V\u8abf\u6574mcMMO\u5438\u8840\u6bd4\u4f8b\u6216\u5207\u63db\u5438\u8840\u6a21\u5f0f (\u958b/\u95dc)
p4052
sg5
VModify the mcMMO vampirism percentage or toggle vampirism mode on/off
p4053
sg7
VCommands.Description.vampirism
p4054
ssS'791759'
p4055
(dp4056
g3
V\u4fee\u7406\u9644\u9b54\u7269\u54c1
p4057
sg5
VRepair magic items
p4058
sg7
VRepair.Effect.9
p4059
ssS'791758'
p4060
(dp4061
g3
V[[YELLOW]]\u4fee\u7406\u6280\u80fd\u4e0a\u5347\u4e86 {0}. \u7e3d\u7b49\u7d1a ({1})
p4062
sg5
V[[YELLOW]]Repair skill increased by {0}. Total ({1})
p4063
sg7
VRepair.Skillup
p4064
ssS'791740'
p4065
(dp4066
g3
V\u6383\u9664\u8449\u5b50
p4067
sg5
VBlow away leaves
p4068
sg7
VWoodcutting.Ability.1
p4069
ssS'3633744'
p4070
(dp4071
g3
V\u9396\u5b9a\u76f4\u5230\u6280\u80fd {0}+ (\u5782\u91e3\u5927\u5e2b)
p4072
sg5
VLOCKED UNTIL {0}+ SKILL (MASTER ANGLER)
p4073
sg7
VFishing.Ability.Locked.2
p4074
ssS'791715'
p4075
(dp4076
g3
V[[RED]]\u4f60\u5df2\u88ab {0} \u8e22\u51fa\u968a\u4f0d!
p4077
sg5
V[[RED]]You were kicked from party {0}!
p4078
sg7
VCommands.Party.Kick
p4079
ssS'791741'
p4080
(dp4081
g3
V[[GREEN]]**\u6575\u4eba\u6b63\u5728\u4e0d\u65b7\u6d41\u8840**
p4082
sg5
V[[GREEN]]**ENEMY BLEEDING**
p4083
sg7
VSwords.Combat.Bleeding
p4084
ssS'791958'
p4085
(dp4086
g3
V[[DARK_RED]]\u90a3\u4e0d\u662f\u4e00\u500b\u6709\u6548\u7684\u968a\u4f0d\u540d\u7a31.
p4087
sg5
V[[DARK_RED]]That is not a valid party name.
p4088
sg7
VParty.InvalidName
p4089
ssS'3587653'
p4090
(dp4091
g3
V[[DARK_AQUA]]\u4ec0\u9ebc\u662f\u6d77\u502b\u7684\u795d\u798f?[[YELLOW]]\u9019\u662f\u4e00\u500b\u4e3b\u52d5\u6280\u80fd,\u6709\u6a5f\u7387\u5728\u7528\u528d\u7834\u58de\u7279\u5b9a[[YELLOW]]\u65b9\u584a\u6642\u7372\u5f97\u7a00\u6709\u9053\u5177.
p4092
sg5
V[[DARK_AQUA]]How does Hylian Luck work?\u005cn[[YELLOW]]This passive ability gives you a chance to find rare items\u005cn[[YELLOW]]when certain blocks are broken with a sword.
p4093
sg7
VGuides.Herbalism.Section.6
p4094
ssS'3919485'
p4095
(dp4096
g16
V\u9396\u5b9a\u76f4\u5230\u6280\u80fd {0}+ (\u806f\u76df)
p4097
sg18
VLOCKED UNTIL {0}+ (ALLIANCES)
p4098
sg20
VParty.Feature.Locked.Alliance
p4099
ssS'3919484'
p4100
(dp4101
g16
V\u9396\u5b9a\u76f4\u5230\u6280\u80fd {0}+ (\u968a\u4f0d\u50b3\u9001)
p4102
sg18
VLOCKED UNTIL {0}+ (PARTY TELEPORT)
p4103
sg20
VParty.Feature.Locked.Teleport
p4104
ssS'3919487'
p4105
(dp4106
g16
V[[DARK_GRAY]]\u5df2\u89e3\u9396\u7684\u529f\u80fd: [[GRAY]][[ITALIC]]{0}
p4107
sg18
V[[DARK_GRAY]]Unlocked Features: [[GRAY]][[ITALIC]]{0}
p4108
sg20
VCommands.Party.UnlockedFeatures
p4109
ssS'792133'
p4110
(dp4111
g3
V+50%\u50b7\u5bb3 \u80fd\u7834\u58de\u786c\u5ea6\u4f4e\u7684\u65b9\u584a
p4112
sg5
V+50% DMG, Breaks weak materials
p4113
sg7
VUnarmed.Effect.1
p4114
ssS'3785640'
p4115
(dp4116
g3
V[[DARK_AQUA]]\u7b49\u7d1a
p4117
sg5
V[[DARK_AQUA]]Level
p4118
sg7
VScoreboard.Misc.Level
p4119
ssS'791744'
p4120
(dp4121
g3
V[[RED]]\u8d85\u7d1a\u788e\u77f3\u6a5f\u6301\u7e8c\u6642\u9593: [[YELLOW]]{0}s
p4122
sg5
V[[RED]]Super Breaker Length: [[YELLOW]]{0}s
p4123
sg7
VMining.Ability.Length
p4124
ssS'3919483'
p4125
(dp4126
g16
V\u9396\u5b9a\u76f4\u5230\u6280\u80fd {0}+ (\u7d93\u9a57\u5206\u4eab)
p4127
sg18
VLOCKED UNTIL {0}+ (XP SHARING)
p4128
sg20
VParty.Feature.Locked.XpShare
p4129
ssS'791711'
p4130
(dp4131
g3
V\u99b4\u7378, \u6216\u548c\u4f60\u7684\u72fc\u4e00\u8d77\u6230\u9b25
p4132
sg5
VAnimal Taming, or combat w/ your wolves
p4133
sg7
VCommands.XPGain.Taming
p4134
ssS'791745'
p4135
(dp4136
g3
V[[YELLOW]]--mcMMO[[BLUE]] \u6230\u9b25\u529b [[YELLOW]]\u6392\u884c\u699c--
p4137
sg5
V[[YELLOW]]--mcMMO[[BLUE]] Power Level [[YELLOW]]Leaderboard--
p4138
sg7
VCommands.PowerLevel.Leaderboard
p4139
ssS'3919488'
p4140
(dp4141
g16
V\u9396\u5b9a\u76f4\u5230\u6280\u80fd {0}+ (\u7269\u54c1\u5206\u4eab)
p4142
sg18
VLOCKED UNTIL {0}+ (ITEM SHARING)
p4143
sg20
VParty.Feature.Locked.ItemShare
p4144
ssS'791968'
p4145
(dp4146
g3
V\u96d9\u500d\u6389\u843d\u7269\u54c1
p4147
sg5
VDouble the normal loot
p4148
sg7
VWoodcutting.Effect.5
p4149
ssS'791713'
p4150
(dp4151
g3
V[[DARK_GRAY]]\u7372\u5f97\u7d93\u9a57\u503c:[[WHITE]]{0}
p4152
sg5
V[[DARK_GRAY]]XP GAIN: [[WHITE]]{0}
p4153
sg7
VCommands.XPGain
p4154
ssS'791945'
p4155
(dp4156
g3
V[[RED]]\u5288\u9871\u65ac[[GREEN]] \u5373\u5c07\u7ed3\u675f [[YELLOW]]{0}
p4157
sg5
V[[RED]]Skull Splitter[[GREEN]] has worn off for [[YELLOW]]{0}
p4158
sg7
VAxes.Skills.SS.Other.Off
p4159
ssS'2260265'
p4160
(dp4161
g3
V[[DARK_GRAY]]\u7b49\u7d1a: [[GREEN]]{0}
p4162
sg5
V[[DARK_GRAY]]LVL: [[GREEN]]{0}
p4163
sg7
VEffects.Child
p4164
ssS'2260264'
p4165
(dp4166
g3
V[[GOLD]]{0} -
p4167
sg5
V[[GOLD]]{0} -
p4168
sg7
VEffects.Parent
p4169
ssS'2260267'
p4170
(dp4171
g3
V\u5f9e\u524d\u7f6e\u6280\u80fd\u7372\u53d6\u7b49\u7d1a
p4172
sg5
VGains levels from Parent Skills
p4173
sg7
VCommands.XPGain.Child
p4174
ssS'792137'
p4175
(dp4176
g3
V\u4f7f\u4f60\u7684\u88dd\u7532\u96a8\u6642\u9593\u589e\u52a0\u800c\u589e\u5f37
p4177
sg5
VHardens your arm over time
p4178
sg7
VUnarmed.Effect.5
p4179
ssS'3380654'
p4180
(dp4181
g3
V\u6b7b\u4ea1\u6280\u80fd\u61f2\u7f70
p4182
sg5
VSkill Death Penalty
p4183
sg7
VHardcore.DeathStatLoss.Name
p4184
ssS'2260263'
p4185
(dp4186
g3
V\u524d\u7f6e
p4187
sg5
VPARENTS
p4188
sg7
VSkills.Parents
p4189
ssS'2137880'
p4190
(dp4191
g3
V+{0} \u50b7\u5bb3
p4192
sg5
V+{0} Damage
p4193
sg7
VTaming.Ability.Bonus.7
p4194
ssS'2137882'
p4195
(dp4196
g3
V[[RED]]\u8fb2\u592b\u79c1\u623f\u83dc: [[YELLOW]]\u7b49\u7d1a {0}
p4197
sg5
V[[RED]]Farmer''s Diet: [[YELLOW]]Rank {0}
p4198
sg7
VHerbalism.Ability.FD
p4199
ssS'2137884'
p4200
(dp4201
g3
V\u9632\u6b62\u4f60\u7684\u6b66\u5668\u88ab\u64ca\u843d
p4202
sg5
VPrevents you from being disarmed
p4203
sg7
VUnarmed.Effect.9
p4204
ssS'2137885'
p4205
(dp4206
g3
V\u9435\u722a
p4207
sg5
VIron Grip
p4208
sg7
VUnarmed.Effect.8
p4209
ssS'791969'
p4210
(dp4211
g3
V[[DARK_RED]]\u4f60\u5df2\u7d93\u653e\u7f6e\u4e86\u4e00\u500b\u9435\u7827,\u4f60\u53ef\u4ee5\u5728\u9435\u7827\u4e0a\u4fee\u7406\u5de5\u5177\u548c\u88dd\u7532
p4212
sg5
V[[DARK_RED]]You have placed an anvil, anvils can repair tools and armor.
p4213
sg7
VRepair.Listener.Anvil
p4214
ssS'2115582'
p4215
(dp4216
g3
V\u4e0d\u5b58\u5728\u7684\u9801\u6578
p4217
sg5
VNot a valid page number!
p4218
sg7
VGuides.Page.Invalid
p4219
ssS'2115585'
p4220
(dp4221
g3
V[[RED]]\u6416\u6643\u6a5f\u7387: [[YELLOW]]{0}
p4222
sg5
V[[RED]]Shake Chance: [[YELLOW]]{0}
p4223
sg7
VFishing.Ability.Shake
p4224
ssS'2115584'
p4225
(dp4226
g3
V[[DARK_AQUA]] \u95dc\u65bc{0}\u7684\u8aaa\u660e - \u8f38\u5165 /{1} ? [\u9801\u6578]
p4227
sg5
V[[DARK_AQUA]]Guide for {0} available - type /{1} ? [page]
p4228
sg7
VGuides.Available
p4229
ssS'2115587'
p4230
(dp4231
g3
V[[GOLD]][mcMMO] \u6b63\u904b\u4f5c\u7684\u7248\u672c [[DARK_AQUA]]{0}
p4232
sg5
V[[GOLD]][mcMMO] Running version [[DARK_AQUA]]{0}
p4233
sg7
VMOTD.Version
p4234
ssS'2115586'
p4235
(dp4236
g3
V[[WHITE]]\u6392\u884c\u699c\u5916
p4237
sg5
V[[WHITE]]Unranked
p4238
sg7
VCommands.mcrank.Unranked
p4239
ssS'2115589'
p4240
(dp4241
g3
V[[GREEN]]\u4f60\u7684\u9435\u722a\u4f7f\u4f60\u7684\u6b66\u5668\u514d\u65bc\u88ab\u64ca\u843d!
p4242
sg5
V[[GREEN]]Your iron grip kept you from being disarmed!
p4243
sg7
VUnarmed.Ability.IronGrip.Defender
p4244
ssS'2115588'
p4245
(dp4246
g3
V\u9632\u5177\u7834\u58de\u8005
p4247
sg5
VArmor Impact
p4248
sg7
VAxes.Effect.6
p4249
ssS'4081066'
p4250
(dp4251
g3
V[[GREEN]]- \u50b3\u9001\u5230\u968a\u4f0d\u6210\u54e1\u8eab\u65c1
p4252
sg5
V[[GREEN]]- Teleport to party member
p4253
sg7
VCommands.Party.Teleport
p4254
ssS'792116'
p4255
(dp4256
g3
V3x \u6389\u843d\u7387, 3x \u7d93\u9a57\u503c, +\u901f\u5ea6
p4257
sg5
V3x Drop Rate, 3x EXP, +Speed
p4258
sg7
VExcavation.Effect.1
p4259
ssS'899366'
p4260
(dp4261
g3
V[[RED]]\u4f60\u5fc5\u9808\u9054\u5230\u7b49\u7d1a [[YELLOW]]{0}[[RED]] \u624d\u53ef\u4fee\u7406[[YELLOW]]{1}
p4262
sg5
V[[RED]]You must be level [[YELLOW]]{0}[[RED]] to repair [[YELLOW]]{1}
p4263
sg7
VRepair.Skills.Adept
p4264
ssS'791980'
p4265
(dp4266
g3
V[[DARK_RED]]\u6b0a\u9650\u4e0d\u8db3
p4267
sg5
V[[DARK_RED]]Insufficient permissions.
p4268
sg7
VmcMMO.NoPermission
p4269
ssS'3608228'
p4270
(dp4271
g3
V[[GRAY]]\u767c\u73fe\u5bf6\u7269\u4e86\uff01
p4272
sg5
V[[GRAY]]Treasure found!
p4273
sg7
VFishing.Ability.TH.ItemFound
p4274
ssS'2219960'
p4275
(dp4276
g3
V+{0} \u7926\u7269\u7522\u91cf, -{1}\u5783\u573e\u7522\u91cf, {2}x \u6389\u843d\u91cf
p4277
sg5
V+{0} ore yield, -{1} debris yield, {2}x drops
p4278
sg7
VMining.Blast.Effect
p4279
ssS'3608226'
p4280
(dp4281
g3
V[[GRAY]]\u4f60\u611f\u53d7\u5230\u9b54\u529b\u7684\u6ce2\u52d5...
p4282
sg5
V[[GRAY]]You feel a touch of magic with this catch...
p4283
sg7
VFishing.Ability.TH.MagicFound
p4284
ssS'3608227'
p4285
(dp4286
g3
V[[GRAY]]\u6536\u7a6b\u6642\u9593!!!
p4287
sg5
V[[GRAY]]BOOM TIME!!!
p4288
sg7
VFishing.Ability.TH.Boom
p4289
ss.